# symbols: 30286
# path name: /usr/libexec/gcc/x86_64-linux-gnu/14/cc1
# build-id: 1dddc377d50cd50ba0ccfe47aeb86ccd51ee44f1
0000000000257030 00000010 P _ITM_addUserCommitAction
0000000000257040 00000010 P mpfr_sin_cos
0000000000257050 00000010 P isl_val_int_from_ui
0000000000257060 00000010 P mpc_atanh
0000000000257070 00000010 P mpc_tanh
0000000000257080 00000010 P mpfr_j1
0000000000257090 00000010 P isl_union_pw_multi_aff_empty
00000000002570a0 00000010 P strdup
00000000002570b0 00000010 P isl_schedule_node_get_ctx
00000000002570c0 00000010 P isl_printer_print_union_map
00000000002570d0 00000010 P isl_ast_build_from_context
00000000002570e0 00000010 P isl_union_pw_multi_aff_add_pw_multi_aff
00000000002570f0 00000010 P fread_unlocked
0000000000257100 00000010 P mpc_mul
0000000000257110 00000010 P mpfr_hypot
0000000000257120 00000010 P isl_pw_aff_free
0000000000257130 00000010 P feof
0000000000257140 00000010 P isl_ast_expr_get_ctx
0000000000257150 00000010 P fdopen
0000000000257160 00000010 P pclose
0000000000257170 00000010 P __isoc23_strtoul
0000000000257180 00000010 P memcpy
0000000000257190 00000010 P isl_map_set_tuple_id
00000000002571a0 00000010 P stat
00000000002571b0 00000010 P isl_schedule_insert_partial_schedule
00000000002571c0 00000010 P realloc
00000000002571d0 00000010 P mpfr_cos
00000000002571e0 00000010 P isl_schedule_get_ctx
00000000002571f0 00000010 P isl_union_map_copy
0000000000257200 00000010 P isl_ast_node_mark_get_node
0000000000257210 00000010 P __gmpz_add
0000000000257220 00000010 P mpfr_set_si_2exp
0000000000257230 00000010 P isl_schedule_node_band_tile
0000000000257240 00000010 P isl_ast_node_list_n_ast_node
0000000000257250 00000010 P access
0000000000257260 00000010 P isl_map_insert_dims
0000000000257270 00000010 P isl_set_params
0000000000257280 00000010 P ioctl
0000000000257290 00000010 P __stpcpy_chk
00000000002572a0 00000010 P __ctype_b_loc
00000000002572b0 00000010 P isl_ast_node_if_get_else
00000000002572c0 00000010 P isl_ctx_reset_error
00000000002572d0 00000010 P mpfr_number_p
00000000002572e0 00000010 P isl_pw_aff_ne_set
00000000002572f0 00000010 P mpfr_overflow_p
0000000000257300 00000010 P fcntl
0000000000257310 00000010 P memmove
0000000000257320 00000010 P isl_options_set_tile_scale_tile_loops
0000000000257330 00000010 P isl_ast_node_for_get_init
0000000000257340 00000010 P isl_val_get_abs_num_chunks
0000000000257350 00000010 P isl_pw_aff_from_aff
0000000000257360 00000010 P dgettext
0000000000257370 00000010 P isl_printer_set_output_format
0000000000257380 00000010 P free
0000000000257390 00000010 P dlsym
00000000002573a0 00000010 P times
00000000002573b0 00000010 P _ITM_memcpyRnWt
00000000002573c0 00000010 P isl_map_dim
00000000002573d0 00000010 P syscall
00000000002573e0 00000010 P mpfr_clears
00000000002573f0 00000010 P isl_set_project_out
0000000000257400 00000010 P isl_union_access_info_compute_flow
0000000000257410 00000010 P isl_options_set_schedule_maximize_band_depth
0000000000257420 00000010 P isl_equality_alloc
0000000000257430 00000010 P isl_set_dim
0000000000257440 00000010 P __uflow
0000000000257450 00000010 P __gmpz_set_ui
0000000000257460 00000010 P __gmpz_set
0000000000257470 00000010 P close
0000000000257480 00000010 P unlink
0000000000257490 00000010 P strncmp
00000000002574a0 00000010 P pthread_mutex_unlock
00000000002574b0 00000010 P isl_printer_print_ast_node
00000000002574c0 00000010 P isl_schedule_node_child
00000000002574d0 00000010 P ungetc
00000000002574e0 00000010 P isl_ast_expr_get_id
00000000002574f0 00000010 P gmtime
0000000000257500 00000010 P __fprintf_chk
0000000000257510 00000010 P iconv
0000000000257520 00000010 P ftell
0000000000257530 00000010 P isl_schedule_constraints_set_proximity
0000000000257540 00000010 P isl_set_set_dim_id
0000000000257550 00000010 P lstat
0000000000257560 00000010 P isl_union_map_coalesce
0000000000257570 00000010 P isl_ast_expr_get_op_type
0000000000257580 00000010 P pthread_mutex_lock
0000000000257590 00000010 P mpfr_inits
00000000002575a0 00000010 P pthread_once
00000000002575b0 00000010 P dl_iterate_phdr
00000000002575c0 00000010 P isl_map_add_constraint
00000000002575d0 00000010 P strtok
00000000002575e0 00000010 P arc4random
00000000002575f0 00000010 P fileno_unlocked
0000000000257600 00000010 P lseek
0000000000257610 00000010 P readlink
0000000000257620 00000010 P __stack_chk_fail
0000000000257630 00000010 P mpfr_y1
0000000000257640 00000010 P perror
0000000000257650 00000010 P isl_union_set_from_set
0000000000257660 00000010 P isl_ast_node_block_get_children
0000000000257670 00000010 P mpfr_max
0000000000257680 00000010 P isl_aff_get_ctx
0000000000257690 00000010 P isl_schedule_free
00000000002576a0 00000010 P memset
00000000002576b0 00000010 P putc
00000000002576c0 00000010 P mpfr_set_nan
00000000002576d0 00000010 P isl_union_map_is_equal
00000000002576e0 00000010 P fputs
00000000002576f0 00000010 P isl_schedule_constraints_set_validity
0000000000257700 00000010 P __mbstowcs_chk
0000000000257710 00000010 P dlerror
0000000000257720 00000010 P mpc_sinh
0000000000257730 00000010 P isl_set_coalesce
0000000000257740 00000010 P mpfr_set_si
0000000000257750 00000010 P isl_pw_aff_lt_set
0000000000257760 00000010 P gzerror
0000000000257770 00000010 P isl_union_map_add_map
0000000000257780 00000010 P signal
0000000000257790 00000010 P isl_printer_print_set
00000000002577a0 00000010 P isl_union_set_empty
00000000002577b0 00000010 P isl_union_flow_free
00000000002577c0 00000010 P mpfr_acosh
00000000002577d0 00000010 P isl_ast_build_get_schedule
00000000002577e0 00000010 P isl_options_set_ast_build_atomic_upper_bound
00000000002577f0 00000010 P gzopen
0000000000257800 00000010 P bindtextdomain
0000000000257810 00000010 P mpc_tan
0000000000257820 00000010 P getcwd
0000000000257830 00000010 P mpfr_free_cache
0000000000257840 00000010 P __gmpz_sizeinbase
0000000000257850 00000010 P __strncpy_chk
0000000000257860 00000010 P getc
0000000000257870 00000010 P mpfr_yn
0000000000257880 00000010 P isl_space_free
0000000000257890 00000010 P isl_map_copy
00000000002578a0 00000010 P isl_pw_aff_set_tuple_id
00000000002578b0 00000010 P strlen
00000000002578c0 00000010 P isl_set_fix_si
00000000002578d0 00000010 P strcpy
00000000002578e0 00000010 P isl_schedule_from_domain
00000000002578f0 00000010 P isl_union_map_apply_range
0000000000257900 00000010 P isl_val_int_from_si
0000000000257910 00000010 P isl_schedule_get_domain
0000000000257920 00000010 P _ITM_RU1
0000000000257930 00000010 P __ctype_tolower_loc
0000000000257940 00000010 P isl_ast_expr_get_type
0000000000257950 00000010 P isl_inequality_alloc
0000000000257960 00000010 P isl_aff_var_on_domain
0000000000257970 00000010 P mpc_acosh
0000000000257980 00000010 P fclose
0000000000257990 00000010 P memchr
00000000002579a0 00000010 P iconv_open
00000000002579b0 00000010 P mpc_pow
00000000002579c0 00000010 P isl_ast_node_for_get_body
00000000002579d0 00000010 P __vasprintf_chk
00000000002579e0 00000010 P isl_set_intersect
00000000002579f0 00000010 P isl_union_map_is_empty
0000000000257a00 00000010 P open
0000000000257a10 00000010 P mpfr_lgamma
0000000000257a20 00000010 P asctime
0000000000257a30 00000010 P isl_schedule_node_get_type
0000000000257a40 00000010 P isl_map_from_union_map
0000000000257a50 00000010 P freopen
0000000000257a60 00000010 P _dl_find_object
0000000000257a70 00000010 P isl_ctx_reset_operations
0000000000257a80 00000010 P mpc_cos
0000000000257a90 00000010 P ZSTD_maxCLevel
0000000000257aa0 00000010 P isl_schedule_node_band_get_permutable
0000000000257ab0 00000010 P mpfr_set_emax
0000000000257ac0 00000010 P strstr
0000000000257ad0 00000010 P mpfr_exp
0000000000257ae0 00000010 P isl_space_range
0000000000257af0 00000010 P __tls_get_addr
0000000000257b00 00000010 P mpc_sqrt
0000000000257b10 00000010 P isl_val_neg
0000000000257b20 00000010 P mpc_clear
0000000000257b30 00000010 P gettimeofday
0000000000257b40 00000010 P fflush
0000000000257b50 00000010 P __gmp_fprintf
0000000000257b60 00000010 P __memcpy_chk
0000000000257b70 00000010 P pthread_cond_wait
0000000000257b80 00000010 P mpfr_get_version
0000000000257b90 00000010 P isl_multi_union_pw_aff_from_union_pw_multi_aff
0000000000257ba0 00000010 P isl_map_get_tuple_id
0000000000257bb0 00000010 P strchr
0000000000257bc0 00000010 P fread
0000000000257bd0 00000010 P isl_val_2exp
0000000000257be0 00000010 P isl_union_flow_get_may_dependence
0000000000257bf0 00000010 P mpc_acos
0000000000257c00 00000010 P isl_union_access_info_from_sink
0000000000257c10 00000010 P mpfr_underflow_p
0000000000257c20 00000010 P mpc_log
0000000000257c30 00000010 P strspn
0000000000257c40 00000010 P isl_pw_aff_eq_set
0000000000257c50 00000010 P sysconf
0000000000257c60 00000010 P closedir
0000000000257c70 00000010 P isl_union_map_get_space
0000000000257c80 00000010 P isl_union_map_gist_range
0000000000257c90 00000010 P mpfr_equal_p
0000000000257ca0 00000010 P mpfr_free_str
0000000000257cb0 00000010 P gettext
0000000000257cc0 00000010 P strpbrk
0000000000257cd0 00000010 P mpfr_sub
0000000000257ce0 00000010 P isl_constraint_set_constant_val
0000000000257cf0 00000010 P _ZGTtnam
0000000000257d00 00000010 P isl_set_nat_universe
0000000000257d10 00000010 P isl_val_free
0000000000257d20 00000010 P madvise
0000000000257d30 00000010 P isl_ctx_set_max_operations
0000000000257d40 00000010 P strsignal
0000000000257d50 00000010 P mpfr_exp2
0000000000257d60 00000010 P isl_pw_aff_nonneg_set
0000000000257d70 00000010 P opendir
0000000000257d80 00000010 P __memmove_chk
0000000000257d90 00000010 P isl_union_map_from_map
0000000000257da0 00000010 P isl_ast_node_if_get_then
0000000000257db0 00000010 P ZSTD_isError
0000000000257dc0 00000010 P munmap
0000000000257dd0 00000010 P mpfr_log
0000000000257de0 00000010 P _ITM_memcpyRtWn
0000000000257df0 00000010 P isl_version
0000000000257e00 00000010 P ZSTD_getErrorName
0000000000257e10 00000010 P fnmatch
0000000000257e20 00000010 P inflate
0000000000257e30 00000010 P isl_ast_build_set_before_each_for
0000000000257e40 00000010 P isl_pw_multi_aff_project_out_map
0000000000257e50 00000010 P isl_set_free
0000000000257e60 00000010 P strnlen
0000000000257e70 00000010 P isl_pw_aff_get_ctx
0000000000257e80 00000010 P isl_union_map_free
0000000000257e90 00000010 P __gmpz_fdiv_q
0000000000257ea0 00000010 P mpfr_asinh
0000000000257eb0 00000010 P isl_pw_aff_alloc
0000000000257ec0 00000010 P isl_id_alloc
0000000000257ed0 00000010 P isl_schedule_node_free
0000000000257ee0 00000010 P mbstowcs
0000000000257ef0 00000010 P isl_set_universe
0000000000257f00 00000010 P isl_ctx_last_error
0000000000257f10 00000010 P mpfr_remquo
0000000000257f20 00000010 P localtime
0000000000257f30 00000010 P isl_printer_print_constraint
0000000000257f40 00000010 P isl_schedule_node_band_member_get_ast_loop_type
0000000000257f50 00000010 P isl_schedule_constraints_compute_schedule
0000000000257f60 00000010 P exit
0000000000257f70 00000010 P isl_ast_expr_sub
0000000000257f80 00000010 P __gmpz_com
0000000000257f90 00000010 P isl_ast_expr_get_val
0000000000257fa0 00000010 P isl_union_flow_get_must_dependence
0000000000257fb0 00000010 P isl_id_copy
0000000000257fc0 00000010 P __gmpz_import
0000000000257fd0 00000010 P __fsetlocking
0000000000257fe0 00000010 P isl_val_n_abs_num_chunks
0000000000257ff0 00000010 P strcat
0000000000258000 00000010 P isl_space_copy
0000000000258010 00000010 P isl_map_coalesce
0000000000258020 00000010 P mpfr_set_ui_2exp
0000000000258030 00000010 P isl_set_get_dim_id
0000000000258040 00000010 P isl_map_universe
0000000000258050 00000010 P _ZGTtdlPv
0000000000258060 00000010 P mpfr_snprintf
0000000000258070 00000010 P isl_space_set_alloc
0000000000258080 00000010 P isl_union_access_info_set_schedule
0000000000258090 00000010 P isl_union_map_subtract
00000000002580a0 00000010 P __gmpz_sub
00000000002580b0 00000010 P isl_val_is_neg
00000000002580c0 00000010 P ZSTD_compressBound
00000000002580d0 00000010 P mpfr_fma
00000000002580e0 00000010 P mpc_asin
00000000002580f0 00000010 P isl_schedule_node_band_member_set_ast_loop_type
0000000000258100 00000010 P isl_union_map_union
0000000000258110 00000010 P isl_aff_add_coefficient_si
0000000000258120 00000010 P isl_schedule_constraints_on_domain
0000000000258130 00000010 P mpfr_pow
0000000000258140 00000010 P isl_ast_build_free
0000000000258150 00000010 P isl_val_int_from_chunks
0000000000258160 00000010 P mpc_sin
0000000000258170 00000010 P __gmpz_init
0000000000258180 00000010 P isl_ast_build_get_ctx
0000000000258190 00000010 P isl_map_free
00000000002581a0 00000010 P isl_pw_aff_le_set
00000000002581b0 00000010 P isl_printer_print_schedule
00000000002581c0 00000010 P qsort
00000000002581d0 00000010 P isl_set_add_dims
00000000002581e0 00000010 P nl_langinfo
00000000002581f0 00000010 P isl_ast_build_get_schedule_space
0000000000258200 00000010 P setrlimit
0000000000258210 00000010 P time
0000000000258220 00000010 P abort
0000000000258230 00000010 P isl_multi_aff_dim
0000000000258240 00000010 P isl_union_map_gist_domain
0000000000258250 00000010 P mpfr_atan2
0000000000258260 00000010 P mpfr_clear
0000000000258270 00000010 P mpc_exp
0000000000258280 00000010 P __gmpz_clear
0000000000258290 00000010 P getenv
00000000002582a0 00000010 P strcspn
00000000002582b0 00000010 P isl_schedule_copy
00000000002582c0 00000010 P secure_getenv
00000000002582d0 00000010 P read
00000000002582e0 00000010 P ferror
00000000002582f0 00000010 P mpfr_log2
0000000000258300 00000010 P isl_pw_aff_mod_val
0000000000258310 00000010 P readdir
0000000000258320 00000010 P mpfr_sin
0000000000258330 00000010 P __strcat_chk
0000000000258340 00000010 P isl_space_add_dims
0000000000258350 00000010 P isl_printer_free
0000000000258360 00000010 P setlocale
0000000000258370 00000010 P isl_schedule_sequence
0000000000258380 00000010 P strerror
0000000000258390 00000010 P isl_ast_node_if_get_cond
00000000002583a0 00000010 P mpc_cosh
00000000002583b0 00000010 P isl_local_space_from_space
00000000002583c0 00000010 P mpfr_remainder
00000000002583d0 00000010 P isl_pw_aff_gt_set
00000000002583e0 00000010 P inflateInit_
00000000002583f0 00000010 P mpfr_expm1
0000000000258400 00000010 P mpfr_exp10
0000000000258410 00000010 P __overflow
0000000000258420 00000010 P isl_pw_aff_ge_set
0000000000258430 00000010 P __gmpz_add_ui
0000000000258440 00000010 P __strcpy_chk
0000000000258450 00000010 P mpfr_dim
0000000000258460 00000010 P strcasecmp
0000000000258470 00000010 P fputs_unlocked
0000000000258480 00000010 P isl_ast_expr_from_val
0000000000258490 00000010 P isl_options_set_schedule_max_constant_term
00000000002584a0 00000010 P mpfr_sqrt
00000000002584b0 00000010 P isl_set_get_space
00000000002584c0 00000010 P isl_constraint_set_coefficient_si
00000000002584d0 00000010 P isl_union_pw_multi_aff_free
00000000002584e0 00000010 P popen
00000000002584f0 00000010 P isl_multi_val_zero
0000000000258500 00000010 P strcmp
0000000000258510 00000010 P mpfr_strtofr
0000000000258520 00000010 P mpfr_y0
0000000000258530 00000010 P isl_union_set_is_empty
0000000000258540 00000010 P isl_space_from_domain
0000000000258550 00000010 P fputc
0000000000258560 00000010 P calloc
0000000000258570 00000010 P isl_union_access_info_set_must_source
0000000000258580 00000010 P isl_union_map_apply_domain
0000000000258590 00000010 P dlopen
00000000002585a0 00000010 P mpc_asinh
00000000002585b0 00000010 P isl_set_set_tuple_id
00000000002585c0 00000010 P isl_ast_node_for_get_inc
00000000002585d0 00000010 P isl_set_get_tuple_id
00000000002585e0 00000010 P mpfr_asin
00000000002585f0 00000010 P raise
0000000000258600 00000010 P __cxa_atexit
0000000000258610 00000010 P mallinfo2
0000000000258620 00000010 P ZSTD_decompress
0000000000258630 00000010 P pthread_cond_broadcast
0000000000258640 00000010 P fstat
0000000000258650 00000010 P zError
0000000000258660 00000010 P isl_pw_aff_add
0000000000258670 00000010 P iconv_close
0000000000258680 00000010 P isl_multi_aff_from_aff
0000000000258690 00000010 P gzclose
00000000002586a0 00000010 P mpfr_j0
00000000002586b0 00000010 P textdomain
00000000002586c0 00000010 P mpc_get_version
00000000002586d0 00000010 P mpfr_atan
00000000002586e0 00000010 P malloc
00000000002586f0 00000010 P isl_printer_print_map
0000000000258700 00000010 P isl_ast_node_list_free
0000000000258710 00000010 P isl_map_lex_le
0000000000258720 00000010 P isl_schedule_node_n_children
0000000000258730 00000010 P isl_space_get_tuple_id
0000000000258740 00000010 P isatty
0000000000258750 00000010 P wcswidth
0000000000258760 00000010 P mpfr_sinh
0000000000258770 00000010 P isl_ast_node_free
0000000000258780 00000010 P __isoc23_strtol
0000000000258790 00000010 P isl_union_set_add_set
00000000002587a0 00000010 P isl_ast_expr_get_op_arg
00000000002587b0 00000010 P __vfprintf_chk
00000000002587c0 00000010 P isl_multi_union_pw_aff_apply_multi_aff
00000000002587d0 00000010 P isl_id_get_user
00000000002587e0 00000010 P __isoc23_sscanf
00000000002587f0 00000010 P isl_printer_to_file
0000000000258800 00000010 P __gmpz_export
0000000000258810 00000010 P strrchr
0000000000258820 00000010 P isl_pw_aff_is_cst
0000000000258830 00000010 P sbrk
0000000000258840 00000010 P isl_aff_get_space
0000000000258850 00000010 P isl_ast_node_user_get_expr
0000000000258860 00000010 P isl_union_access_info_set_may_source
0000000000258870 00000010 P mmap
0000000000258880 00000010 P fputc_unlocked
0000000000258890 00000010 P isl_id_free
00000000002588a0 00000010 P stpcpy
00000000002588b0 00000010 P __realpath_chk
00000000002588c0 00000010 P strncasecmp
00000000002588d0 00000010 P mpfr_cbrt
00000000002588e0 00000010 P isl_ast_node_for_get_cond
00000000002588f0 00000010 P __gmpz_powm
0000000000258900 00000010 P isl_ast_node_get_annotation
0000000000258910 00000010 P __gmpz_out_str
0000000000258920 00000010 P isl_union_map_empty
0000000000258930 00000010 P mpfr_get_str
0000000000258940 00000010 P ZSTD_compress
0000000000258950 00000010 P mpfr_cosh
0000000000258960 00000010 P isl_map_intersect
0000000000258970 00000010 P isl_map_intersect_range
0000000000258980 00000010 P isl_constraint_set_constant_si
0000000000258990 00000010 P isl_space_set_tuple_id
00000000002589a0 00000010 P __errno_location
00000000002589b0 00000010 P ldexp
00000000002589c0 00000010 P mpc_atan
00000000002589d0 00000010 P mpc_init2
00000000002589e0 00000010 P getrlimit
00000000002589f0 00000010 P __gmpz_swap
0000000000258a00 00000010 P puts
0000000000258a10 00000010 P __memset_chk
0000000000258a20 00000010 P write
0000000000258a30 00000010 P gzputs
0000000000258a40 00000010 P isl_options_get_on_error
0000000000258a50 00000010 P __printf_chk
0000000000258a60 00000010 P mpc_div
0000000000258a70 00000010 P mpfr_jn
0000000000258a80 00000010 P isl_pw_aff_sub
0000000000258a90 00000010 P mpfr_set_emin
0000000000258aa0 00000010 P isl_options_set_on_error
0000000000258ab0 00000010 P isl_union_map_foreach_map
0000000000258ac0 00000010 P isl_ast_build_node_from_schedule
0000000000258ad0 00000010 P __fread_chk
0000000000258ae0 00000010 P isl_map_add_dims
0000000000258af0 00000010 P isl_ast_node_get_type
0000000000258b00 00000010 P __gmpz_cmp
0000000000258b10 00000010 P dlclose
0000000000258b20 00000010 P __gmpz_sub_ui
0000000000258b30 00000010 P isl_ast_node_for_get_iterator
0000000000258b40 00000010 P isl_pw_aff_mul
0000000000258b50 00000010 P isl_pw_aff_copy
0000000000258b60 00000010 P ngettext
0000000000258b70 00000010 P _ITM_RU8
0000000000258b80 00000010 P isl_aff_set_coefficient_si
0000000000258b90 00000010 P isl_printer_set_yaml_style
0000000000258ba0 00000010 P mpfr_tan
0000000000258bb0 00000010 P __vsprintf_chk
0000000000258bc0 00000010 P mpfr_gamma
0000000000258bd0 00000010 P fwrite
0000000000258be0 00000010 P isl_space_dim
0000000000258bf0 00000010 P isl_aff_zero_on_domain
0000000000258c00 00000010 P isl_map_equate
0000000000258c10 00000010 P memcmp
0000000000258c20 00000010 P isl_set_is_empty
0000000000258c30 00000010 P mpfr_init2
0000000000258c40 00000010 P isl_union_set_copy
0000000000258c50 00000010 P isl_schedule_node_get_child
0000000000258c60 00000010 P __gmpz_ui_pow_ui
0000000000258c70 00000010 P ZSTD_getFrameContentSize
0000000000258c80 00000010 P __fread_unlocked_chk
0000000000258c90 00000010 P mpfr_erfc
0000000000258ca0 00000010 P __gmpz_init_set
0000000000258cb0 00000010 P isl_map_from_pw_aff
0000000000258cc0 00000010 P getrusage
0000000000258cd0 00000010 P isl_ctx_get_max_operations
0000000000258ce0 00000010 P mpfr_set_ui
0000000000258cf0 00000010 P isl_aff_add_constant_val
0000000000258d00 00000010 P getpagesize
0000000000258d10 00000010 P isl_union_set_free
0000000000258d20 00000010 P mpfr_inits2
0000000000258d30 00000010 P mpfr_set_inf
0000000000258d40 00000010 P isl_schedule_constraints_set_coincidence
0000000000258d50 00000010 P getpid
0000000000258d60 00000010 P mpfr_set_str
0000000000258d70 00000010 P isl_union_set_foreach_set
0000000000258d80 00000010 P isl_space_domain
0000000000258d90 00000010 P isl_printer_print_str
0000000000258da0 00000010 P mpfr_erf
0000000000258db0 00000010 P isl_set_copy
0000000000258dc0 00000010 P fwrite_unlocked
0000000000258dd0 00000010 P isl_printer_print_aff
0000000000258de0 00000010 P inflateEnd
0000000000258df0 00000010 P mpfr_sub_ui
0000000000258e00 00000010 P mpfr_tanh
0000000000258e10 00000010 P isl_map_intersect_domain
0000000000258e20 00000010 P mpfr_clear_flags
0000000000258e30 00000010 P mpfr_atanh
0000000000258e40 00000010 P isl_ast_node_list_get_ast_node
0000000000258e50 00000010 P strerror_r
0000000000258e60 00000010 P isl_ast_expr_get_op_n_arg
0000000000258e70 00000010 P isl_ast_expr_free
0000000000258e80 00000010 P isl_space_set_dim_id
0000000000258e90 00000010 P fseek
0000000000258ea0 00000010 P isl_multi_aff_set_tuple_id
0000000000258eb0 00000010 P mpfr_log1p
0000000000258ec0 00000010 P isl_union_set_get_space
0000000000258ed0 00000010 P mpfr_log10
0000000000258ee0 00000010 P mpfr_acos
0000000000258ef0 00000010 P __read_chk
0000000000258f00 00000010 P isl_ctx_free
0000000000258f10 00000010 P isl_ctx_alloc
0000000000258f20 00000010 P isl_schedule_map_schedule_node_bottom_up
0000000000258f30 00000010 P __sprintf_chk
0000000000258f40 00000010 P isl_schedule_node_band_get_space
0000000000258f50 00000010 P fopen
0000000000258f60 00000010 P mpfr_min
0000000000258f70 00000010 P __snprintf_chk
0000000000258f80 00000010 P __isoc23_strtoull
0000000000258f90 00000010 P mpfr_sqrt_ui
0000000000258fa0 00000010 P getentropy
0000000000258fb0 00000010 P isl_map_get_space
0000000000258fc0 00000010 P isl_map_is_empty
0000000000258fd0 00000010 P isl_options_set_schedule_serialize_sccs
0000000000258fe0 00000010 P isl_options_set_schedule_max_coefficient
0000000000258ff0 00000010 P isl_schedule_get_map
0000000000259000 00000010 P mpfr_fmod
0000000000259010 00000010 P isl_multi_val_set_val
0000000000259020 00000010 P isl_set_add_constraint
000000000025a214 00000105 T _Z5errorPKcz
000000000025b9d8 00000032 T _Z26default_diagnostic_starterP18diagnostic_contextPK15diagnostic_info
000000000025d711 00000052 T _Z28default_diagnostic_finalizerP18diagnostic_contextPK15diagnostic_info12diagnostic_t
000000000025d8e9 00000032 T freeargv
000000000025d962 00000041 T _ZN15option_proposer14suggest_optionEPKc
0000000000260350 000000ef T _Z11fatal_errorjPKcz
000000000026869f 00000019 T _Z30c_common_complain_wrong_lang_pPK9cl_option
00000000002693c0 00000053 T _Z15set_random_seedPKc
000000000028986d 00000043 T _Z23lto_streamer_hooks_initv
00000000002898b0 00000016 T _Z19streamer_hooks_initv
0000000000289966 000000eb T _Z15lto_reader_initv
00000000002955f5 0000005e T _Z18cpp_errno_filenameP10cpp_reader20cpp_diagnostic_levelPKcj
0000000000295779 00000034 T xstrerror
00000000002957b2 000000da T _Z12cpp_error_atP10cpp_reader20cpp_diagnostic_leveljPKcz
0000000000295a85 0000002a T _Z30is_location_from_builtin_tokenj
0000000000295e8a 00000089 T _Z15cpp_output_lineP10cpp_readerP8_IO_FILE
00000000002967b8 00000281 T _ZN18diagnostic_context15includes_seen_pEPK17line_map_ordinary
00000000002a179e 0000001f T _Z31ipa_read_optimization_summariesv
00000000002a1884 0000001f T _Z18ipa_read_summariesv
00000000002a32dd 0000033e T _Z34ipcp_read_transformation_summariesv
00000000002b343b 000000e5 T _Z25cpp_output_line_to_stringP10cpp_readerPKh
00000000002b3572 00000095 T _Z28cpp_warning_with_line_syshdrP10cpp_reader18cpp_warning_reasonjjPKcz
00000000002b5785 0000002c T _Z12tag_exists_p9tree_codeP9tree_node
00000000002b84dd 0000000b T _Z28get_c_stdlib_header_for_namePKc
00000000002b8731 00000043 T _Z19file_name_as_prefixP18diagnostic_contextPKc
00000000002b9dd4 00000056 T _ZN16best_macro_matchC2EP9tree_nodejP10cpp_reader
00000000002ba44e 00000010 T _Z21debuginfo_early_startv
00000000002babb2 00000010 T _Z22cpp_forall_identifiersP10cpp_readerPFiS0_P12cpp_hashnodePvES3_
00000000002bcf48 000000cb T _Z11pp_verbatimP14pretty_printerPKcz
00000000002bd141 0000002f T _Z18pp_format_verbatimP14pretty_printerP9text_info
00000000002c1b2f 000000f9 T _Z8error_atjPKcz
00000000002c3793 0000001b T _Z20pp_newline_and_flushP14pretty_printer
00000000002e9abc 0000000d T _ZN9text_info12set_locationEjj18range_display_kind
00000000002e9bb6 00000067 T _ZN13rich_location9set_rangeEjj18range_display_kind
00000000003023dd 0000005b T _Z24build_constructor_singleP9tree_nodeS0_S0_
00000000003030f8 00000045 T _ZN16c_pretty_printer22declaration_specifiersEP9tree_node
000000000030492e 0000004a T _ZN16c_pretty_printer23storage_class_specifierEP9tree_node
00000000003052e4 0000001e T _ZN16c_pretty_printer18function_specifierEP9tree_node
0000000000329fd9 00000032 T _Z25decl_fini_priority_insertP9tree_nodet
000000000032a5fc 00000057 T _ZN11cgraph_node17set_fini_priorityEt
000000000033c272 0000006a T _Z14c_parser_errorP8c_parserPKc
000000000033e234 00000203 T _Z13c_parse_errorPKc9cpp_ttypeP9tree_nodehP13rich_location
000000000033f953 000000d3 T _Z8error_atP13rich_locationPKcz
0000000000342ed7 00000018 T _Z16cpp_push_includeP10cpp_readerPKc
0000000000360ef2 00000092 T _Z21cpp_warning_with_lineP10cpp_reader18cpp_warning_reasonjjPKcz
0000000000361151 00000090 T _Z19cpp_error_with_lineP10cpp_reader20cpp_diagnostic_leveljjPKcz
00000000003611fe 0000000c T _ZN13rich_location15override_columnEi
0000000000364956 00000022 T _Z25coverage_remove_note_filev
000000000036a086 000007a0 T _Z23maybe_add_include_fixitP13rich_locationPKcb
00000000003981e2 00000028 T _ZN13rich_location23add_fixit_insert_beforeEjPKc
0000000000398ef0 000000d3 T _Z6informP13rich_locationPKcz
0000000000398fc3 00000034 T _Z13cpp_type2name9cpp_ttypeh
0000000000399152 00000024 T cpp_named_operator2name
000000000039a0bc 0000001c T _ZNK10fixit_hint19ends_with_newline_pEv
000000000039a1bc 00000069 T _ZNK10fixit_hint14affects_line_pEPK9line_mapsPKci
000000000039ae18 0000001b T _Z17is_gimple_asm_valP9tree_node
000000000039c6c2 0000000e T _Z29get_cp_stdlib_header_for_namePKc
000000000039ff4e 00000028 T _ZN14jobserver_info7connectEv
00000000003ac37a 00000061 T _Z24c_finish_incomplete_declP9tree_node
00000000003adf82 0000000f T _ZN13rich_location17add_fixit_replaceEPKc
00000000003adf91 00000063 T _Z21self_promoting_args_pPK9tree_node
00000000003ae07c 00000026 T _ZN13rich_location17add_fixit_replaceEjPKc
00000000003af01f 00000095 T _Z24cpp_pedwarning_with_lineP10cpp_reader18cpp_warning_reasonjjPKcz
00000000003b061d 00000098 T _Z14cpp_pedwarningP10cpp_reader18cpp_warning_reasonPKcz
00000000003b092e 0000001e T _cpp_release_buff
00000000003b58e7 00000058 T _cpp_do__Pragma
00000000003b5e18 00000031 T _cpp_append_extend_buff
00000000003bfd07 00000090 T _Z20generic_simplify_245jP9tree_nodeS0_S0_PS0_9tree_code
00000000003f061d 0000017a T _Z19undeclared_variablejP9tree_node
00000000003f1d7b 00000009 T _Z38lhd_unit_size_without_reusable_paddingP9tree_node
00000000003f2128 000005b0 T _Z22compare_virtual_tablesP12varpool_nodeS0_
0000000000437e72 00000068 T _Z19generic_simplify_69jP9tree_nodeS0_S0_PS0_9tree_code
00000000004387d6 0000010d T _Z20generic_simplify_333jP9tree_nodeS0_S0_PS0_9tree_codeS2_
00000000004388fd 000001a4 T _Z25maybe_build_call_expr_locj11combined_fnP9tree_nodeiz
00000000004859ca 00000132 T _Z20generic_simplify_273jP9tree_nodeS0_S0_PS0_9tree_codeS2_S2_
0000000000485bc7 000000af T _Z20generic_simplify_220jP9tree_nodeS0_S0_PS0_9tree_codeS2_S2_
000000000049947b 000000ba T _Z8ggc_trimv
0000000000499a93 000000f9 T _Z6informjPKcz
000000000049b420 00000089 T _ZN17gcc_rich_location22add_location_if_nearbyEjbPK11range_label
000000000049c0a2 00000025 T _ZN13rich_location9add_rangeEj18range_display_kindPK11range_label
00000000004b3c6a 000000c9 T _Z23lto_free_file_name_hashv
00000000004b7cf8 00000094 T _ZN12varpool_node12create_aliasEP9tree_nodeS1_
00000000004be7c2 00000090 T _Z32ipa_write_optimization_summariesP20lto_symtab_encoder_d
00000000004be9e3 00000016 T _Z26lto_output_init_mode_tablev
00000000004c5625 00000026 T _Z25old_style_parameter_scopev
00000000004c5b00 00000037 T _Z17c_begin_stmt_exprv
00000000004c5bb4 0000000c T _Z15keep_next_levelv
00000000004c73d9 000000e9 T _Z14c_build_va_argjP9tree_nodejS0_
00000000004ca2b2 000000f3 T _Z24lto_output_toplevel_asmsv
00000000004ca419 0000020d T _Z21output_offload_tablesv
00000000004cbb7e 000001a9 T _Z20generic_simplify_386jP9tree_nodeS0_S0_PS0_9tree_codeS2_
00000000004cc9ac 00000050 T _ZN22suggest_missing_headerC2EjPKcS1_
00000000004cd436 000000ee T _Z16overflow_warningjP9tree_nodeS0_
00000000004ce9a2 00000305 T _ZN16c_pretty_printer10expressionEP9tree_node
00000000004d6d3f 00000138 T _Z19generic_simplify_79jP9tree_nodeS0_S0_PS0_9tree_codeS2_
00000000004df9c4 0000001b T _ZN22suggest_missing_headerD0Ev
00000000004e1c3e 00000074 T _ZN22suggest_missing_headerD1Ev
00000000004e1cb9 0000009f T _Z24build_opaque_vector_typeP9tree_node8poly_intILj1ElE
00000000004f23a2 000000da T _Z18generic_simplify_7jP9tree_nodeS0_S0_PS0_
00000000004f2c4c 000003e0 T _Z20generic_simplify_354jP9tree_nodeS0_S0_PS0_9tree_code
00000000004f50f0 000000d9 T _Z20generic_simplify_109jP9tree_nodeS0_S0_PS0_
00000000004f5b37 0000011a T _Z20generic_simplify_139jP9tree_nodeS0_S0_PS0_
00000000004f65c9 0000010f T _Z20generic_simplify_145jP9tree_nodeS0_S0_PS0_
00000000004f828f 00000164 T _Z14set_init_labeljP9tree_nodejP7obstack
0000000000502054 0000023d T _Z20generic_simplify_290jP9tree_nodeS0_S0_PS0_9tree_code
0000000000502497 00000dcd T _Z20generic_simplify_211jP9tree_nodeS0_S0_PS0_9tree_code
0000000000505776 00000108 T _Z20generic_simplify_347jP9tree_nodeS0_S0_PS0_9tree_codeS2_
000000000050587e 00000370 T _Z19generic_simplify_23jP9tree_nodeS0_S0_PS0_9tree_code
0000000000505f14 000001fb T _Z20generic_simplify_105jP9tree_nodeS0_S0_PS0_9tree_code
00000000005098c2 000000fc T _Z20generic_simplify_240jP9tree_nodeS0_S0_PS0_9tree_codeS2_
000000000050c450 000001b1 T _Z20generic_simplify_439jP9tree_nodeS0_PS0_
0000000000514cd8 00000135 T _Z19generic_simplify_99jP9tree_nodeS0_S0_PS0_9tree_code
000000000051beae 000001b2 T _ZN28ipa_polymorphic_call_context21meet_speculation_withEP9tree_nodelbS1_
0000000000525efc 0000001c T _ZN6ipa_vr11set_unknownEv
000000000052a831 0000057e T _Z37gimple_simplify_CFN_BUILT_IN_POPCOUNTP15gimple_match_opPP6gimplePFP9tree_nodeS5_E11code_helperS5_S5_
0000000000543ce4 0000001e T _Z17pp_destroy_prefixP14pretty_printer
0000000000569aa1 00000113 T _Z34gimple_simplify_CFN_BUILT_IN_LDEXPP15gimple_match_opPP6gimplePFP9tree_nodeS5_E11code_helperS5_S5_S5_
000000000058b68c 00000031 T _ZN21fast_function_summaryIP18modref_summary_lto5va_gcE16symtab_insertionEP11cgraph_nodePv
000000000058b6c8 00000062 T _ZN20modref_summaries_lto6insertEP11cgraph_nodeP18modref_summary_lto
0000000000592b19 000000fa T _Z13permerror_optjiPKcz
00000000005e9606 000002da T _ZN11cgraph_node16add_new_functionEP9tree_nodeb
00000000005ef91d 000000b7 T _Z37maybe_suggest_missing_token_insertionP13rich_location9cpp_ttypej
00000000005efe04 0000005b T _ZN13rich_location22add_fixit_insert_afterEjPKc
00000000005f07bf 000000d7 T _Z24invalid_array_size_errorj14cst_size_errorPK9tree_nodeS2_
00000000005f501e 00000037 T _ZN3gcc12pass_manager26execute_early_local_passesEv
00000000005fc190 0000014a T _Z18gimple_simplify_76P15gimple_match_opPP6gimplePFP9tree_nodeS5_ES5_PS5_
000000000060033d 00000638 T _Z20generic_simplify_237jP9tree_nodeS0_S0_PS0_9tree_codeS2_
000000000060287a 00000054 T _ZN14jobserver_info9get_tokenEv
000000000060dbf2 000000d9 T _ZNK11operator_ge10fold_rangeER6irangeP9tree_nodeRK6frangeS6_13relation_trio
0000000000619a28 00000049 T _ZN14jobserver_info12return_tokenEv
000000000061cf90 00000039 T _ZN14jobserver_info10disconnectEv
000000000061fb2f 00000005 T _Z30debug_nothing_int_int_charstarjjPKc
000000000062328a 00000005 T _Z39debug_nothing_int_int_charstar_int_booljjPKcib
0000000000646fb5 00000198 T _Z20generic_simplify_334jP9tree_nodeS0_S0_PS0_9tree_codeS2_
00000000006490b5 0000006d T _Z26tree_expr_maybe_infinite_pPK9tree_node
000000000064944b 000006e6 T _Z29generic_simplify_ORDERED_EXPRj9tree_codeP9tree_nodeS1_S1_
000000000064a591 0000012e T _Z18tree_expr_finite_pPK9tree_node
000000000065021e 0000008e T _ZNK11operator_le9op2_rangeER6frangeP9tree_nodeRK6irangeRKS0_13relation_trio
0000000000650a8e 000003e2 T _Z20generic_simplify_132jP9tree_nodeS0_S0_PS0_9tree_code
0000000000650f74 00000076 T _Z19build_real_truncateP9tree_node10real_value
00000000006510b3 00000017 T _Z19real_value_truncate13format_helper10real_value
0000000000651138 00000018 P __libc_start_main
000000000065126e 00000030 T _Z10real_truncP10real_value13format_helperPKS_
0000000000654b10 00000365 T _Z20generic_simplify_133jP9tree_nodeS0_S0_PS0_9tree_code
0000000000654e9a 000000be T _Z20generic_simplify_151jP9tree_nodeS0_S0_PS0_
0000000000654f58 00000020 T _Z33expand_location_to_spelling_pointj15location_aspect
0000000000655022 00000109 T _Z19generic_simplify_78jP9tree_nodeS0_S0_PS0_9tree_codeS2_
0000000000658d6b 00000109 T _Z36restrict_type_identity_attributes_toP9tree_nodeS0_
000000000065bf67 0000007d T _Z9real_ceilP10real_value13format_helperPKS_
000000000066071c 000000d8 T _Z20generic_simplify_233jP9tree_nodeS0_S0_PS0_9tree_code
00000000006614a6 000000ab T _Z19generic_simplify_28jP9tree_nodeS0_S0_PS0_9tree_code
000000000066175a 0000023b T _Z20generic_simplify_357jP9tree_nodeS0_S0_PS0_
0000000000661de7 0000009b T _Z20generic_simplify_152jP9tree_nodeS0_S0_PS0_9tree_codeS2_
000000000066448a 00000205 T _Z19gimple_simplify_101P15gimple_match_opPP6gimplePFP9tree_nodeS5_ES5_PS5_9tree_codeS9_
000000000066f754 000000e0 T _Z20generic_simplify_249jP9tree_nodeS0_S0_PS0_9tree_code
000000000066f87a 00000142 T _Z28warn_logical_not_parenthesesj9tree_codeP9tree_nodeS1_
000000000067038f 000002ac T _Z20generic_simplify_289jP9tree_nodeS0_S0_PS0_9tree_code
000000000067063b 00000080 T _Z24decl_with_nonnull_addr_pPK9tree_node
0000000000671fd4 0000000c T _Z26linemap_map_get_macro_namePK14line_map_macro
0000000000672040 000000a5 T _Z19generic_simplify_82jP9tree_nodeS0_S0_PS0_9tree_code
00000000006720e5 000001dc T _Z20generic_simplify_480jP9tree_nodeS0_S0_S0_PS0_9tree_code
00000000006722c1 000001ab T _Z22diagnostic_append_noteP18diagnostic_contextjPKcz
00000000006724a5 000000d3 T _Z20generic_simplify_429jP9tree_nodeS0_PS0_
0000000000672752 00000324 T _Z20generic_simplify_238jP9tree_nodeS0_S0_PS0_9tree_code
000000000067373e 0000001a T md5_init_ctx
0000000000673843 000002d6 T _Z20generic_simplify_324jP9tree_nodeS0_S0_PS0_9tree_code
000000000067477d 00000078 T md5_finish_ctx
0000000000674837 0000000e T md5_read_ctx
0000000000674b7d 000000fa T _Z19generic_simplify_60jP9tree_nodeS0_S0_PS0_9tree_codeS2_
0000000000675dc5 000000ec T _Z20generic_simplify_256jP9tree_nodeS0_S0_PS0_9tree_codeS2_S2_
000000000067a265 000001fa T _Z19generic_simplify_10jP9tree_nodeS0_S0_PS0_9tree_code
000000000067bc74 000000b1 T _Z20generic_simplify_200jP9tree_nodeS0_S0_PS0_9tree_codeS2_
000000000067c1a5 00000320 T _Z20generic_simplify_213jP9tree_nodeS0_S0_PS0_9tree_code
000000000067cdc2 0000010d T _Z20generic_simplify_349jP9tree_nodeS0_S0_PS0_
000000000068725f 000001c4 T _Z20generic_simplify_463jP9tree_nodeS0_S0_S0_PS0_9tree_codeS2_
000000000068780c 000000ff T _Z20generic_simplify_428jP9tree_nodeS0_PS0_
0000000000688e46 000000d2 T _Z20generic_simplify_239jP9tree_nodeS0_S0_PS0_9tree_codeS2_
0000000000689093 00000257 T _Z29generic_simplify_LROTATE_EXPRj9tree_codeP9tree_nodeS1_S1_
0000000000689338 00000174 T _Z29generic_simplify_RROTATE_EXPRj9tree_codeP9tree_nodeS1_S1_
00000000006895fc 000000dc T _Z20generic_simplify_427jP9tree_nodeS0_PS0_
000000000068985d 000000af T _Z19generic_simplify_59jP9tree_nodeS0_S0_PS0_9tree_code
000000000068990c 00000014 T _Z21decl_readonly_sectionPK9tree_nodei
0000000000689c5f 000000d8 T _Z20generic_simplify_172jP9tree_nodeS0_S0_PS0_9tree_code
000000000068b06a 000000fb T _Z20generic_simplify_157jP9tree_nodeS0_S0_PS0_9tree_code
000000000068b167 000000c3 T _Z20generic_simplify_246jP9tree_nodeS0_S0_PS0_9tree_code
000000000068b43d 000001eb T _Z20generic_simplify_313jP9tree_nodeS0_S0_PS0_9tree_code
000000000068b6c3 000000b1 T _Z20generic_simplify_297jP9tree_nodeS0_S0_PS0_9tree_code
000000000068cce8 000000cf T _Z20generic_simplify_182jP9tree_nodeS0_S0_PS0_9tree_code
000000000068db7e 00000152 T _ZNK19cfn_toupper_tolower10fold_rangeER6irangeP9tree_nodeRKS0_S5_13relation_trio
000000000068de1a 0000022f T _ZNK19cfn_toupper_tolower16get_letter_rangeEP9tree_nodeR6irangeS3_
000000000068fb01 000000f0 T _Z18gimple_simplify_89P15gimple_match_opPP6gimplePFP9tree_nodeS5_ES5_PS5_
0000000000691687 000001c1 T _Z19gimple_simplify_143P15gimple_match_opPP6gimplePFP9tree_nodeS5_ES5_PS5_
000000000069255f 0000009e T _Z19generic_simplify_40jP9tree_nodeS0_S0_PS0_
00000000006926a3 000000bb T _Z20generic_simplify_136jP9tree_nodeS0_S0_PS0_9tree_codeS2_S2_
0000000000695b0a 0000009e T _Z20generic_simplify_423jP9tree_nodeS0_PS0_
0000000000698069 00000058 T _Z17gen_atomic_loadsiP7rtx_defS0_S0_
0000000000698816 000001c0 T _Z19expand_atomic_storeP7rtx_defS0_8memmodelb
00000000006989d6 0000002c T _Z19ggc_mark_stringpoolv
0000000000698a09 00000858 T _cpp_valid_ucn
0000000000699261 0000003e T _Z23c_missing_noreturn_ok_pP9tree_node
000000000069a622 000000cc T _Z18gen_atomic_storesiP7rtx_defS0_S0_
000000000069cd11 00000053 T _Z20gen_atomic_storesi_1P7rtx_defS0_S0_
00000000006a7603 000000a3 T _Z27strub_validate_fn_attr_parmP9tree_node
00000000006a9e09 000006e8 T _Z20generic_simplify_412jP9tree_nodeS0_S0_PS0_9tree_codeS2_
00000000006aa4f1 000006e8 T _Z20generic_simplify_405jP9tree_nodeS0_S0_PS0_9tree_codeS2_
00000000006b1483 00000b26 T _Z30gimple_simplify_UNORDERED_EXPRP15gimple_match_opPP6gimplePFP9tree_nodeS5_E11code_helperS5_S5_S5_
00000000006bfb04 00000154 T _Z32gimple_simplify_CFN_SUB_OVERFLOWP15gimple_match_opPP6gimplePFP9tree_nodeS5_E11code_helperS5_S5_S5_
00000000006cefb5 000000b6 T _Z32gimple_simplify_CFN_BUILT_IN_CTZP15gimple_match_opPP6gimplePFP9tree_nodeS5_E11code_helperS5_S5_
00000000006cfadd 0000040d T _Z30expand_atomic_compare_and_swapPP7rtx_defS1_S0_S0_S0_b8memmodelS2_
00000000006f087f 00000136 T _Z20build_constructor_vaP9tree_nodeiz
00000000006f0a0d 000000e8 T _Z29gen_atomic_compare_and_swapsiP7rtx_defS0_S0_S0_S0_S0_S0_S0_
00000000006f0b3d 0000016d T _Z31gen_atomic_compare_and_swapsi_1P7rtx_defS0_S0_S0_S0_
00000000006f0d39 0000006d T _Z29expand_sync_lock_test_and_setP7rtx_defS0_S0_
00000000006f0e54 000000bd T _Z21gen_atomic_exchangesiP7rtx_defS0_S0_S0_
00000000006f0f12 00000028 T _ZN16c_pretty_printer16translate_stringEPKc
00000000006f190b 0000058f T _Z36gimple_simplify_CFN_BUILT_IN_BSWAP16P15gimple_match_opPP6gimplePFP9tree_nodeS5_E11code_helperS5_S5_
00000000006f24a5 00000019 T _Z9pp_c_starP16c_pretty_printer
000000000071932e 000000f1 T _Z19gimple_simplify_442P15gimple_match_opPP6gimplePFP9tree_nodeS5_ES5_PS5_9tree_code
0000000000719475 0000006a T _Z39gt_ggc_mx_function_summary_thunk_info__Pv
000000000071e15d 0000000c T _Z7gen_nopv
00000000007240a2 0000002c T _Z20ggc_purge_stringpoolv
0000000000729ee8 00000832 T _Z32gimple_simplify_CFN_BUILT_IN_LOGP15gimple_match_opPP6gimplePFP9tree_nodeS5_E11code_helperS5_S5_
000000000072a71a 000000ec T _Z32gimple_simplify_CFN_BUILT_IN_EXPP15gimple_match_opPP6gimplePFP9tree_nodeS5_E11code_helperS5_S5_
00000000007312d3 00000015 T _Z22gimple_switch_label_bbP8functionP7gswitchj
00000000007385ef 00000102 T _Z20generic_simplify_288jP9tree_nodeS0_S0_PS0_9tree_code
000000000073936c 0000021c T _ZNK12operator_abs10fold_rangeER6frangeP9tree_nodeRKS0_S5_13relation_trio
00000000007395c3 0000001c T _Z14real_value_absPK10real_value
0000000000739fd4 00000105 T _Z12gimple_buildP20gimple_stmt_iteratorb19gsi_iterator_updatej9tree_codeP9tree_nodeS4_S4_S4_
000000000073a0d9 00000065 T _Z22ira_set_pseudo_classesbP8_IO_FILE
000000000073a13e 000000ef T _Z15gimple_simplify9tree_codeP9tree_nodeS1_S1_S1_PP6gimplePFS1_S1_E
000000000073aa52 00000083 T _ZNK17foperator_ordered10fold_rangeER6irangeP9tree_nodeRK6frangeS6_13relation_trio
000000000073d962 00000094 T _ZNK17foperator_ordered9op1_rangeER6frangeP9tree_nodeRK6irangeRKS0_13relation_trio
000000000073e00e 000000d9 T _ZNK11operator_le10fold_rangeER6irangeP9tree_nodeRK6frangeS6_13relation_trio
000000000074017c 0000008a T _ZNK22foperator_unordered_le9op1_rangeER6frangeP9tree_nodeRK6irangeRKS0_13relation_trio
0000000000740dee 000001b2 T _ZNK12operator_abs9op1_rangeER6frangeP9tree_nodeRKS0_S5_13relation_trio
000000000074110e 00000120 T _Z20generic_simplify_436jP9tree_nodeS0_PS0_9tree_codeS2_S2_
000000000074122e 0000005b T _ZN6frange10union_nansERKS_
000000000074128a 00000175 T _ZNK14operator_equal10fold_rangeER6irangeP9tree_nodeRK6frangeS6_13relation_trio
0000000000742bdf 000001a9 T _Z20generic_simplify_385jP9tree_nodeS0_S0_PS0_9tree_codeS2_
000000000074383f 00000401 T _Z19gimple_simplify_631P15gimple_match_opPP6gimplePFP9tree_nodeS5_ES5_PS5_11combined_fn
00000000007460fa 0000004d T _ZN6frange15set_nonnegativeEP9tree_node
0000000000746147 0000004f T _Z36gt_ggc_mx_hash_table_asmname_hasher_Pv
000000000074641e 00000164 T _ZNK15operator_negate10fold_rangeER6frangeP9tree_nodeRKS0_S5_13relation_trio
0000000000746b99 000000ad T _Z19gimple_simplify_530P15gimple_match_opPP6gimplePFP9tree_nodeS5_ES5_PS5_9tree_code
00000000007484cb 0000018b T _Z19gimple_simplify_197P15gimple_match_opPP6gimplePFP9tree_nodeS5_ES5_PS5_
0000000000748656 0000023a T _Z18gimple_simplify_88P15gimple_match_opPP6gimplePFP9tree_nodeS5_ES5_PS5_
000000000074a064 00000085 T _Z19gimple_simplify_118P15gimple_match_opPP6gimplePFP9tree_nodeS5_ES5_PS5_9tree_code
000000000074ab20 00000107 T _ZNK14operator_equal9op1_rangeER6frangeP9tree_nodeRK6irangeRKS0_13relation_trio
000000000074b128 000001b1 T _ZNK18operator_not_equal10fold_rangeER6irangeP9tree_nodeRK6frangeS6_13relation_trio
000000000074b30c 000000db T _ZNK18operator_not_equal9op1_rangeER6frangeP9tree_nodeRK6irangeRKS0_13relation_trio
000000000074bb92 00000039 T _ZNK14operator_equal16op1_op2_relationERK6irangeRK6frangeS5_
000000000074c602 0000016a T _ZNK13operator_mult9op1_rangeER6frangeP9tree_nodeRKS0_S5_13relation_trio
000000000074d056 0000004d T _Z10gen_muldf3P7rtx_defS0_S0_
000000000074f3da 00000054 T _ZNK14operator_equal9op2_rangeER6frangeP9tree_nodeRK6irangeRKS0_13relation_trio
000000000074f42e 0000001a T _ZNK6frange6zero_pEv
0000000000750772 00000141 T _Z19gimple_simplify_116P15gimple_match_opPP6gimplePFP9tree_nodeS5_ES5_PS5_9tree_code
0000000000751aa5 00000461 T _Z18gimple_simplify_65P15gimple_match_opPP6gimplePFP9tree_nodeS5_ES5_PS5_9tree_code
0000000000752d7b 00000189 T _Z19gimple_simplify_264P15gimple_match_opPP6gimplePFP9tree_nodeS5_ES5_PS5_9tree_code
00000000007543d0 00000025 T _Z20gimple_build_eh_elseP6gimpleS0_
00000000007543f5 0000002a T _Z18gimple_build_catchP9tree_nodeP6gimple
0000000000754a5d 000000b5 T _Z12gen_addv2di3P7rtx_defS0_S0_
0000000000754ce2 0000006c T _Z10real_2expNP10real_valuei13format_helper
00000000007555d0 00000068 T _Z20generic_simplify_444jP9tree_nodeS0_S0_PS0_9tree_code
000000000075d9c8 000003fd T _Z19gimple_simplify_316P15gimple_match_opPP6gimplePFP9tree_nodeS5_ES5_PS5_9tree_code
000000000075e134 00000011 T _Z17gen_eh_region_tryP11eh_region_d
000000000075e3d5 0000001e T _Z24gimple_build_eh_dispatchi
000000000075e76f 00000248 T _Z20add_type_for_runtimeP9tree_node
000000000075ee95 000000fe T _Z19gimple_simplify_354P15gimple_match_opPP6gimplePFP9tree_nodeS5_ES5_PS5_9tree_code
000000000075f19f 0000005e T _Z11gen_ashlti3P7rtx_defS0_S0_
0000000000760c28 00000105 T _Z19gimple_simplify_413P15gimple_match_opPP6gimplePFP9tree_nodeS5_ES5_PS5_
00000000007647e2 00000083 T _ZNK19foperator_unordered10fold_rangeER6irangeP9tree_nodeRK6frangeS6_13relation_trio
00000000007649da 0000006b T _ZNK20pointer_and_operator7wi_foldER6irangeP9tree_nodeRK16generic_wide_intI16wide_int_storageES8_S8_S8_
000000000076556e 00000145 T _Z19gimple_simplify_545P15gimple_match_opPP6gimplePFP9tree_nodeS5_ES5_PS5_9tree_code
000000000076d20a 000000f8 T _Z18gimple_simplify_58P15gimple_match_opPP6gimplePFP9tree_nodeS5_ES5_PS5_
000000000078ebdc 0000005b T _Z17cond_only_block_pP15basic_block_def
000000000078ec79 00000085 T _Z19gimple_simplify_124P15gimple_match_opPP6gimplePFP9tree_nodeS5_ES5_PS5_9tree_code
000000000078eeec 00000081 T _ZNK14operator_minus9op1_rangeER6frangeP9tree_nodeRKS0_S5_13relation_trio
000000000078f120 0000003a T _ZNK11operator_lt16op1_op2_relationERK6irangeRK6frangeS5_
000000000078f3da 0000009b T _ZNK11operator_lt9op2_rangeER6frangeP9tree_nodeRK6irangeRKS0_13relation_trio
000000000078f475 0000080a T _Z19gimple_simplify_506P15gimple_match_opPP6gimplePFP9tree_nodeS5_ES5_PS5_9tree_codeS9_
000000000078fc80 0000003b T _ZNK11operator_gt16op1_op2_relationERK6irangeRK6frangeS5_
000000000078fd57 000000f8 T _Z18gimple_simplify_57P15gimple_match_opPP6gimplePFP9tree_nodeS5_ES5_PS5_
0000000000790053 00000467 T _Z18gimple_simplify_37P15gimple_match_opPP6gimplePFP9tree_nodeS5_ES5_PS5_9tree_code
00000000007b2fec 000007f1 T _Z19gimple_simplify_508P15gimple_match_opPP6gimplePFP9tree_nodeS5_ES5_PS5_9tree_code
00000000007b3857 00000095 T _Z15gen_sse2_pshufdP7rtx_defS0_S0_
00000000007b38ec 0000007b T _Z17gen_sse2_pshufd_1P7rtx_defS0_S0_S0_S0_S0_
00000000007b4051 00000053 T _Z22gen_ssse3_pshufbv16qi3P7rtx_defS0_S0_
00000000007b4d8b 000009a3 T _Z22ix86_expand_vector_setbP7rtx_defS0_i
00000000007b595a 00000053 T _Z13gen_sha1nexteP7rtx_defS0_S0_
00000000007b5cea 00000053 T _Z13gen_sha1rnds4P7rtx_defS0_S0_S0_
00000000007b798d 00000191 T _Z19gimple_simplify_148P15gimple_match_opPP6gimplePFP9tree_nodeS5_ES5_PS5_
00000000007ba713 000000a0 T _Z18gimple_simplify_44P15gimple_match_opPP6gimplePFP9tree_nodeS5_ES5_PS5_
00000000007ba7e9 000000a3 T _Z33tree_expr_maybe_real_minus_zero_pPK9tree_node
00000000007d0123 00000136 T _Z19gimple_simplify_565P15gimple_match_opPP6gimplePFP9tree_nodeS5_ES5_PS5_11combined_fn
00000000007d0259 000000ed T _Z19gimple_simplify_310P15gimple_match_opPP6gimplePFP9tree_nodeS5_ES5_PS5_9tree_code
00000000007d0346 000001e5 T _Z19gimple_simplify_369P15gimple_match_opPP6gimplePFP9tree_nodeS5_ES5_PS5_9tree_codeS9_
00000000007d0590 00000148 T _Z19gimple_simplify_308P15gimple_match_opPP6gimplePFP9tree_nodeS5_ES5_PS5_9tree_code
00000000007eb8d6 0000052f T _Z18gimple_simplify_91P15gimple_match_opPP6gimplePFP9tree_nodeS5_ES5_PS5_
00000000007ed57e 00000077 T _ZNK6frangeeqERKS_
00000000007eff95 00000191 T _Z18gimple_simplify_63P15gimple_match_opPP6gimplePFP9tree_nodeS5_ES5_PS5_
00000000007f0416 00000300 T _Z19gimple_simplify_426P15gimple_match_opPP6gimplePFP9tree_nodeS5_ES5_PS5_9tree_code
00000000007f4a90 0000009f T _ZNK11operator_gt9op2_rangeER6frangeP9tree_nodeRK6irangeRKS0_13relation_trio
00000000007f514d 00000026 T _Z14gen_sub3_carry12machine_modeP7rtx_defS1_S1_S1_S1_
00000000007f5173 00000056 T _Z20maybe_gen_sub3_carry12machine_modeP7rtx_defS1_S1_S1_S1_
00000000007f51c9 000000de T _Z16gen_subdi3_carryP7rtx_defS0_S0_S0_S0_
0000000000802082 00000009 T _Z19gen_movmisalignv8qiP7rtx_defS0_
0000000000802741 00000085 T _Z19gimple_simplify_514P15gimple_match_opPP6gimplePFP9tree_nodeS5_ES5_PS5_
000000000080285a 000001d7 T _Z19gimple_simplify_338P15gimple_match_opPP6gimplePFP9tree_nodeS5_ES5_PS5_9tree_code
0000000000802b4c 0000012c T _ZN11pcom_worker21add_looparound_copiesEP5chain
0000000000802ee6 00000683 T _ZN11pcom_worker28execute_pred_commoning_chainEP5chainP11bitmap_head
0000000000803b06 0000001e T _Z25decl_fini_priority_lookupP9tree_node
0000000000803b24 0000001d T _Z41default_elf_fini_array_asm_out_destructorP7rtx_defi
0000000000803efb 0000000e T _Z18gimple_signed_typeP9tree_node
0000000000804a9c 000001af T _Z19gimple_simplify_359P15gimple_match_opPP6gimplePFP9tree_nodeS5_ES5_PS5_9tree_codeS9_
0000000000808ac5 000007f0 T _Z19gimple_simplify_507P15gimple_match_opPP6gimplePFP9tree_nodeS5_ES5_PS5_9tree_code
0000000000809544 000001ab T _Z13gen_split_227P8rtx_insnPP7rtx_def
00000000008096ef 0000019b T _Z19gimple_simplify_345P15gimple_match_opPP6gimplePFP9tree_nodeS5_ES5_PS5_9tree_codeS9_S9_
000000000080a095 00000191 T _Z19gimple_simplify_161P15gimple_match_opPP6gimplePFP9tree_nodeS5_ES5_PS5_
000000000080aa41 00000393 T _Z19gimple_simplify_424P15gimple_match_opPP6gimplePFP9tree_nodeS5_ES5_PS5_9tree_codeS9_
000000000080d16e 00000181 T _Z19gimple_simplify_275P15gimple_match_opPP6gimplePFP9tree_nodeS5_ES5_PS5_9tree_codeS9_S9_
000000000080d463 00000191 T _Z19gimple_simplify_452P15gimple_match_opPP6gimplePFP9tree_nodeS5_ES5_PS5_
000000000080ed08 0000005e T _Z11gen_rotlhi3P7rtx_defS0_S0_
000000000080ee14 000001ba T _Z19gimple_simplify_512P15gimple_match_opPP6gimplePFP9tree_nodeS5_ES5_PS5_9tree_codeS9_
000000000080efce 000001df T _Z19gimple_simplify_374P15gimple_match_opPP6gimplePFP9tree_nodeS5_ES5_PS5_
000000000080f1c6 0000038f T _Z19gimple_simplify_293P15gimple_match_opPP6gimplePFP9tree_nodeS5_ES5_PS5_9tree_code11combined_fn
000000000080f790 000001b2 T _ZN11pcom_worker14combine_chainsEP5chainS1_
00000000008100d5 000002a2 T _Z19gimple_simplify_127P15gimple_match_opPP6gimplePFP9tree_nodeS5_ES5_PS5_9tree_code
0000000000810377 000001ed T _Z19gimple_simplify_641P15gimple_match_opPP6gimplePFP9tree_nodeS5_ES5_PS5_11combined_fnS9_
0000000000810564 000002e4 T _Z18gimple_simplify_11P15gimple_match_opPP6gimplePFP9tree_nodeS5_ES5_PS5_9tree_code
0000000000810848 000001c3 T _Z19gimple_simplify_240P15gimple_match_opPP6gimplePFP9tree_nodeS5_ES5_PS5_9tree_code11combined_fn
0000000000810a74 00000099 T _Z19gimple_simplify_346P15gimple_match_opPP6gimplePFP9tree_nodeS5_ES5_PS5_9tree_codeS9_
0000000000811198 000000b6 T _Z15gen_extenddfxf2P7rtx_defS0_
00000000008112c1 00000041 T _Z9gen_movxfP7rtx_defS0_
0000000000812359 00000085 T _Z18gimple_simplify_68P15gimple_match_opPP6gimplePFP9tree_nodeS5_ES5_PS5_9tree_codeS9_
00000000008124e9 000001c1 T _Z17gimple_simplify_9P15gimple_match_opPP6gimplePFP9tree_nodeS5_ES5_PS5_
000000000081276f 000001df T _Z18gimple_simplify_83P15gimple_match_opPP6gimplePFP9tree_nodeS5_ES5_PS5_
000000000081315d 000001a8 T _Z18gimple_simplify_50P15gimple_match_opPP6gimplePFP9tree_nodeS5_ES5_PS5_
000000000081357f 000000f9 T _Z18gen_atomic_storediP7rtx_defS0_S0_
0000000000813678 00000053 T _Z20gen_atomic_storedi_1P7rtx_defS0_S0_
00000000008136cb 00000399 T _Z18gimple_simplify_48P15gimple_match_opPP6gimplePFP9tree_nodeS5_ES5_PS5_
0000000000813bcd 00000085 T _Z19gimple_simplify_130P15gimple_match_opPP6gimplePFP9tree_nodeS5_ES5_PS5_9tree_codeS9_
0000000000813cff 000000ad T _Z19gimple_simplify_537P15gimple_match_opPP6gimplePFP9tree_nodeS5_ES5_PS5_9tree_code
00000000008142f4 00000153 T _Z10gen_abssi2P7rtx_defS0_
0000000000814964 00000089 T _Z11gen_smaxdi3P7rtx_defS0_S0_
0000000000814b04 000001f6 T _Z18gimple_simplify_21P15gimple_match_opPP6gimplePFP9tree_nodeS5_ES5_PS5_
0000000000814d13 00000200 T _Z19gimple_simplify_249P15gimple_match_opPP6gimplePFP9tree_nodeS5_ES5_PS5_9tree_code
0000000000815028 000002c3 T _Z18gimple_simplify_85P15gimple_match_opPP6gimplePFP9tree_nodeS5_ES5_PS5_
0000000000816440 000000e7 T _Z19generic_simplify_47jP9tree_nodeS0_S0_PS0_
0000000000816528 00000039 T _ZNK11operator_ge16op1_op2_relationERK6irangeRK6frangeS5_
0000000000816992 0000008e T _ZNK11operator_ge9op2_rangeER6frangeP9tree_nodeRK6irangeRKS0_13relation_trio
0000000000816a20 0000048a T _Z19gimple_simplify_229P15gimple_match_opPP6gimplePFP9tree_nodeS5_ES5_PS5_9tree_code
00000000008170fd 00000099 T _Z28get_abnormal_succ_dispatcherP15basic_block_def
0000000000817196 00000168 T _Z17gimple_simplify_4P15gimple_match_opPP6gimplePFP9tree_nodeS5_ES5_PS5_9tree_code
00000000008172fe 000000b5 T _Z12gen_subv2di3P7rtx_defS0_S0_
0000000000817444 000001e7 T _Z19gimple_simplify_372P15gimple_match_opPP6gimplePFP9tree_nodeS5_ES5_PS5_9tree_codeS9_
0000000000817944 000000b0 T _Z18gimple_simplify_20P15gimple_match_opPP6gimplePFP9tree_nodeS5_ES5_PS5_
0000000000817a9b 00000592 T _Z18gimple_simplify_32P15gimple_match_opPP6gimplePFP9tree_nodeS5_ES5_PS5_9tree_codeS9_
0000000000819deb 00000085 T _Z19gimple_simplify_109P15gimple_match_opPP6gimplePFP9tree_nodeS5_ES5_PS5_9tree_code
000000000081ad74 0000000e T _ZNK18operator_not_equal9op2_rangeER6frangeP9tree_nodeRK6irangeRKS0_13relation_trio
000000000081ad82 00000155 T _Z17gen_peephole2_118P8rtx_insnPP7rtx_def
000000000081af06 000000eb T _Z19gimple_simplify_216P15gimple_match_opPP6gimplePFP9tree_nodeS5_ES5_PS5_9tree_code
000000000081b122 000001c9 T _Z18gimple_simplify_31P15gimple_match_opPP6gimplePFP9tree_nodeS5_ES5_PS5_
000000000081b2eb 00000101 T _Z19generic_simplify_20jP9tree_nodeS0_S0_PS0_
000000000081b543 000001af T _Z19gimple_simplify_227P15gimple_match_opPP6gimplePFP9tree_nodeS5_ES5_PS5_9tree_code
000000000081b72d 000002cd T _Z19gimple_simplify_551P15gimple_match_opPP6gimplePFP9tree_nodeS5_ES5_PS5_9tree_code
000000000081b9fa 00000102 T _Z19gimple_simplify_203P15gimple_match_opPP6gimplePFP9tree_nodeS5_ES5_PS5_9tree_code
000000000081bc2c 0000015e T _Z19gimple_simplify_206P15gimple_match_opPP6gimplePFP9tree_nodeS5_ES5_PS5_
000000000081bd8a 000000bd T _Z19gimple_simplify_292P15gimple_match_opPP6gimplePFP9tree_nodeS5_ES5_PS5_9tree_codeS9_11combined_fn
000000000081c426 00000136 T _Z19gimple_simplify_560P15gimple_match_opPP6gimplePFP9tree_nodeS5_ES5_PS5_11combined_fn
000000000081c55c 0000010a T _Z19gimple_simplify_260P15gimple_match_opPP6gimplePFP9tree_nodeS5_ES5_PS5_9tree_codeS9_
000000000081c666 00000225 T _Z19gimple_simplify_470P15gimple_match_opPP6gimplePFP9tree_nodeS5_ES5_PS5_
000000000081c8c0 00000455 T _Z18gimple_simplify_71P15gimple_match_opPP6gimplePFP9tree_nodeS5_ES5_PS5_11combined_fn
000000000081cd15 00000153 T _Z10gen_absdi2P7rtx_defS0_
000000000081cebf 00000272 T _Z19gimple_simplify_288P15gimple_match_opPP6gimplePFP9tree_nodeS5_ES5_PS5_9tree_codeS9_11combined_fn
000000000081dd95 00000270 T _Z19gimple_simplify_353P15gimple_match_opPP6gimplePFP9tree_nodeS5_ES5_PS5_9tree_codeS9_
000000000081e2d3 00000196 T _Z19gimple_simplify_525P15gimple_match_opPP6gimplePFP9tree_nodeS5_ES5_PS5_
000000000081f3ec 00000123 T _Z19gimple_simplify_412P15gimple_match_opPP6gimplePFP9tree_nodeS5_ES5_PS5_
000000000081f510 00000027 T _ZN11cgraph_node11has_thunk_pEPS_Pv
000000000081f537 00000102 T _Z19gimple_simplify_343P15gimple_match_opPP6gimplePFP9tree_nodeS5_ES5_PS5_9tree_code
000000000081f6ca 000001cd T _Z19gimple_simplify_231P15gimple_match_opPP6gimplePFP9tree_nodeS5_ES5_PS5_9tree_codeS9_
000000000081f8b1 000001b7 T _Z18gimple_simplify_12P15gimple_match_opPP6gimplePFP9tree_nodeS5_ES5_PS5_
000000000081fa68 0000037c T _Z19gimple_simplify_303P15gimple_match_opPP6gimplePFP9tree_nodeS5_ES5_PS5_
000000000081fde4 00000316 T _Z19generic_simplify_49jP9tree_nodeS0_S0_PS0_
000000000082044b 000000c5 T _Z11gen_rotrdi3P7rtx_defS0_S0_
0000000000820c62 000000f4 T _Z19gimple_simplify_366P15gimple_match_opPP6gimplePFP9tree_nodeS5_ES5_PS5_9tree_code
00000000008211eb 00000040 T _Z15gen_extendqihi2P7rtx_defS0_
0000000000823b57 0000013e T _Z19gimple_simplify_466P15gimple_match_opPP6gimplePFP9tree_nodeS5_ES5_PS5_
0000000000823e08 00000193 T _Z18gimple_simplify_40P15gimple_match_opPP6gimplePFP9tree_nodeS5_ES5_PS5_9tree_code
00000000008308fe 000000b7 T _Z18bp_pack_real_valueP9bitpack_dPK10real_value
00000000008309d5 00000149 T _Z19gimple_simplify_324P15gimple_match_opPP6gimplePFP9tree_nodeS5_ES5_PS5_9tree_code
0000000000830c22 00000024 T _ZN23generic_subrtx_iteratorI18const_rtx_accessorE10free_arrayERNS1_10array_typeE
0000000000830c6e 000002cd T _Z19gimple_simplify_553P15gimple_match_opPP6gimplePFP9tree_nodeS5_ES5_PS5_9tree_code
0000000000830f4b 00000085 T _Z19gimple_simplify_480P15gimple_match_opPP6gimplePFP9tree_nodeS5_ES5_PS5_9tree_code
00000000008315af 0000009a T _Z19gimple_simplify_322P15gimple_match_opPP6gimplePFP9tree_nodeS5_ES5_PS5_9tree_code
00000000008320cc 00000089 T _ZNK13operator_plus9op1_rangeER6frangeP9tree_nodeRKS0_S5_13relation_trio
000000000083218c 0000000c T _ZNK13operator_plus9op2_rangeER6frangeP9tree_nodeRKS0_S5_13relation_trio
00000000008322a4 0000017b T _Z19generic_simplify_43jP9tree_nodeS0_S0_PS0_
0000000000832459 00000168 T _Z17gimple_simplify_3P15gimple_match_opPP6gimplePFP9tree_nodeS5_ES5_PS5_9tree_code
00000000008325ff 0000010b T _Z27insert_insn_end_basic_blockP8rtx_insnP15basic_block_def
0000000000832fca 000000ba T _Z20gen_smuldi3_highpartP7rtx_defS0_S0_
0000000000833937 00000186 T _Z18gimple_simplify_47P15gimple_match_opPP6gimplePFP9tree_nodeS5_ES5_PS5_9tree_code
0000000000833ac8 0000000e T _Z18set_comdat_group_1P11cgraph_nodePv
0000000000833ad6 0000004a T _Z16set_comdat_groupP11symtab_nodePv
0000000000833b20 000000f4 T _Z19gimple_simplify_155P15gimple_match_opPP6gimplePFP9tree_nodeS5_ES5_PS5_9tree_code
0000000000833c1b 000000d9 T _Z17gen_peephole2_382P8rtx_insnPP7rtx_def
0000000000833da1 0000000c T _Z16gcc_stablesort_rPvmmPFiPKvS1_S_ES_
0000000000833f5a 000000b5 T _Z12gen_addv4si3P7rtx_defS0_S0_
000000000083400f 00000053 T _Z12gen_sha1msg1P7rtx_defS0_S0_
000000000083406c 00000052 T _Z12gen_xorv2di3P7rtx_defS0_S0_
0000000000834243 00000053 T _Z12gen_sha1msg2P7rtx_defS0_S0_
00000000008346a0 00000132 T _Z19gimple_simplify_230P15gimple_match_opPP6gimplePFP9tree_nodeS5_ES5_PS5_9tree_codeS9_
00000000008350ad 0000007a T _Z26vect_store_lanes_supportedP9tree_nodemb
0000000000835363 000001ff T _Z20generic_simplify_319jP9tree_nodeS0_S0_PS0_9tree_codeS2_
0000000000835562 0000018e T _Z13gen_split_827P8rtx_insnPP7rtx_def
0000000000836033 0000003c T _Z11gen_split_6P8rtx_insnPP7rtx_def
00000000008364d5 00000187 T _Z19gimple_simplify_344P15gimple_match_opPP6gimplePFP9tree_nodeS5_ES5_PS5_9tree_codeS9_
00000000008366f1 0000004d T _Z12gen_addv2si3P7rtx_defS0_S0_
000000000083673e 0000013f T _Z20generic_simplify_189jP9tree_nodeS0_S0_PS0_9tree_code
0000000000836b16 0000003a T _Z34gt_ggc_mx_vec_param_access__va_gc_Pv
0000000000836c73 00000154 T _Z13gen_split_710P8rtx_insnPP7rtx_def
0000000000836ea6 00000039 T _Z36gt_ggc_mx_vec_ipa_agg_jf_item_va_gc_Pv
0000000000836edf 00000058 T _Z9gt_ggc_mxR15ipa_agg_jf_item
000000000083aa61 0000008b T _Z22vect_build_loop_nitersP14_loop_vec_infoPb
000000000083aaec 00001eb9 T _Z15vect_do_peelingP14_loop_vec_infoP9tree_nodeS2_PS2_S3_S3_ibbS3_
000000000083ca2a 00000aed T _Z24vect_transform_cycle_phiP14_loop_vec_infoP14_stmt_vec_infoPP6gimpleP9_slp_treeP13_slp_instance
000000000083dced 000000f5 T _Z24neutral_op_for_reductionP9tree_node11code_helperS0_b
000000000083fe5b 000001ff T _Z13gen_split_480P8rtx_insnPP7rtx_def
00000000008419d2 0000003a T _Z20ix86_split_reduction12machine_mode
0000000000841e87 000001ff T _Z13gen_split_479P8rtx_insnPP7rtx_def
0000000000843403 0000002e T _Z12gimple_buildP20gimple_stmt_iteratorb19gsi_iterator_updatej11code_helperP9tree_nodeS4_S4_
000000000084414f 000018ed T _Z23vect_set_loop_conditionP4loopP8edge_defP14_loop_vec_infoP9tree_nodeS6_S6_b
0000000000845a3c 00000037 T _Z26vect_iv_increment_positionP8edge_defP20gimple_stmt_iteratorPb
0000000000852a68 0000010e T _Z12gen_split_34P8rtx_insnPP7rtx_def
0000000000854f1e 000000a7 T _Z17gen_peephole2_211P8rtx_insnPP7rtx_def
0000000000854fce 00000079 T _Z17gen_peephole2_217P8rtx_insnPP7rtx_def
0000000000855047 00000061 T _Z17gen_peephole2_219P8rtx_insnPP7rtx_def
0000000000855a99 00000058 T _Z17gen_atomic_loadqiP7rtx_defS0_S0_
0000000000855af1 00000062 T _Z17gen_peephole2_133P8rtx_insnPP7rtx_def
0000000000856478 00000089 T _Z10gen_mulhi3P7rtx_defS0_S0_
000000000085652e 0000005e T _Z10gen_subhi3P7rtx_defS0_S0_
00000000008599ee 0000014f T _Z13gen_umaxv4si3P7rtx_defS0_S0_
0000000000859b3d 00000237 T _Z21ix86_expand_int_vcondPP7rtx_def
000000000085a956 000001c7 T _Z23ix86_build_signbit_mask12machine_modebb
000000000085b1ac 000000c5 T _Z23ix86_build_const_vector12machine_modebP7rtx_def
000000000085b285 00000075 T _Z12gen_bswapdi2P7rtx_defS0_
000000000085b3ed 00000087 T _Z13gen_sub3_insnP7rtx_defS0_S0_
000000000085b474 000000b5 T _Z12gen_subv4si3P7rtx_defS0_S0_
000000000085baf5 00000052 T _Z12gen_andv4si3P7rtx_defS0_S0_
000000000085bb47 00000052 T _Z12gen_iorv4si3P7rtx_defS0_S0_
000000000085c098 00000045 T _Z32create_convert_operand_from_typeP14expand_operandP7rtx_defP9tree_node
000000000085c0e3 00000087 T _Z16gen_vec_shr_v4siP7rtx_defS0_S0_
000000000085caa7 000000ad T _Z15gen_extendditi2P7rtx_defS0_
000000000085cb54 0000017a T _Z20expand_widening_mult12machine_modeP7rtx_defS1_S1_i9optab_tag
000000000085ccce 00000010 T _Z27rewrite_to_defined_overflowP6gimple
000000000085cd2e 00000089 T _Z11gen_umaxti3P7rtx_defS0_S0_
000000000085cdb7 0000000d T _Z22gsi_insert_seq_on_edgeP8edge_defP6gimple
000000000085cddc 0000005e T _Z11gen_lshrti3P7rtx_defS0_S0_
000000000085efa2 0000005e T _Z10gen_subqi3P7rtx_defS0_S0_
000000000086db10 000001ba T _Z13gen_split_712P8rtx_insnPP7rtx_def
000000000086f2af 0000012e T _Z29cse_and_gimplify_to_preheaderP14_loop_vec_infoP9tree_node
0000000000872d3f 0000008d T _Z16gen_peephole2_46P8rtx_insnPP7rtx_def
0000000000872e52 000002ee T _ZN11strlen_pass30handle_builtin_stxncpy_strncatEb
0000000000873140 000001af T _Z13gen_split_538P8rtx_insnPP7rtx_def
00000000008732ef 000000f6 T _Z17gen_x86_64_shld_1P7rtx_defS0_S0_S0_
00000000008733f5 0000042a T _Z20generic_simplify_259jP9tree_nodeS0_S0_PS0_9tree_code
0000000000873b5f 0000007f T _Z14gen_split_2987P8rtx_insnPP7rtx_def
0000000000873cbf 0000010d T _Z17gen_peephole2_167P8rtx_insnPP7rtx_def
0000000000874730 000000c1 T _Z19output_387_reg_moveP8rtx_insnPP7rtx_def
0000000000874aa8 00000026 T _Z14gen_add3_carry12machine_modeP7rtx_defS1_S1_S1_S1_
0000000000874ace 00000056 T _Z20maybe_gen_add3_carry12machine_modeP7rtx_defS1_S1_S1_S1_
0000000000874b24 000000de T _Z16gen_adddi3_carryP7rtx_defS0_S0_S0_S0_
0000000000874c1b 0000003c T _Z12gen_split_44P8rtx_insnPP7rtx_def
0000000000875a02 00000137 T _Z13gen_split_793P8rtx_insnPP7rtx_def
0000000000875c22 000001b0 T _ZN17loop_distribution24merge_dep_scc_partitionsEP5graphP3vecIP9partition7va_heap6vl_ptrEb
000000000087666d 0000000c T _Z14gcc_stablesortPvmmPFiPKvS1_E
0000000000876fc2 0000005e T _Z11gen_ashrqi3P7rtx_defS0_S0_
0000000000892383 000000de T _Z16gen_subsi3_carryP7rtx_defS0_S0_S0_S0_
0000000000892461 0000004b T _Z16gen_peephole2_59P8rtx_insnPP7rtx_def
00000000008ac861 000001ab T _Z13gen_split_226P8rtx_insnPP7rtx_def
00000000008acac9 000000e0 T _Z24gen_zero_extendv2siv2di2P7rtx_defS0_
00000000008acbd6 00000027 T _Z26lra_set_regno_unique_valuei
00000000008acf24 00000078 T _Z14have_add2_insnP7rtx_defS0_
00000000008acf9c 00000084 T _Z17gen_peephole2_207P8rtx_insnPP7rtx_def
00000000008ad7f3 000000c5 T _Z11gen_rotldi3P7rtx_defS0_S0_
00000000008ad8b8 0000029a T _Z28gimple_fold_builtin_snprintfP20gimple_stmt_iterator
00000000008adb82 000001b2 T _Z13gen_split_687P8rtx_insnPP7rtx_def
00000000008addc8 000001e1 T _Z13gen_split_211P8rtx_insnPP7rtx_def
00000000008adfa9 0000002e T _Z27reg_or_const_vector_operandP7rtx_def12machine_mode
00000000008adfd7 00000151 T _Z13gen_split_919P8rtx_insnPP7rtx_def
00000000008babac 000001de T _Z13gen_split_813P8rtx_insnPP7rtx_def
00000000008bad8a 0000002f T _Z15maybe_gen_cmp_112machine_modeP7rtx_defS1_
00000000008badb9 00000009 T _Z11gen_cmpdi_1P7rtx_defS0_
00000000008badc2 00000032 T _Z24maybe_gen_sub3_carry_ccc12machine_modeP7rtx_defS1_S1_
00000000008badf4 0000013e T _Z20gen_subdi3_carry_cccP7rtx_defS0_S0_
00000000008bb004 00000145 T _Z13gen_split_283P8rtx_insnPP7rtx_def
00000000008bb149 000000cc T _Z17gen_peephole2_327P8rtx_insnPP7rtx_def
00000000008bb3a3 00000012 T _Z19x86_64_sext_operandP7rtx_def12machine_mode
00000000008bc5da 000002fb T _Z11gen_split_2P8rtx_insnPP7rtx_def
00000000008bc956 000001a7 T _Z13gen_split_207P8rtx_insnPP7rtx_def
00000000008bcafd 00000040 T _Z14gen_truncxfdf2P7rtx_defS0_
00000000008bcf8f 00000032 T _Z10expand_FFS11internal_fnP5gcall
00000000008bd30d 000002ba T _Z10gen_ffssi2P7rtx_defS0_
00000000008bd5e6 0000014c T _Z17gen_peephole2_356P8rtx_insnPP7rtx_def
00000000008bd732 00000068 T _Z17gen_peephole2_223P8rtx_insnPP7rtx_def
00000000008bd79a 000000de T _Z16gen_addsi3_carryP7rtx_defS0_S0_S0_S0_
00000000008bd93a 0000008b T _ZN23vec_rtx_properties_base4growEl
00000000008bd9c5 000000fb T _Z13gen_split_563P8rtx_insnPP7rtx_def
00000000008bdac0 0000003e T _Z27tree_nonartificial_locationP9tree_node
00000000008bdafe 00000055 T _Z17gen_peephole2_221P8rtx_insnPP7rtx_def
00000000008bdb53 0000006b T _Z12gen_insvdi_1P7rtx_defS0_
00000000008bdbbe 000001ab T _Z13gen_split_363P8rtx_insnPP7rtx_def
00000000008bdd69 000000ea T _Z15gen_movstricthiP7rtx_defS0_
00000000008bdebc 00000046 T _Z10gen_absdf2P7rtx_defS0_
00000000008bdf02 000001ec T _Z30ix86_expand_fp_absneg_operator8rtx_code12machine_modePP7rtx_def
00000000008be0ee 00000016 T _Z16real_from_targetP10real_valuePKl13format_helper
00000000008be4d6 00000120 T _Z13gen_split_365P8rtx_insnPP7rtx_def
00000000008be6b0 000000b5 T _Z13gen_umulqihi3P7rtx_defS0_S0_
00000000008be78e 00000052 T _Z15gen_one_cmplhi2P7rtx_defS0_
00000000008bec3f 000001e7 T _Z13gen_split_412P8rtx_insnPP7rtx_def
00000000008bee55 000001ab T _Z13gen_split_361P8rtx_insnPP7rtx_def
00000000008bf000 000000d7 T _Z13gen_split_799P8rtx_insnPP7rtx_def
00000000008bf0f2 00000260 T _Z27gimple_fold_builtin_sprintfP20gimple_stmt_iterator
00000000008bf352 000000fc T _Z12copy_warningP6gimplePKS_
00000000008bf44e 00000104 T _Z13gen_split_504P8rtx_insnPP7rtx_def
00000000008bf5cb 000000df T _Z13gen_split_557P8rtx_insnPP7rtx_def
00000000008bf7bf 00000046 T _Z10gen_absxf2P7rtx_defS0_
00000000008cc701 000000a1 T _Z17gen_one_cmplv2di2P7rtx_defS0_
00000000008cc7a2 00000120 T _Z13gen_split_418P8rtx_insnPP7rtx_def
00000000008cc8c2 0000008d T _Z16gen_peephole2_47P8rtx_insnPP7rtx_def
00000000008cc94f 00000120 T _Z13gen_split_364P8rtx_insnPP7rtx_def
00000000008cca6f 000001f6 T _Z13gen_split_264P8rtx_insnPP7rtx_def
00000000008ccc65 0000008d T _Z13gen_split_492P8rtx_insnPP7rtx_def
00000000008cd0e5 000001c8 T _Z17output_fp_compareP8rtx_insnPP7rtx_defbb
00000000008cd2ad 0000005e T _Z23gen_reduc_ior_scal_v2diP7rtx_defS0_
00000000008cd8d5 00000046 T _Z10gen_abssf2P7rtx_defS0_
00000000008cda27 00000009 T _Z13gen_cstoresf4P7rtx_defS0_S0_S0_
00000000008cda30 00000104 T _Z13gen_split_502P8rtx_insnPP7rtx_def
00000000008cddd9 00000230 T _Z12gen_uaddvsi4P7rtx_defS0_S0_S0_
00000000008ce0f6 00000137 T _Z13gen_split_792P8rtx_insnPP7rtx_def
00000000008ce266 000000e8 T _Z29gen_atomic_compare_and_swapqiP7rtx_defS0_S0_S0_S0_S0_S0_S0_
00000000008ce34e 0000016d T _Z31gen_atomic_compare_and_swapqi_1P7rtx_defS0_S0_S0_S0_
00000000008db31f 000000e8 T _Z29gen_atomic_compare_and_swaphiP7rtx_defS0_S0_S0_S0_S0_S0_S0_
00000000008db407 0000016d T _Z31gen_atomic_compare_and_swaphi_1P7rtx_defS0_S0_S0_S0_
00000000008dbf57 0000014f T _Z29gen_atomic_compare_and_swapdiP7rtx_defS0_S0_S0_S0_S0_S0_S0_
00000000008dc0a6 0000016d T _Z31gen_atomic_compare_and_swapdi_1P7rtx_defS0_S0_S0_S0_
00000000008dc4e4 00000084 T _Z17gen_vcondv4qiv4qiP7rtx_defS0_S0_S0_S0_S0_
00000000008dc6e5 00000156 T _Z19expand_vec_cmp_exprP9tree_nodeS0_P7rtx_def
00000000008dc83b 0000006c T _Z19gen_vec_cmpv4qiv4qiP7rtx_defS0_S0_S0_
00000000008dc8a7 000000a5 T _Z23ix86_expand_int_vec_cmpPP7rtx_def
00000000008dc94c 00000009 T _Z23gen_vcond_mask_v4qiv4qiP7rtx_defS0_S0_S0_
00000000008dc955 000000ed T _Z13gen_split_148P8rtx_insnPP7rtx_def
00000000008dd07f 00000046 T _Z10gen_negdf2P7rtx_defS0_
00000000008def1a 000000ae T _Z17gen_peephole2_157P8rtx_insnPP7rtx_def
00000000008defc8 000002a7 T _Z12gen_umulvsi4P7rtx_defS0_S0_S0_
00000000008df26f 00000659 T _Z15ix86_split_ashlPP7rtx_defS0_12machine_mode
00000000008df8c8 0000018a T _Z15gen_x86_64_shldP7rtx_defS0_S0_
00000000008dfae0 000000ad T _Z17gen_floatunsdidf2P7rtx_defS0_
00000000008dfb8d 00000199 T _Z17x86_emit_floatunsPP7rtx_def
00000000008dfd26 0000004d T _Z10gen_adddf3P7rtx_defS0_S0_
00000000008dfd8c 000000a9 T _Z17gen_peephole2_160P8rtx_insnPP7rtx_def
00000000008dfe35 000002ef T _Z15ix86_split_lshrPP7rtx_defS0_12machine_mode
00000000008e0124 0000018a T _Z15gen_x86_64_shrdP7rtx_defS0_S0_
00000000008e02ae 0000005e T _Z10gen_xorhi3P7rtx_defS0_S0_
00000000008e032d 00000111 T _Z13gen_split_915P8rtx_insnPP7rtx_def
00000000008e043e 00000163 T _Z13gen_split_385P8rtx_insnPP7rtx_def
00000000008e05a1 000000e8 T _Z13gen_split_928P8rtx_insnPP7rtx_def
00000000008e0e10 000001af T _Z13gen_split_588P8rtx_insnPP7rtx_def
00000000008e0fbf 000000f6 T _Z14gen_x86_shrd_1P7rtx_defS0_S0_S0_
00000000008e15ae 000000f1 T _Z20bp_unpack_real_valueP9bitpack_dP10real_value
00000000008e16a0 0000008c T _ZN11symtab_node18increase_alignmentEj
00000000008e18d6 00000104 T _Z13gen_split_505P8rtx_insnPP7rtx_def
00000000008e19da 00000109 T _Z13gen_split_154P8rtx_insnPP7rtx_def
00000000008e1ae3 00000137 T _Z13gen_split_794P8rtx_insnPP7rtx_def
00000000008e1d05 00000150 T _Z17gen_peephole2_103P8rtx_insnPP7rtx_def
00000000008e1e56 000000bd T _ZNK6frange10contains_pERK10real_value
00000000008e210a 000001cd T _Z17gen_peephole2_364P8rtx_insnPP7rtx_def
00000000008e2468 000001a8 T _Z13gen_split_702P8rtx_insnPP7rtx_def
00000000008e2616 000000d9 T _Z17gen_peephole2_383P8rtx_insnPP7rtx_def
00000000008e26ef 0000010d T _Z16split_comparison8rtx_code12machine_modePS_S1_
00000000008e2815 000006a6 T _Z10expand_fixP7rtx_defS0_i
00000000008e2ebb 00000074 T _Z9can_fix_p12machine_modeS_iPb
00000000008e2f2f 00000142 T _Z18gen_fix_truncdfdi2P7rtx_defS0_
00000000008e3071 0000004d T _Z10gen_subdf3P7rtx_defS0_S0_
00000000008e3dc6 0000015d T _Z17gen_peephole2_294P8rtx_insnPP7rtx_def
00000000008e487b 000000ef T _Z13gen_split_625P8rtx_insnPP7rtx_def
00000000008e4e21 000001a1 T _Z13gen_split_746P8rtx_insnPP7rtx_def
00000000008e4fd4 000000d7 T _Z20gen_bsr_rex64_1_zextP7rtx_defS0_
00000000008e5209 0000005e T _Z11gen_ashrhi3P7rtx_defS0_S0_
00000000008e5372 000001bd T _Z13gen_split_218P8rtx_insnPP7rtx_def
00000000008e5683 000004f3 T _Z19dw2_force_const_memP7rtx_defb
00000000008e5bdf 0000005e T _Z11gen_ashrti3P7rtx_defS0_S0_
00000000008e5c3d 0000024f T _Z11gen_mulvdi4P7rtx_defS0_S0_S0_
00000000008e5e8c 000002a7 T _Z11gen_addvdi4P7rtx_defS0_S0_S0_
00000000008e6133 00000059 T _Z23gen_vec_pack_trunc_v4siP7rtx_defS0_S0_
00000000008e61a8 000000c8 T _Z27gen_vec_interleave_highv8hiP7rtx_defS0_S0_
00000000008e6270 000000c8 T _Z26gen_vec_interleave_lowv8hiP7rtx_defS0_S0_
00000000008e647f 00000059 T _Z23gen_vec_pack_trunc_v8hiP7rtx_defS0_S0_
00000000008e66f1 00000052 T _Z12gen_andv8hi3P7rtx_defS0_S0_
00000000008e6743 00000053 T _Z17gen_sse2_packuswbP7rtx_defS0_S0_
00000000008e679c 000000a3 T _Z13gen_split_852P8rtx_insnPP7rtx_def
00000000008e6965 000001df T _Z16gen_peephole2_72P8rtx_insnPP7rtx_def
00000000008e6b44 00000085 T _Z19gimple_simplify_447P15gimple_match_opPP6gimplePFP9tree_nodeS5_ES5_PS5_
00000000008e6c93 000000fb T _Z13gen_split_544P8rtx_insnPP7rtx_def
00000000008e6d8e 00000114 T _Z35supportable_half_widening_operation9tree_codeP9tree_nodeS1_PS_
00000000008e6ea2 00000017 T _Z22associated_internal_fnP9tree_node
00000000008e6eb9 000002ea T _Z32ix86_builtin_vectorized_functionjP9tree_nodeS0_
00000000008e71a3 00000145 T _Z13gen_split_281P8rtx_insnPP7rtx_def
00000000008e72e8 000000b0 T _Z17gen_peephole2_331P8rtx_insnPP7rtx_def
00000000008e7398 000001bf T _Z19generic_simplify_45jP9tree_nodeS0_S0_PS0_
00000000008e7557 0000009f T _Z13gen_split_310P8rtx_insnPP7rtx_def
00000000008e75f6 00000082 T _Z13gen_cstoreti4P7rtx_defS0_S0_S0_
00000000008e7678 000000a3 T _Z13gen_split_854P8rtx_insnPP7rtx_def
00000000008e771b 0000004d T _Z18gen_vec_concatv2diP7rtx_defS0_S0_
00000000008e78d1 00000015 T _Z23vect_double_mask_nunitsP9tree_node12machine_mode
00000000008e78e6 0000015d T _Z17gen_peephole2_293P8rtx_insnPP7rtx_def
00000000008e7a43 000001e7 T _Z13gen_split_416P8rtx_insnPP7rtx_def
00000000008e7d3e 000001b4 T _Z13gen_split_717P8rtx_insnPP7rtx_def
00000000008e7f5a 000001dd T _Z13gen_split_231P8rtx_insnPP7rtx_def
00000000008e8137 000001a4 T _Z13gen_split_609P8rtx_insnPP7rtx_def
00000000008e8308 000000e5 T _Z13gen_split_160P8rtx_insnPP7rtx_def
00000000008e840e 00000024 T _ZN23generic_subrtx_iteratorI16rtx_ptr_accessorE10free_arrayERNS1_10array_typeE
00000000008e8b6b 00000062 T _Z17gen_peephole2_325P8rtx_insnPP7rtx_def
00000000008e8c3d 000000d6 T _Z14gen_udivmodhi4P7rtx_defS0_S0_S0_
00000000008e8d27 00000089 T _Z11gen_smindi3P7rtx_defS0_S0_
00000000008e8db0 000000cc T _Z19gimple_simplify_236P15gimple_match_opPP6gimplePFP9tree_nodeS5_ES5_PS5_9tree_codeS9_S9_
00000000008e8e7c 00000041 T _Z11gen_movv1siP7rtx_defS0_
00000000008e8ec6 000000a4 T _Z29expand_builtin_eh_copy_valuesP9tree_node
00000000008e8f6a 0000006a T _Z19max_stmt_executionsP4loopP16generic_wide_intI18widest_int_storageILi131072EEE
00000000008e8fd4 0000002d T _Z24expand_builtin_eh_filterP9tree_node
00000000008e9001 00000134 T _Z18gen_fix_truncdfsi2P7rtx_defS0_
00000000008e9286 00000160 T _Z13gen_split_393P8rtx_insnPP7rtx_def
00000000008e93e6 0000008c T _Z17gen_floatunsdisf2P7rtx_defS0_
00000000008e9472 000000dd T _Z19gen_extendv2siv2di2P7rtx_defS0_
00000000008e954f 00000009 T _Z14gen_cbranchsf4P7rtx_defS0_S0_S0_
00000000008e9558 000000da T _Z25update_cfg_for_uncondjumpP8rtx_insn
00000000008e9632 00000142 T _Z18gen_fix_truncsfdi2P7rtx_defS0_
00000000008e9774 00000009 T _Z21gen_fix_truncsfdi_sseP7rtx_defS0_
00000000008e977d 0000004d T _Z10gen_subsf3P7rtx_defS0_S0_
00000000008e9d40 00000120 T _Z13gen_split_422P8rtx_insnPP7rtx_def
00000000008e9e60 0000001b T _Z22operation_can_overflow9tree_code
00000000008e9e7b 00000056 T _Z23related_int_vector_mode12machine_mode
00000000008ea19d 00000173 T _Z12gen_split_21P8rtx_insnPP7rtx_def
00000000008eabe9 0000010c T _Z11gen_split_4P8rtx_insnPP7rtx_def
00000000008eadd1 000001e1 T _Z13gen_split_208P8rtx_insnPP7rtx_def
00000000008eafba 00000168 T _Z13gen_split_389P8rtx_insnPP7rtx_def
00000000008eb122 000001a2 T _Z19is_strlen_related_pP9tree_nodeS0_
00000000008eb2fa 0000040d T _Z25expand_widen_pattern_exprP12separate_opsP7rtx_defS2_S2_S2_i
00000000008eb707 0000043b T _Z22ix86_expand_sse_unpackP7rtx_defS0_bb
00000000008ebb42 000000aa T _Z26gen_vec_interleave_lowv4siP7rtx_defS0_S0_
00000000008ebbec 000000aa T _Z27gen_vec_interleave_highv4siP7rtx_defS0_S0_
00000000008ebc96 00000059 T _Z23gen_vec_pack_trunc_v2diP7rtx_defS0_S0_
00000000008ebcef 0000010b T _Z12gen_split_88P8rtx_insnPP7rtx_def
00000000008ec30d 000000c9 T _Z10gen_divsf3P7rtx_defS0_S0_
00000000008ec48c 000000cb T _Z15gen_extendsfdf2P7rtx_defS0_
00000000008ec630 000000b2 T _Z13gen_split_306P8rtx_insnPP7rtx_def
00000000008ec6f5 0000005e T _Z24gen_reduc_plus_scal_v2diP7rtx_defS0_
00000000008ed0e9 000000ed T _Z13gen_split_146P8rtx_insnPP7rtx_def
00000000008ed408 0000006d T _ZNK14operator_minus9op2_rangeER6frangeP9tree_nodeRKS0_S5_13relation_trio
00000000008ed475 0000012f T _Z13gen_split_150P8rtx_insnPP7rtx_def
00000000008ed5a4 000001dd T _Z13gen_split_230P8rtx_insnPP7rtx_def
00000000008ed781 00000041 T _Z11gen_movv1diP7rtx_defS0_
00000000008ed854 0000018e T _Z13gen_split_828P8rtx_insnPP7rtx_def
00000000008ed9e2 000003d9 T _ZN17loop_distribution26break_alias_scc_partitionsEP5graphP3vecIP9partition7va_heap6vl_ptrEPS2_IP24data_dependence_relationS5_S6_E
00000000008f01fc 0000074a T _Z27create_runtime_alias_checksP4loopPK3vecI22dr_with_seg_len_pair_t7va_heap6vl_ptrEPP9tree_node
00000000008f141e 0000002b T _Z3gcdll
00000000008f1449 00000009 T _Z19gen_vec_initv16qiqiP7rtx_defS0_
00000000008f1520 00000009 T _Z24gen_vec_unpacks_lo_v16qiP7rtx_defS0_
00000000008f1529 000000f8 T _Z27gen_vec_interleave_lowv16qiP7rtx_defS0_S0_
00000000008f1621 00000009 T _Z24gen_vec_unpacks_hi_v16qiP7rtx_defS0_
00000000008f162a 000000f8 T _Z28gen_vec_interleave_highv16qiP7rtx_defS0_S0_
00000000008f1722 000001ab T _Z17gen_peephole2_348P8rtx_insnPP7rtx_def
00000000008f18cd 0000004d T _Z10gen_mulsf3P7rtx_defS0_S0_
00000000008f1a3e 0000010c T _Z12gen_split_12P8rtx_insnPP7rtx_def
00000000008f1b56 00000018 T _Z22vect_halve_mask_nunitsP9tree_node12machine_mode
00000000008f1b6e 0000019e T _Z13gen_split_253P8rtx_insnPP7rtx_def
00000000008f1d0c 000000c0 T _Z13gen_split_951P8rtx_insnPP7rtx_def
00000000008f2390 00000032 T _Z32maybe_gen_adjust_stack_and_probe12machine_modeP7rtx_defS1_S1_
00000000008f23c2 00000141 T _Z29gen_adjust_stack_and_probe_diP7rtx_defS0_S0_
00000000008f2754 000000d0 T _Z17gen_x86_negsi_cccP7rtx_defS0_
00000000008f2824 000000c5 T _Z24gen_x86_movsicc_0_m1_negP7rtx_def
00000000008f28f2 00000136 T _Z29output_adjust_stack_and_probeP7rtx_def
00000000008f2b43 0000017f T _Z10gen_strsetP7rtx_defS0_S0_
00000000008f2cc2 00000168 T _Z14gen_split_2997P8rtx_insnPP7rtx_def
00000000008f2ff3 000001a8 T _Z13gen_split_700P8rtx_insnPP7rtx_def
00000000008f32cd 000000b9 T _Z19gimple_simplify_102P15gimple_match_opPP6gimplePFP9tree_nodeS5_ES5_PS5_
00000000008f3386 000002b1 T _Z11gen_subvdi4P7rtx_defS0_S0_S0_
00000000008f3637 000003f1 T _Z19copy_blkmode_to_reg12machine_modeP9tree_node
00000000008f3a68 00000100 T _Z13gen_split_144P8rtx_insnPP7rtx_def
00000000008f3b68 00000068 T _Z17gen_peephole2_224P8rtx_insnPP7rtx_def
00000000008f3e78 000001a7 T _Z13gen_split_204P8rtx_insnPP7rtx_def
00000000008f424d 0000027b T _Z10gen_ffsdi2P7rtx_defS0_
00000000008f485f 0000003e T _Z30vector_or_const_vector_operandP7rtx_def12machine_mode
00000000008f48a8 0000006c T _Z21gen_vec_cmpv16qiv16qiP7rtx_defS0_S0_S0_
00000000008f4b94 00000015 T _Z24default_external_libcallP7rtx_def
00000000008f5008 00000052 T _Z13gen_iorv16qi3P7rtx_defS0_S0_
00000000008f50f0 00000009 T _Z17gen_sse2_pmovmskbP7rtx_defS0_
00000000008f5652 00000080 T _Z10gen_ctzsi2P7rtx_defS0_
00000000008f56d2 00000160 T _ZN9predicate9normalizeERK9pred_info
00000000008f5832 00000033 T _ZN9predicate9push_predERK9pred_info
00000000008f59a0 0000015a T _ZN9predicate10simplify_2Ev
00000000008f5afa 00000112 T _ZN9predicate10simplify_3Ev
00000000008f5c0c 000001ec T _ZN9predicate10simplify_4Ev
00000000008f5df8 0000003c T _ZNK9predicate11superset_ofERKS_
00000000008f5e34 000001af T _ZNK9predicate8includesERK3vecI9pred_info7va_heap6vl_ptrE
00000000008f60a1 00000085 T _Z19gimple_simplify_481P15gimple_match_opPP6gimplePFP9tree_nodeS5_ES5_PS5_9tree_code
00000000008f6145 00000066 T _Z35expand_builtin_eh_return_data_regnoP9tree_node
00000000008f691b 0000010c T _Z12gen_prefetchP7rtx_defS0_S0_
00000000008f6a27 00000173 T _Z12gen_split_20P8rtx_insnPP7rtx_def
00000000008f6c4f 000001f3 T _Z10gen_clzsi2P7rtx_defS0_
00000000008f6e42 00000189 T _Z19gimple_simplify_141P15gimple_match_opPP6gimplePFP9tree_nodeS5_ES5_PS5_9tree_codeS9_
00000000008f704f 0000007d T _Z12gen_split_48P8rtx_insnPP7rtx_def
00000000008f70cc 000001b4 T _Z13gen_split_259P8rtx_insnPP7rtx_def
00000000008f72b7 000000a1 T _Z13gen_split_953P8rtx_insnPP7rtx_def
00000000008f739b 00000120 T _Z13gen_split_366P8rtx_insnPP7rtx_def
00000000008f7560 00000024 T _ZN23generic_subrtx_iteratorI16rtx_var_accessorE10free_arrayERNS1_10array_typeE
00000000008f7584 00000175 T _Z13gen_split_747P8rtx_insnPP7rtx_def
00000000008f76f9 000000ae T _Z9gen_bsr_1P7rtx_defS0_
00000000008f77b0 0000006a T _Z39gt_ggc_mx_function_summary_clone_info__Pv
00000000008f790b 00000041 T _Z9jumpifnotP9tree_nodeP14rtx_code_label19profile_probability
00000000008f79fa 00000074 T _Z13gen_split_533P8rtx_insnPP7rtx_def
00000000008f7a6e 0000006f T _Z13gen_split_579P8rtx_insnPP7rtx_def
00000000008f7add 000000ed T _Z13gen_split_149P8rtx_insnPP7rtx_def
00000000008f7bca 000000fb T _Z13gen_split_564P8rtx_insnPP7rtx_def
00000000008f7e42 00000158 T _Z12gen_uaddcdi5P7rtx_defS0_S0_S0_S0_
00000000008f7f9a 000000d7 T _Z16gen_addcarrydi_0P7rtx_defS0_S0_
00000000008f8071 00000059 T _Z17ix86_expand_carryP7rtx_def
00000000008f80ca 000000c8 T _Z26gen_addqi3_cconly_overflowP7rtx_defS0_
00000000008f8192 00000248 T _Z14gen_addcarrydiP7rtx_defS0_S0_S0_S0_S0_
00000000008f8a46 00000009 T _Z21gen_movv16qi_internalP7rtx_defS0_
00000000008f8c62 0000021d T _Z19gen_sse4_2_pcmpestrP7rtx_defS0_S0_S0_S0_S0_S0_
00000000008f8e7f 00000006 T _Z14gotoff_operandP7rtx_def12machine_mode
00000000008f8e85 00000093 T _Z22local_symbolic_operandP7rtx_def12machine_mode
00000000008f9a47 000000a4 T _Z10gen_extvhiP7rtx_defS0_S0_S0_
00000000008f9b7a 0000000a T _Z18hard_libcall_value12machine_modeP7rtx_def
00000000008f9b84 00000006 T _Z21default_libcall_value12machine_modePK7rtx_def
00000000008f9b8a 00000011 T _Z18ix86_libcall_value12machine_mode
00000000008f9b9b 000016b7 T _Z25emit_library_call_value_1iP7rtx_defS0_12libcall_type12machine_modeiPSt4pairIS0_S2_E
00000000008fb2ab 00000045 T _Z42make_reg_eh_region_note_nothrow_nononlocalP8rtx_insn
00000000008fb2f0 000000de T _Z16gen_subqi3_carryP7rtx_defS0_S0_S0_S0_
00000000008fb469 0000004d T _Z12gen_subv2si3P7rtx_defS0_S0_
00000000008fb535 00000144 T _Z14gen_split_3247P8rtx_insnPP7rtx_def
00000000008fb679 00000162 T _Z20gen_sse4_2_pcmpestriP7rtx_defS0_S0_S0_S0_S0_
00000000008fb829 00000015 T _Z17add_stmt_to_eh_lpP6gimplei
00000000008fb83e 000001ab T _Z13gen_split_224P8rtx_insnPP7rtx_def
00000000008fbad4 0000001b T _Z35maybe_code_for_stack_protect_test_112machine_mode
00000000008fbaef 000005f0 T _Z24vect_permute_store_chainP8vec_infoR3vecIP9tree_node7va_heap6vl_ptrEjP14_stmt_vec_infoP20gimple_stmt_iteratorPS6_
00000000008fc142 00000034 T _Z18vect_remove_storesP8vec_infoP14_stmt_vec_info
00000000008fc176 00000010 T _Z21vect_get_slp_vect_defP9_slp_treej
00000000008fc186 000001a3 T _Z13fold_vec_permP9tree_nodeS0_S0_RK16vec_perm_indices
00000000008fc3e2 00000038 T _Z13gen_split_188P8rtx_insnPP7rtx_def
00000000008fc619 000005ef T _Z27vect_gen_vector_loop_nitersP14_loop_vec_infoP9tree_nodePS2_S3_b
00000000008fd3e6 00000122 T _ZN11pcom_worker17combinable_refs_pEP6dref_dS1_P9tree_codePbPP9tree_node
00000000008fd53e 0000006e T _ZN11pcom_worker20find_common_use_stmtEPP9tree_nodeS2_
00000000008fd5ac 00000082 T _ZN11pcom_worker13find_use_stmtEPP9tree_node
00000000008fd62e 0000009c T _ZN11pcom_worker24single_nonlooparound_useEP9tree_node
00000000008fd6ca 000000d3 T _Z13gen_split_547P8rtx_insnPP7rtx_def
00000000008fdc08 00000159 T _Z17gen_peephole2_305P8rtx_insnPP7rtx_def
00000000008fdfc2 0000017b T _Z13gen_split_523P8rtx_insnPP7rtx_def
00000000008fe254 00000009 T _Z12gen_mulv2di3P7rtx_defS0_S0_
00000000008fe25d 00000416 T _Z25ix86_expand_sse2_mulvxdi3P7rtx_defS0_S0_
00000000008fe673 000001a8 T _Z29gen_vec_widen_umult_even_v4siP7rtx_defS0_S0_
00000000008fe81b 0000004d T _Z13gen_lshrv2di3P7rtx_defS0_S0_
00000000008fe868 0000004d T _Z13gen_ashlv2di3P7rtx_defS0_S0_
00000000008fe8b5 00000030 T _Z18force_expand_binop12machine_mode9optab_tagP7rtx_defS2_S2_i13optab_methods
00000000008fe8e5 000000ab T _Z21simplify_expand_binop12machine_mode9optab_tagP7rtx_defS2_S2_i13optab_methods
00000000008feaa2 000000d0 T _Z17gen_x86_negdi_cccP7rtx_defS0_
00000000008feb72 000000df T _Z17gen_peephole2_278P8rtx_insnPP7rtx_def
00000000008fec51 00000113 T _Z13gen_split_739P8rtx_insnPP7rtx_def
00000000008fed9a 000000c9 T _ZN22vect_optimize_slp_pass13total_in_costEj
00000000008feef4 0000008e T _ZN22vect_optimize_slp_pass22change_vec_perm_layoutEP9_slp_treeR3vecISt4pairIjjE7va_heap6vl_ptrEij
00000000008fef82 00000089 T _Z11gen_umaxqi3P7rtx_defS0_S0_
00000000008ff00e 0000001f T _Z33vect_can_vectorize_without_simd_p11code_helper
00000000008ff02d 0000020e T _Z12gen_usubvdi4P7rtx_defS0_S0_S0_
00000000008ff23b 0000005a T _Z14duplicate_loopP4loopS0_S0_
00000000008ff295 0000017f T _Z13gen_split_817P8rtx_insnPP7rtx_def
00000000008ff414 0000006d T _Z18duplicate_subloopsP4loopS0_
00000000008ff481 00000155 T _Z17gen_peephole2_117P8rtx_insnPP7rtx_def
00000000008ff5d6 00000101 T _Z13gen_split_411P8rtx_insnPP7rtx_def
00000000008ff6d7 00000120 T _Z13gen_split_423P8rtx_insnPP7rtx_def
00000000008ff7f7 000001bc T _Z13gen_split_315P8rtx_insnPP7rtx_def
00000000008ff9b3 00000089 T _Z11gen_umaxhi3P7rtx_defS0_S0_
00000000008ffacc 0000017f T _Z13gen_split_821P8rtx_insnPP7rtx_def
00000000008ffc4b 00000650 T _Z19gimple_simplify_384P15gimple_match_opPP6gimplePFP9tree_nodeS5_ES5_PS5_11combined_fn
000000000090029b 000001e7 T _Z13gen_split_415P8rtx_insnPP7rtx_def
0000000000900482 0000017b T _Z13gen_split_522P8rtx_insnPP7rtx_def
00000000009005fd 000001a8 T _Z13gen_split_708P8rtx_insnPP7rtx_def
00000000009007a5 00000154 T _Z13gen_split_706P8rtx_insnPP7rtx_def
00000000009008f9 000000bc T _Z19gimple_simplify_306P15gimple_match_opPP6gimplePFP9tree_nodeS5_ES5_PS5_9tree_code
00000000009009c9 00000096 T _Z13gen_split_954P8rtx_insnPP7rtx_def
0000000000900a5f 0000073e T _Z19gimple_simplify_647P15gimple_match_opPP6gimplePFP9tree_nodeS5_ES5_PS5_9tree_codeS9_
00000000009011c7 000000dc T _Z13gen_split_554P8rtx_insnPP7rtx_def
0000000000902126 0000009f T _Z13gen_split_311P8rtx_insnPP7rtx_def
00000000009021cd 0000035b T _Z19gimple_simplify_361P15gimple_match_opPP6gimplePFP9tree_nodeS5_ES5_PS5_9tree_codeS9_11combined_fn
000000000090252e 0000004d T _Z21gen_vec_duplicatev4siP7rtx_defS0_
0000000000902cd4 000000e5 T _Z13gen_split_158P8rtx_insnPP7rtx_def
000000000090313a 0000004d T _Z12gen_addv8qi3P7rtx_defS0_S0_
0000000000903187 0000004d T _Z12gen_addv4qi3P7rtx_defS0_S0_
00000000009032ce 0000016b T _Z19gimple_simplify_210P15gimple_match_opPP6gimplePFP9tree_nodeS5_ES5_PS5_9tree_code
0000000000903441 000000f9 T _Z20generic_simplify_318jP9tree_nodeS0_S0_PS0_9tree_code
000000000090353a 000000f8 T _Z18gimple_simplify_90P15gimple_match_opPP6gimplePFP9tree_nodeS5_ES5_PS5_
0000000000903632 0000024f T _Z11gen_mulvsi4P7rtx_defS0_S0_S0_
0000000000903899 0000000b T _Z18internal_load_fn_p11internal_fn
00000000009038d0 00000254 T _Z13gen_split_258P8rtx_insnPP7rtx_def
0000000000903b24 00000052 T _Z10gen_negqi2P7rtx_defS0_
0000000000903b76 00000191 T _Z20default_tree_printerP14pretty_printerP9text_infoPKcibbbPbPS4_
0000000000903d07 000000b0 T _Z13gen_split_307P8rtx_insnPP7rtx_def
0000000000903dfb 00000039 T _Z10expand_decP7rtx_defS0_
0000000000903e34 00000039 T _Z10expand_incP7rtx_defS0_
0000000000903ea3 00001333 T _Z38slpeel_tree_duplicate_loop_to_edge_cfgP4loopP8edge_defS0_S2_S2_PS2_bP3vecIP15basic_block_def7va_heap6vl_ptrE
0000000000905200 00000010 T _Z15get_current_defP9tree_node
00000000009052c0 000000ac T _Z16reset_debug_usesP6gimple
00000000009053a9 000000db T _Z17gen_peephole2_372P8rtx_insnPP7rtx_def
0000000000905484 000001af T _Z13gen_split_585P8rtx_insnPP7rtx_def
0000000000905720 000000f6 T _Z17gen_x86_64_shrd_1P7rtx_defS0_S0_S0_
0000000000905816 00000009 T _Z14gen_floatsisf2P7rtx_defS0_
000000000090581f 0000004d T _Z10gen_anddf3P7rtx_defS0_S0_
000000000090586c 0000004d T _Z10gen_iordf3P7rtx_defS0_S0_
00000000009058c1 0000004b T _Z23sse_comparison_operatorP7rtx_def12machine_mode
000000000090590c 000001a0 T _Z13gen_split_961P8rtx_insnPP7rtx_def
0000000000905ddd 0000010b T _Z12gen_split_71P8rtx_insnPP7rtx_def
0000000000905fca 0000010b T _Z12gen_split_87P8rtx_insnPP7rtx_def
00000000009060d5 000003fc T _Z19gimple_simplify_317P15gimple_match_opPP6gimplePFP9tree_nodeS5_ES5_PS5_9tree_code
00000000009064d2 000001f3 T _ZNK14operator_minus15overflow_free_pERK6irangeS2_13relation_trio
00000000009066c5 000000fb T _Z13powi_as_multsP20gimple_stmt_iteratorjP9tree_nodel
0000000000906850 00000049 T _Z14clear_mem_sizeP7rtx_def
00000000009068bb 000001e6 T _Z13gen_split_185P8rtx_insnPP7rtx_def
0000000000906c1a 000000ee T _Z13gen_split_834P8rtx_insnPP7rtx_def
0000000000906d08 00000227 T _Z29gimple_simplify_CFN_REDUC_ANDP15gimple_match_opPP6gimplePFP9tree_nodeS5_E11code_helperS5_S5_
0000000000906f2f 00000131 T _Z17gen_peephole2_274P8rtx_insnPP7rtx_def
0000000000907060 00000109 T _Z13gen_split_156P8rtx_insnPP7rtx_def
000000000090717c 0000005e T _Z23gen_reduc_and_scal_v2diP7rtx_defS0_
00000000009071da 000001c5 T _Z18gimple_simplify_22P15gimple_match_opPP6gimplePFP9tree_nodeS5_ES5_PS5_
000000000090739f 000001a7 T _Z13gen_split_205P8rtx_insnPP7rtx_def
0000000000907546 000001a9 T _ZNK28operator_widen_mult_unsigned7wi_foldER6irangeP9tree_nodeRK16generic_wide_intI16wide_int_storageES8_S8_S8_
00000000009076ef 00000143 T _Z17gen_peephole2_165P8rtx_insnPP7rtx_def
0000000000907832 00000246 T _Z20generic_simplify_328jP9tree_nodeS0_S0_PS0_9tree_codeS2_
0000000000907a80 00000150 T _Z17gen_peephole2_104P8rtx_insnPP7rtx_def
0000000000907bd0 00000040 T _Z14gen_truncdfsf2P7rtx_defS0_
0000000000907c29 00000163 T _Z13gen_split_387P8rtx_insnPP7rtx_def
0000000000907d8c 000001c1 T _Z13gen_split_202P8rtx_insnPP7rtx_def
0000000000907f56 000000b6 T _Z15gen_extendsfxf2P7rtx_defS0_
00000000009081e3 00000134 T _Z18gen_fix_truncsfsi2P7rtx_defS0_
0000000000908317 00000009 T _Z21gen_fix_truncsfsi_sseP7rtx_defS0_
0000000000908320 0000012a T _Z13gen_split_789P8rtx_insnPP7rtx_def
000000000090844a 000001c4 T _Z13gen_split_693P8rtx_insnPP7rtx_def
000000000090860e 000001ad T _Z13gen_split_583P8rtx_insnPP7rtx_def
00000000009087c3 00000077 T _Z17ix86_check_movabsP7rtx_defi
000000000090883a 0000004d T _Z12gen_iorv2si3P7rtx_defS0_S0_
0000000000908887 000000c5 T _Z24gen_x86_movdicc_0_m1_negP7rtx_def
000000000090894c 00000188 T _Z19gimple_simplify_427P15gimple_match_opPP6gimplePFP9tree_nodeS5_ES5_PS5_
0000000000908b56 00000331 T _Z19gimple_simplify_555P15gimple_match_opPP6gimplePFP9tree_nodeS5_ES5_PS5_
0000000000908e87 0000012f T _Z13gen_split_151P8rtx_insnPP7rtx_def
0000000000908fb6 00000038 T _Z18gen_int_fp_libfunc9optab_tagPKcc12machine_mode
0000000000909013 0000012a T _Z13gen_split_790P8rtx_insnPP7rtx_def
0000000000909278 000000d6 T _Z13gen_divmodhi4P7rtx_defS0_S0_S0_
000000000090934e 00000399 T _Z19gimple_simplify_383P15gimple_match_opPP6gimplePFP9tree_nodeS5_ES5_PS5_
0000000000909780 000000fb T _Z13gen_split_611P8rtx_insnPP7rtx_def
00000000009098e7 000000cc T _Z17gen_peephole2_328P8rtx_insnPP7rtx_def
00000000009099b3 00000100 T _Z19array_elt_at_offsetP9tree_nodelPlS1_
0000000000909b59 00000100 T _Z19gimple_simplify_194P15gimple_match_opPP6gimplePFP9tree_nodeS5_ES5_PS5_9tree_code
0000000000909c59 00000216 T _Z13gen_split_250P8rtx_insnPP7rtx_def
0000000000909e6f 00000054 T _Z12gen_iorv2qi3P7rtx_defS0_S0_
0000000000909ec3 000001ff T _Z20generic_simplify_243jP9tree_nodeS0_S0_PS0_9tree_code
000000000090a0c2 00000151 T _Z13gen_split_922P8rtx_insnPP7rtx_def
000000000090a23f 00000359 T _Z19gimple_simplify_290P15gimple_match_opPP6gimplePFP9tree_nodeS5_ES5_PS5_9tree_code11combined_fn
000000000090a598 00000155 T _Z17gen_peephole2_297P8rtx_insnPP7rtx_def
000000000090a6ed 00000054 T _Z12gen_andv2qi3P7rtx_defS0_S0_
000000000090a741 00000151 T _Z13gen_split_921P8rtx_insnPP7rtx_def
000000000090a892 0000004d T _Z10gen_addsf3P7rtx_defS0_S0_
000000000090a8df 00000181 T _Z19gimple_simplify_276P15gimple_match_opPP6gimplePFP9tree_nodeS5_ES5_PS5_9tree_codeS9_
000000000090aa60 0000004f T _Z38gt_ggc_mx_hash_table_loop_exit_hasher_Pv
000000000090aaaf 0000004d T _Z12gen_subv2hi3P7rtx_defS0_S0_
000000000090aafc 00000041 T _Z19gen_movmisalignv2dfP7rtx_defS0_
000000000090ab3d 0000009f T _Z14gen_split_2993P8rtx_insnPP7rtx_def
000000000090abdc 00000159 T _Z17gen_peephole2_306P8rtx_insnPP7rtx_def
000000000090ad35 0000010b T _Z12gen_split_73P8rtx_insnPP7rtx_def
000000000090ae40 0000018e T _Z21gen_vec_cmpeqv2div2diP7rtx_defS0_S0_S0_
000000000090afce 0000007a T _Z17gen_one_cmplv2si2P7rtx_defS0_
000000000090b048 0000004d T _Z12gen_andv2si3P7rtx_defS0_S0_
000000000090b095 0000000b T _Z17assign_stack_temp12machine_mode8poly_intILj1ElE
000000000090b0a0 0000015a T _Z19gimple_simplify_238P15gimple_match_opPP6gimplePFP9tree_nodeS5_ES5_PS5_
000000000090b1fa 000001f3 T _Z18gimple_simplify_26P15gimple_match_opPP6gimplePFP9tree_nodeS5_ES5_PS5_
000000000090b3ed 000001b2 T _Z13gen_split_690P8rtx_insnPP7rtx_def
000000000090b655 000000d3 T _Z13gen_split_567P8rtx_insnPP7rtx_def
000000000090b728 000000ee T _Z13gen_split_641P8rtx_insnPP7rtx_def
000000000090b845 0000005e T _Z10gen_subti3P7rtx_defS0_S0_
000000000090b8a3 00000066 T _Z21fold_read_from_vectorP9tree_node8poly_intILj1EmE
000000000090b909 000000ed T _Z13gen_split_147P8rtx_insnPP7rtx_def
000000000090ba09 000000df T _Z19gimple_simplify_138P15gimple_match_opPP6gimplePFP9tree_nodeS5_ES5_PS5_9tree_codeS9_
000000000090bb06 0000025e T _Z13gen_split_165P8rtx_insnPP7rtx_def
000000000090bd64 00000041 T _Z22vec_setm_sse41_operandP7rtx_def12machine_mode
000000000090bda5 00000009 T _Z15gen_vec_setv2diP7rtx_defS0_S0_
000000000090bdae 00000089 T _Z11gen_uminhi3P7rtx_defS0_S0_
000000000090be37 00000172 T _Z13gen_split_822P8rtx_insnPP7rtx_def
000000000090bfa9 000000db T _Z20generic_simplify_389jP9tree_nodeS0_S0_PS0_
000000000090c084 00000089 T _Z11gen_smaxqi3P7rtx_defS0_S0_
000000000090c458 0000018e T _Z13gen_split_815P8rtx_insnPP7rtx_def
000000000090c5e6 000000a7 T _Z17gen_peephole2_212P8rtx_insnPP7rtx_def
000000000090c68d 000001a8 T _Z13gen_split_699P8rtx_insnPP7rtx_def
000000000090c835 00000085 T _Z19gimple_simplify_490P15gimple_match_opPP6gimplePFP9tree_nodeS5_ES5_PS5_
000000000090c9d4 00000159 T _Z17gen_peephole2_303P8rtx_insnPP7rtx_def
000000000090cc3c 00000371 T _ZN16c_pretty_printer16unary_expressionEP9tree_node
000000000090d983 00000063 T _Z20pp_c_cast_expressionP16c_pretty_printerP9tree_node
000000000090d9e6 0000003e T _Z37gt_ggc_mx_vec_ipa_argagg_value_va_gc_Pv
000000000090da2c 000001b2 T _Z13gen_split_689P8rtx_insnPP7rtx_def
000000000090dbde 000001b6 T _Z13gen_split_199P8rtx_insnPP7rtx_def
000000000090df7a 0000025b T _Z18gimple_simplify_35P15gimple_match_opPP6gimplePFP9tree_nodeS5_ES5_PS5_9tree_code
000000000090e1d5 000001af T _Z13gen_split_541P8rtx_insnPP7rtx_def
000000000090e384 000000f6 T _Z14gen_x86_shld_1P7rtx_defS0_S0_S0_
000000000090e47a 000000a4 T _Z10gen_extvsiP7rtx_defS0_S0_S0_
000000000090e51e 00000151 T _Z17gen_peephole2_307P8rtx_insnPP7rtx_def
000000000090e66f 0000009f T _Z13gen_split_312P8rtx_insnPP7rtx_def
000000000090e70e 00000089 T _Z11gen_smaxhi3P7rtx_defS0_S0_
000000000090e797 00000187 T _Z13gen_split_819P8rtx_insnPP7rtx_def
000000000090e91e 00000019 T _Z8pp_c_dotP16c_pretty_printer
000000000090e937 00000084 T _Z17gen_peephole2_208P8rtx_insnPP7rtx_def
000000000090e9e4 0000004d T _Z12gen_addv2hi3P7rtx_defS0_S0_
000000000090ea31 00000009 T _Z21gen_vec_extractv2hihiP7rtx_defS0_S0_
000000000090ea3a 00000017 T _Z27register_sse4nonimm_operandP7rtx_def12machine_mode
000000000090ea51 000000c3 T _Z19gimple_simplify_267P15gimple_match_opPP6gimplePFP9tree_nodeS5_ES5_PS5_9tree_code
000000000090eb14 000000d7 T _Z19gimple_simplify_224P15gimple_match_opPP6gimplePFP9tree_nodeS5_ES5_PS5_9tree_codeS9_S9_
000000000090ee4a 00000163 T _Z17gen_peephole2_155P8rtx_insnPP7rtx_def
000000000090efb4 000000d3 T _Z13gen_split_546P8rtx_insnPP7rtx_def
000000000090f096 00000052 T _Z10gen_neghi2P7rtx_defS0_
000000000090f0e8 00000163 T _Z17gen_peephole2_154P8rtx_insnPP7rtx_def
000000000090f33c 00000294 T _Z19gimple_simplify_371P15gimple_match_opPP6gimplePFP9tree_nodeS5_ES5_PS5_
000000000090f5d0 00000163 T _Z13gen_split_386P8rtx_insnPP7rtx_def
000000000090f83c 00000129 T _Z13gen_split_742P8rtx_insnPP7rtx_def
000000000090fa0d 000001b6 T _Z13gen_split_198P8rtx_insnPP7rtx_def
000000000090fbc3 0000009f T _Z13gen_split_309P8rtx_insnPP7rtx_def
000000000090fea8 000001e8 T _Z23spill_hard_reg_in_rangei9reg_classP8rtx_insnS1_
0000000000910090 00000159 T _Z17gen_peephole2_304P8rtx_insnPP7rtx_def
00000000009101e9 00000026 T _Z9gt_ggc_mxR20die_arg_entry_struct
000000000091020f 0000003f T _Z7op_prioPK9tree_node
0000000000910602 00000042 T _Z18pp_tree_identifierP14pretty_printerP9tree_node
00000000009106e4 000000df T _Z19move_block_from_regiP7rtx_defi
00000000009107c3 00000122 T _Z19gimple_simplify_218P15gimple_match_opPP6gimplePFP9tree_nodeS5_ES5_PS5_9tree_code
0000000000910b54 0000029a T _Z18gimple_simplify_69P15gimple_match_opPP6gimplePFP9tree_nodeS5_ES5_PS5_
0000000000910dee 00000053 T _ZN16vec_perm_indices13rotate_inputsEi
0000000000910e41 0000006c T _Z19gen_vec_cmpv2siv2siP7rtx_defS0_S0_S0_
0000000000910ead 00000009 T _Z13gen_ashrv2si3P7rtx_defS0_S0_
0000000000910eb6 00000051 T _Z20vec_setm_mmx_operandP7rtx_def12machine_mode
0000000000910f07 00000009 T _Z15gen_vec_setv2siP7rtx_defS0_S0_
0000000000910f10 00000154 T _Z13gen_split_703P8rtx_insnPP7rtx_def
0000000000911064 00000089 T _Z12gen_addv2qi3P7rtx_defS0_S0_
00000000009110ed 00000089 T _Z13gen_ashlv2qi3P7rtx_defS0_S0_
0000000000911176 000002c3 T _Z13gen_split_893P8rtx_insnPP7rtx_def
0000000000911487 000000e8 T _Z13gen_split_891P8rtx_insnPP7rtx_def
0000000000911825 000000c8 T _Z16gen_peephole2_17P8rtx_insnPP7rtx_def
00000000009118ed 000000ec T _Z19generic_simplify_17jP9tree_nodeS0_S0_PS0_
00000000009119d9 00000089 T _Z10gen_mulqi3P7rtx_defS0_S0_
0000000000911a62 000000ef T _Z13gen_split_623P8rtx_insnPP7rtx_def
0000000000911b51 00000081 T _Z10gen_andti3P7rtx_defS0_S0_
0000000000911bd2 0000038c T _Z24expand_doubleword_divmod12machine_modeP7rtx_defS1_PS1_b
0000000000911f5e 00000078 T _Z17swap_optab_enable9optab_tag12machine_modeb
0000000000912171 0000006c T _Z19gen_vec_cmpv4siv4siP7rtx_defS0_S0_S0_
0000000000912222 000000c1 T _Z29initializer_each_zero_or_onepPK9tree_node
00000000009122f8 0000000a T _Z27c_get_sarif_source_languagePKc
00000000009123e6 00000049 T _Z19gt_pch_p_9lang_typePvS_PFvS_S_S_ES_
000000000091242f 00000033 T _Z28gt_pch_p_17language_functionPvS_PFvS_S_S_ES_
0000000000912462 00000054 T _Z23gt_pch_p_12c_label_varsPvS_PFvS_S_S_ES_
00000000009124b6 00000054 T _Z19gt_pch_p_9c_bindingPvS_PFvS_S_S_ES_
000000000091250a 00000054 T _Z17gt_pch_p_7c_scopePvS_PFvS_S_S_ES_
000000000091255e 00000034 T _Z26gt_pch_p_15c_goto_bindingsPvS_PFvS_S_S_ES_
0000000000912592 0000003f T _Z26gt_pch_p_15c_inline_staticPvS_PFvS_S_S_ES_
00000000009125d1 0000001a T _Z38gt_pch_p_27hash_table_c_struct_hasher_PvS_PFvS_S_S_ES_
00000000009125eb 0000003f T _Z27hashtab_entry_note_pointersI15c_struct_hasherEvPvS1_PFvS1_S1_S1_ES1_
000000000091262a 00000048 T _Z29gt_pch_p_18sorted_fields_typePvS_PFvS_S_S_ES_
0000000000912672 00000005 T _Z46gt_pch_p_35vec_c_omp_begin_assumes_data_va_gc_PvS_PFvS_S_S_ES_
0000000000912677 00000005 T _Z19gt_pch_p_9lang_declPvS_PFvS_S_S_ES_
000000000091267c 00000040 T _Z29gt_pch_p_18vec_c_token_va_gc_PvS_PFvS_S_S_ES_
00000000009126bc 0000003c T _Z39gt_pch_p_28vec_c_goto_bindings_p_va_gc_PvS_PFvS_S_S_ES_
00000000009126f8 00000005 T _Z47gt_pch_p_36vec_c_omp_declare_target_attr_va_gc_PvS_PFvS_S_S_ES_
0000000000912811 0000001a T _Z8finalizeI10hash_tableI15c_struct_hasherLb0E11xcallocatorEEvPv
000000000091283a 00000005 T _Z22objc_check_global_declP9tree_node
000000000091283f 00000005 T _Z20objc_volatilize_declP9tree_node
0000000000912844 00000005 T _Z18objc_declare_classP9tree_node
0000000000912849 00000005 T _Z21objc_declare_protocolP9tree_nodeS0_
000000000091284e 00000005 T _Z19objc_set_method_optb
0000000000912853 00000005 T _Z26objc_start_class_interfaceP9tree_nodejS0_S0_S0_
0000000000912858 00000005 T _Z21objc_finish_interfacev
000000000091285d 00000005 T _Z26objc_add_instance_variableP9tree_node
0000000000912862 00000005 T _Z31objc_start_class_implementationP9tree_nodeS0_
0000000000912867 00000005 T _Z34objc_start_category_implementationP9tree_nodeS0_
000000000091286c 00000005 T _Z28objc_continue_implementationv
0000000000912871 00000005 T _Z27objc_add_method_declarationbP9tree_nodeS0_
0000000000912876 00000007 T _Z28objc_start_method_definitionbP9tree_nodeS0_S0_
000000000091287d 00000005 T _Z29objc_finish_method_definitionP9tree_node
0000000000912882 00000007 T _Z16objc_method_decl9tree_code
000000000091288a 00000007 T _ZNK3ana6svalue22maybe_fold_bits_withinEP9tree_nodeRKNS_9bit_rangeEPNS_20region_model_managerE
0000000000912891 00000007 T _Z27objc_build_method_signaturebP9tree_nodeS0_S0_b
0000000000912898 00000007 T _Z24objc_build_selector_exprjP9tree_node
000000000091289f 00000007 T _Z23objc_build_message_exprP9tree_nodeS0_
00000000009128a6 00000007 T _Z28objc_detect_field_duplicatesb
00000000009128ad 00000007 T _Z32objc_get_protocol_qualified_typeP9tree_nodeS0_
00000000009128b4 00000005 T _Z29objc_add_property_declarationjP9tree_nodeR3vecIP23property_attribute_info7va_heap6vl_ptrE
00000000009128b9 00000007 T _Z30objc_maybe_build_component_refP9tree_nodeS0_
00000000009128c0 00000007 T _Z30objc_build_class_component_refP9tree_nodeS0_
00000000009128c7 00000007 T _Z28objc_maybe_build_modify_exprP9tree_nodeS0_
00000000009128ce 00000007 T _Z37objc_build_incr_expr_for_property_refj9tree_codeP9tree_nodeS1_
00000000009128d5 00000005 T _Z28objc_add_dynamic_declarationjP9tree_node
00000000009128da 00000007 T _Z21objc_build_throw_stmtjP9tree_node
00000000009128e1 00000007 T _Z23objc_build_synchronizedjP9tree_nodeS0_
00000000009128e8 00000005 T _Z19objc_begin_try_stmtjP9tree_node
00000000009128ed 00000005 T _Z23objc_begin_catch_clauseP9tree_node
00000000009128f2 00000005 T _Z25objc_build_finally_clausejP9tree_node
00000000009128f7 00000007 T _Z27objc_generate_write_barrierP9tree_node9tree_codeS0_
00000000009128fe 00000005 T _Z24objc_finish_foreach_loopjP9tree_nodeS0_S0_S0_S0_
0000000000912903 00000005 T _Z21objc_check_format_argP9tree_nodeS0_
0000000000912908 00000005 T _Z26objc_maybe_warn_exceptionsj
000000000091290d 00000007 T _Z27objc_prop_attr_kind_for_rid3rid
0000000000912914 0000001e T _Z18register_attributePK14attribute_spec
0000000000912932 00000040 T _ZNK11attr_access10vla_boundsEPj
0000000000912972 0000001e T _ZN15c_struct_hasher4hashEP9tree_node
0000000000912990 00000010 T _Z40c_mark_decl_jump_unsafe_in_current_scopev
00000000009129a0 0000000c T _Z22objc_get_current_scopev
00000000009129ac 00000005 T _Z25objc_mark_locals_volatilePv
00000000009129b1 00000010 T _Z25set_float_const_decimal64v
00000000009129c1 00000010 T _Z27clear_float_const_decimal64v
00000000009129d1 00000009 T _Z9c_pushtagjP9tree_nodeS0_
00000000009129da 00000093 T _Z6c_bindjP9tree_nodeb
0000000000912a6d 00000029 T _Z21identifier_global_tagP9tree_node
0000000000912a96 0000008e T _Z20c_omp_reduction_declP9tree_node
0000000000912b24 0000002f T _Z24c_check_in_current_scopeP9tree_node
0000000000912b53 00000005 T _Z9gt_ggc_mxR15c_struct_hasher
0000000000912b58 00000005 T _Z9gt_ggc_mxR25c_omp_declare_target_attr
0000000000912b5d 00000005 T _Z9gt_ggc_mxR24c_omp_begin_assumes_data
0000000000912b62 00000005 T _Z9gt_pch_nxR15c_struct_hasher
0000000000912b67 00000005 T _Z9gt_pch_nxR25c_omp_declare_target_attr
0000000000912b6c 00000005 T _Z9gt_pch_nxR24c_omp_begin_assumes_data
0000000000912b71 0000000f T _Z9gt_pch_nxP7c_tokenPFvPvS1_S1_ES1_
0000000000912b80 00000005 T _Z9gt_pch_nxP15c_struct_hasherPFvPvS1_S1_ES1_
0000000000912b85 00000005 T _Z9gt_pch_nxP25c_omp_declare_target_attrPFvPvS1_S1_ES1_
0000000000912b8a 00000005 T _Z9gt_pch_nxP24c_omp_begin_assumes_dataPFvPvS1_S1_ES1_
0000000000912c23 00000027 T _Z16comptypes_same_pP9tree_nodeS0_
0000000000912c4a 00000021 T _Z17comptypes_equiv_pP9tree_nodeS0_
0000000000912c6c 00000006 T _ZN15c_struct_hasher5equalEP9tree_nodeS1_
0000000000912c72 0000000d T _Z15c_decl_implicitPK9tree_node
0000000000912cf3 00000010 T _Z19c_parser_tokens_bufP8c_parserj
0000000000912d03 0000000b T _Z14c_parser_errorP8c_parser
0000000000912d0e 00000017 T _Z18c_parser_set_errorP8c_parserb
0000000000912d25 00000065 T _Z27is_function_default_versionP9tree_node
0000000000912d9f 00000045 T _Z11c_tree_size9tree_code
0000000000912de4 000000f3 T _Z26finish_underspecified_initP9tree_nodej
0000000000912f2d 000000bd T _Z27c_parser_peek_nth_token_rawP8c_parserj
00000000009130a0 00000036 T _Z27gt_ggc_mx_language_functionPv
00000000009130d7 00000009 T _Z19gt_ggc_mx_lang_declPv
00000000009130e0 00000009 T _Z46gt_ggc_mx_vec_c_omp_declare_target_attr_va_gc_Pv
00000000009130e9 0000002e T _Z15gt_clear_cachesv
0000000000913117 00000027 T _Z26any_nonignored_attribute_pP9tree_node
000000000091313e 00000057 T _Z8grokparmPK6c_parmPP9tree_node
0000000000913195 00000025 T _Z13apply_tm_attrP9tree_nodeS0_
00000000009131ba 00000046 T _Z14make_attributePKcS0_P9tree_node
0000000000913200 00000137 T _Z18c_omp_reduction_id9tree_codeP9tree_node
0000000000913337 000001f0 T _Z18sorted_attr_stringP9tree_node
0000000000913527 00000028 T _Z20resort_sorted_fieldsPvS_PFvS_S_S_ES_
000000000091354f 0000007d T _Z20make_dispatcher_declP9tree_node
0000000000913624 00000093 T _Z13declare_labelP9tree_node
0000000000913743 00000112 T _Z18c_print_identifierP8_IO_FILEP9tree_nodei
0000000000913855 00000051 T _Z20record_inline_staticjP9tree_nodeS0_20c_inline_static_type
00000000009138a6 000000a5 T _Z25start_underspecified_initjP9tree_node
000000000091394b 00000092 T _Z31c_check_omp_declare_reduction_rPP9tree_nodePiPv
00000000009139dd 000000c4 T _Z23c_incomplete_type_errorjPK9tree_nodeS1_
0000000000913b4b 00000053 T _Z22c_omp_reduction_lookupP9tree_nodeS0_
0000000000913c50 00000088 T _Z23mark_forward_parm_declsv
0000000000913cd8 0000002d T _Z32c_simulate_builtin_function_declP9tree_node
0000000000913d05 000000ab T _Z19temp_pop_parm_declsv
0000000000913de1 00000031 T _Z20c_finish_transactionjP9tree_nodei
0000000000913e12 00000045 T _Z21temp_store_parm_declsP9tree_nodeS0_
0000000000913e57 0000005e T _Z12push_cleanupP9tree_nodeS0_b
0000000000913eb5 0000001e T _Z20c_begin_omp_parallelv
0000000000913ed3 00000006 T _Z16c_begin_omp_taskv
0000000000913ff0 00000030 T _Z8xref_tag9tree_codeP9tree_node
000000000091414b 000000e9 T _Z20c_simulate_enum_decljPKcP3vecISt4pairIS0_iE7va_heap6vl_ptrE
0000000000914234 000000ca T _Z22c_simulate_record_decljPKc11array_sliceIKP9tree_nodeE
00000000009142fe 00000010 T _Z21store_parm_decls_fromP10c_arg_info
000000000091430e 000000ad T _Z23c_push_function_contextv
00000000009143bb 000000a8 T _Z22c_pop_function_contextv
0000000000914463 00000009 T _Z18c_linkage_bindingsP9tree_node
000000000091446c 0000005c T _Z23declspecs_add_addrspacejP11c_declspecsh
00000000009144c8 0000003a T _Z21declspecs_add_alignasjP11c_declspecsP9tree_node
000000000091454b 00000b0b T _Z25gt_pch_p_14lang_tree_nodePvS_PFvS_S_S_ES_
0000000000915056 0000004f T _Z37gt_ggc_mx_hash_table_c_struct_hasher_Pv
00000000009150ca 00000e4d T _Z24gt_ggc_mx_lang_tree_nodePv
0000000000915f17 00000013 T _Z9gt_ggc_mxR7c_token
0000000000915f2a 00000039 T _Z28gt_ggc_mx_vec_c_token_va_gc_Pv
0000000000915f63 00000076 T _Z17gt_ggc_mx_c_scopePv
0000000000915fd9 00000037 T _Z25gt_ggc_mx_c_goto_bindingsPv
0000000000916010 0000003a T _Z38gt_ggc_mx_vec_c_goto_bindings_p_va_gc_Pv
000000000091604a 00000060 T _Z22gt_ggc_mx_c_label_varsPv
00000000009160aa 0000008f T _Z19gt_ggc_mx_c_bindingPv
0000000000916139 00000012 T _Z9gt_ggc_mxRP15c_goto_bindings
000000000091614b 0000005c T _Z25gt_ggc_mx_c_inline_staticPv
00000000009161a7 0000003e T _Z28gt_ggc_mx_sorted_fields_typePv
00000000009161e5 00000052 T _Z19gt_ggc_mx_lang_typePv
0000000000916237 00000015 T _Z19gt_pch_nx_lang_declPv
000000000091624c 0000003b T _Z27gt_pch_nx_language_functionPv
0000000000916287 00000015 T _Z46gt_pch_nx_vec_c_omp_declare_target_attr_va_gc_Pv
000000000091629c 00000015 T _Z45gt_pch_nx_vec_c_omp_begin_assumes_data_va_gc_Pv
00000000009162b1 00000056 T _Z37gt_pch_nx_hash_table_c_struct_hasher_Pv
000000000091632c 00000ec8 T _Z24gt_pch_nx_lang_tree_nodePv
00000000009171f4 00000013 T _Z9gt_pch_nxR7c_token
0000000000917207 0000003e T _Z28gt_pch_nx_vec_c_token_va_gc_Pv
0000000000917245 0000007c T _Z17gt_pch_nx_c_scopePv
00000000009172c1 0000003c T _Z25gt_pch_nx_c_goto_bindingsPv
00000000009172fd 0000003f T _Z38gt_pch_nx_vec_c_goto_bindings_p_va_gc_Pv
000000000091733c 00000065 T _Z22gt_pch_nx_c_label_varsPv
00000000009173a1 00000095 T _Z19gt_pch_nx_c_bindingPv
0000000000917436 00000012 T _Z9gt_pch_nxRP15c_goto_bindings
0000000000917448 00000062 T _Z25gt_pch_nx_c_inline_staticPv
00000000009174aa 00000043 T _Z28gt_pch_nx_sorted_fields_typePv
00000000009174ed 00000067 T _Z19gt_pch_nx_lang_typePv
00000000009175b6 00000181 T _Z23build_omp_array_sectionjP9tree_nodeS0_S0_
0000000000917737 0000008d T _Z19build_function_calljP9tree_nodeS0_
00000000009177c4 00000050 T _Z22c_finish_omp_constructj9tree_codeP9tree_nodeS1_
0000000000917814 00000049 T _Z18c_finish_oacc_datajP9tree_nodeS0_
000000000091785d 00000049 T _Z23c_finish_oacc_host_datajP9tree_nodeS0_
00000000009178a6 00000049 T _Z21c_finish_omp_paralleljP9tree_nodeS0_
00000000009178ef 00000049 T _Z17c_finish_omp_taskjP9tree_nodeS0_
000000000091908e 0000027d T _Z14set_init_indexjP9tree_nodeS0_P7obstack
0000000000919a3a 000000aa T _Z17c_finish_goto_ptrj6c_expr
0000000000919ae4 00000176 T _Z19c_finish_omp_canceljP9tree_node
0000000000919c5a 000000ac T _Z31c_finish_omp_cancellation_pointjP9tree_node
000000000091a6f9 00000199 T _Z22c_omp_clause_copy_ctorP9tree_nodeS0_S0_
000000000091a89c 00000528 T _Z12c_tree_equalP9tree_nodeS0_
000000000091bc63 00000040 T _Z25pragma_lex_discard_to_eolv
000000000091daba 00000261 T _Z22c_maybe_parse_omp_declP9tree_nodeS0_
0000000000924503 000001b6 T _Z27maybe_diag_alias_attributesP9tree_nodeS0_
00000000009247f7 000001e1 T _Z11pedwarn_c11jiPKcz
00000000009249d8 00000161 T _Z20check_for_loop_declsjb
0000000000925806 0000027f T _Z18implicitly_declarejP9tree_node
0000000000925b69 00002ad4 T _Z20c_finish_omp_clausesP9tree_node17c_omp_region_type
000000000092ee2c 0000007d T _ZNK29range_label_for_type_mismatch8get_textEj
000000000092eeaa 00000081 T _Z18gt_pch_p_8c_parserPvS_PFvS_S_S_ES_
000000000092ef2b 0000003c T _Z34gt_pch_p_23vec_const_char_p_va_gc_PvS_PFvS_S_S_ES_
000000000092ef67 0000003c T _Z33gt_pch_p_22vec_tree_gc_vec_va_gc_PvS_PFvS_S_S_ES_
000000000092f0cb 00000007 T _Z23default_handle_c_optionmPKci
000000000092f0d7 00000034 T _Z22gt_pch_p_11align_stackPvS_PFvS_S_S_ES_
000000000092f1da 0000001a T _Z39gt_pch_p_28hash_map_alias_set_hash_int_PvS_PFvS_S_S_ES_
000000000092f1f4 00000005 T _Z27hashtab_entry_note_pointersIN8hash_mapI14alias_set_hashi21simple_hashmap_traitsI19default_hash_traitsIS1_EiEE10hash_entryEEvPvS8_PFvS8_S8_S8_ES8_
000000000092f1f9 00000018 T _Z26gt_pch_p_15alias_set_entryPvS_PFvS_S_S_ES_
000000000092f211 0000003c T _Z38gt_pch_p_27vec_alias_set_entry__va_gc_PvS_PFvS_S_S_ES_
000000000092f2f9 0000001a T _Z8finalizeI8hash_mapI14alias_set_hashi21simple_hashmap_traitsI19default_hash_traitsIS1_EiEEEvPv
000000000092f4dd 00000009 T _Z19gt_pch_p_9opt_stackPvS_PFvS_S_S_ES_
000000000092f54e 00000029 T _ZN13gimple_parser9push_edgeEiii19profile_probability
000000000092f577 0000001c T _Z21builtin_type_for_sizeib
000000000092f5c5 00000065 T _Z29keyword_begins_type_specifier3rid
000000000092f62a 00000027 T _Z26excess_precision_mode_join15flt_eval_methodS_
000000000092f651 00000012 T _Z9gt_ggc_mxRP3vecIP9tree_node5va_gc8vl_embedE
000000000092f663 00000012 T _Z9gt_pch_nxRP3vecIP9tree_node5va_gc8vl_embedE
000000000092f676 00000008 T _ZN12flag_chars_tC2Ev
000000000092f67e 00000016 T _ZNK12flag_chars_t10has_char_pEc
000000000092f694 0000008f T _ZN15argument_parserC2EP20function_format_infoRPKcP9tree_nodeS3_jR12flag_chars_tRiS6_R16object_allocatorI18format_wanted_typeEP3vecIj7va_heap6vl_ptrE
000000000092f723 00000026 T _Z15expr_loc_or_locPK9tree_nodej
000000000092f749 0000011e T _Z25c_omp_predefined_variableP9tree_node
000000000092f867 00000030 T _Z27c_omp_predetermined_sharingP9tree_node
000000000092f897 00000033 T _Z27c_omp_predetermined_mappingP9tree_node
000000000092f8ca 0000002d T _ZN23c_omp_address_inspector19maybe_unconvert_refEP9tree_node
000000000092f8f8 00000045 T _ZN23c_omp_address_inspector31maybe_zero_length_array_sectionEP9tree_node
000000000092f93d 0000009a T _Z26c_omp_categorize_directivePKcS0_S0_
000000000092f9d7 0000003d T _Z27c_register_pragma_with_dataPKcS0_PFvP10cpp_readerPvES3_
000000000092fa14 00000040 T _Z41c_register_pragma_with_expansion_and_dataPKcS0_PFvP10cpp_readerPvES3_
000000000092fa56 00000009 T _Z9gt_ggc_mxR20pending_redefinition
000000000092fa5f 00000026 T _Z9gt_pch_nxR12pending_weak
000000000092fa85 00000006 T _Z9gt_pch_nxR20pending_redefinition
000000000092fa8b 00000027 T _Z9gt_pch_nxP12pending_weakPFvPvS1_S1_ES1_
000000000092fab2 00000043 T _Z34gt_pch_p_23vec_pending_weak_va_gc_PvS_PFvS_S_S_ES_
000000000092faf5 00000043 T _Z42gt_pch_p_31vec_pending_redefinition_va_gc_PvS_PFvS_S_S_ES_
000000000092fb38 00000009 T _Z9gt_pch_nxP20pending_redefinitionPFvPvS1_S1_ES1_
0000000000930114 00000090 T _Z18collect_source_refPKc
00000000009301a4 00000034 T _Z30ubsan_array_ref_instrumented_pPK9tree_node
00000000009301d8 0000000b T _Z41get_c_stdlib_header_for_string_macro_namePKc
00000000009301e3 0000000e T _Z42get_cp_stdlib_header_for_string_macro_namePKc
00000000009301f1 0000006f T _Z21debug_print_page_listi
0000000000930260 0000000c T _Z9gt_ggc_mxRPKc
000000000093026c 00000006 T _Z9gt_ggc_mxRPc
0000000000930272 00000006 T _Z9gt_ggc_mxRPh
0000000000930278 00000005 T _Z9gt_ggc_mxRh
000000000093027d 00000013 T _Z12init_ggc_pchv
0000000000930290 00000031 T _Z20ggc_pch_count_objectP12ggc_pch_dataPvm
00000000009302c1 0000003b T _Z18ggc_pch_total_sizeP12ggc_pch_data
00000000009302fc 0000003e T _Z17ggc_pch_this_baseP12ggc_pch_dataPv
000000000093033a 00000048 T _Z20ggc_pch_alloc_objectP12ggc_pch_dataPvm
0000000000930382 00000005 T _Z21ggc_pch_prepare_writeP12ggc_pch_dataP8_IO_FILE
0000000000930387 00000013 T _Z18get_reg_base_valuej
000000000093039a 00000037 T _Z21get_reg_known_equiv_pj
00000000009303d1 0000006b T _Z27dump_alias_stats_in_alias_cP8_IO_FILE
000000000093043c 00000005 T _Z9gt_ggc_mxR14alias_set_hash
0000000000930441 00000005 T _Z9gt_pch_nxR14alias_set_hash
0000000000930446 00000005 T _Z9gt_pch_nxP14alias_set_hashPFvPvS1_S1_ES1_
000000000093044b 00000052 T _Z24bitmap_intersect_compl_pPK11bitmap_headS1_
000000000093049d 000000c3 T _Z21debug_bitmap_elt_fileP8_IO_FILEPK14bitmap_element
0000000000930560 000000ab T _Z17debug_bitmap_fileP8_IO_FILEPK11bitmap_head
000000000093060b 00000013 T _Z12debug_bitmapPK11bitmap_head
000000000093061e 0000017e T _Z12bitmap_printP8_IO_FILEPK11bitmap_headPKcS5_
000000000093079c 0000001d T _Z5debugRK11bitmap_head
00000000009307b9 0000001c T _Z5debugPK11bitmap_head
00000000009307d5 00000006 T _Z5debugRK11auto_bitmap
00000000009307db 00000006 T _Z5debugPK11auto_bitmap
00000000009307e2 00000006 T _ZN11bitmap_head4dumpEv
00000000009308cf 0000000e T _Z18called_as_built_inP9tree_node
00000000009308dd 0000008f T _Z13type_to_classP9tree_node
000000000093096c 0000000b T _Z24mathfn_built_in_explicitP9tree_node11combined_fn
0000000000930977 0000061c T _Z20mathfn_built_in_type11combined_fn
0000000000930f93 0000000c T _Z25std_build_builtin_va_listv
0000000000930f9f 0000000c T _Z18std_fn_abi_va_listP9tree_node
0000000000930fab 0000003a T _Z26std_canonical_va_list_typeP9tree_node
000000000093101d 00000048 T _Z24disable_builtin_functionPKc
000000000093108c 00000028 T _Z25constant_expression_errorP9tree_node
00000000009310b4 00000063 T _ZN23c_omp_address_inspector10get_originEP9tree_node
0000000000931118 0000001a T _ZN23c_omp_address_inspector22unconverted_ref_originEv
0000000000931132 000000a0 T _ZN23c_omp_address_inspector15map_supported_pEv
00000000009311d2 00000025 T _ZN23c_omp_address_inspector18component_access_pEv
00000000009311f7 0000008b T _Z24cb_get_source_date_epochP10cpp_reader
0000000000931488 000000a7 T _ZN23c_omp_address_inspector13get_root_termEb
0000000000931a81 0000003c T _Z19c_finish_omp_maskedjP9tree_nodeS0_
0000000000931abd 0000003c T _Z22c_finish_omp_taskgroupjP9tree_nodeS0_
0000000000931d22 0000001e T _Z20c_finish_omp_barrierj
0000000000931d40 0000001e T _Z21c_finish_omp_taskwaitj
0000000000931d5e 0000001e T _Z22c_finish_omp_taskyieldj
0000000000932200 00000042 T _Z23warn_for_omitted_condopjP9tree_node
0000000000932953 0000006c T _Z18gt_ggc_mx_c_parserPv
00000000009329bf 0000003a T _Z32gt_ggc_mx_vec_tree_gc_vec_va_gc_Pv
00000000009329f9 00000071 T _Z18gt_pch_nx_c_parserPv
0000000000932a6a 0000003f T _Z32gt_pch_nx_vec_tree_gc_vec_va_gc_Pv
0000000000932af8 00000039 T _Z21gt_pch_nx_align_stackPv
0000000000932b31 0000003e T _Z33gt_pch_nx_vec_pending_weak_va_gc_Pv
0000000000932b6f 0000003e T _Z41gt_pch_nx_vec_pending_redefinition_va_gc_Pv
0000000000932bad 00000065 T _Z19gt_pch_nx_opt_stackPv
0000000000932c12 00000034 T _Z38gt_pch_nx_hash_map_alias_set_hash_int_Pv
0000000000932c46 0000002b T _Z25gt_pch_nx_alias_set_entryPv
0000000000932c71 0000000f T _Z9gt_pch_nxRP15alias_set_entry
0000000000932c80 0000003f T _Z37gt_pch_nx_vec_alias_set_entry__va_gc_Pv
0000000000932ce2 00000036 T _Z17c_addr_space_nameh
0000000000932d98 0000002a T _Z21guard_tinfo_to_string3rid
0000000000932dc2 00000035 T _Z34conflict_marker_get_final_tok_kind9cpp_ttype
0000000000932e13 000001fd T _Z30c_omp_check_loop_binding_exprsP9tree_nodeP3vecIS0_7va_heap6vl_ptrE
00000000009331d5 0000012e T _Z14readonly_errorjP9tree_node10lvalue_use
0000000000933303 00000064 T _Z12lvalue_errorj10lvalue_use
0000000000933367 000000ae T _Z25invalid_indirection_errorjP9tree_node12ref_operator
0000000000933415 00000068 T _Z19bitmap_last_set_bitPK11bitmap_head
000000000093347d 00000022 T _Z21get_attribute_operandP9tree_nodePm
0000000000933656 00000028 T _Z19c_finish_omp_masterjP9tree_node
000000000093367e 00000058 T _Z18c_finish_omp_flushji
00000000009336d6 000000a7 T _Z21add_no_sanitize_valueP9tree_nodej
00000000009355c5 00000272 T _Z32c_parser_gimple_or_rtl_pass_listP8c_parserP11c_declspecs
00000000009374f7 0000018c T _Z19c_build_vec_convertjP9tree_nodejS0_b
0000000000937725 000004d8 T _Z19unsafe_conversion_pP9tree_nodeS0_S0_b
0000000000937bfd 000001c3 T _Z16scalar_to_vectorj9tree_codeP9tree_nodeS1_b
0000000000937dc0 00000076 T _Z34c_common_fixed_point_type_for_sizejjii
0000000000937e36 000000d8 T _Z15binary_op_errorP13rich_location9tree_codeP9tree_nodeS3_
0000000000937f0e 00000148 T _Z14c_alignof_exprjP9tree_node
0000000000938056 0000007d T _Z25set_compound_literal_nameP9tree_node
00000000009380d3 0000005b T _Z15tm_mask_to_attri
000000000093812e 0000006c T _Z25finish_label_address_exprP9tree_nodej
000000000093861b 00000029 T _Z28handle_fallthrough_attributePP9tree_nodeS0_S0_iPb
0000000000938644 00000110 T _Z17boolean_increment9tree_codeP9tree_node
0000000000938f5d 00000477 T _Z22parse_optimize_optionsP9tree_nodeb
00000000009394c8 0000003f T _Z26make_tree_vector_from_listP9tree_node
0000000000939507 00000068 T _Z26make_tree_vector_from_ctorP9tree_node
000000000093956f 00000013 T _Z27cxx_fundamental_alignment_pj
0000000000939582 0000003a T _Z33gt_pch_nx_vec_const_char_p_va_gc_Pv
00000000009395bc 000000b2 T _Z17cb_get_suggestionP10cpp_readerPKcPKS2_
0000000000939ab3 000002b5 T _Z30c_cpp_builtins_optimize_pragmaP10cpp_readerP9tree_nodeS2_
0000000000939f42 000000cb T _Z17collect_ada_nodesP9tree_nodePKc
000000000093a00d 0000010e T _Z11c_dump_treePvP9tree_node
000000000093a8f9 000000c4 T _Z20dump_time_statisticsv
000000000093b46a 0000010f T _Z18c_finish_oacc_waitjP9tree_nodeS0_
000000000093b579 0000009b T _Z21c_finish_omp_criticaljP9tree_nodeS0_S0_
000000000093b614 0000006d T _Z20c_finish_omp_orderedjP9tree_nodeS0_
000000000093b681 000000a8 T _Z25c_oacc_split_loop_clausesP9tree_nodePS0_b
000000000093b729 0000008b T _Z20build_real_imag_exprj9tree_codeP9tree_node
000000000093b7b4 0000109c T _Z19c_finish_omp_atomicj9tree_codeS_P9tree_nodeS1_S1_S1_S1_S1_b16omp_memory_orderbb
000000000093c8d7 000000f8 T _Z35c_omp_declare_simd_clauses_to_declsP9tree_nodeS0_
000000000093c9cf 000000a1 T _Z16c_omp_depend_t_pP9tree_node
000000000093ca70 000003eb T _Z19c_finish_omp_depobjjP9tree_node22omp_clause_depend_kindS0_
000000000093d00d 000000f6 T _Z32warn_duplicated_cond_add_or_warnjP9tree_nodePP3vecIS0_7va_heap6vl_ptrE
000000000093d103 00000882 T _Z16c_finish_omp_forj9tree_codeP9tree_nodeS1_S1_S1_S1_S1_S1_b
000000000093d985 00000e2c T _Z19c_omp_split_clausesj9tree_code16wide_int_bitmaskP9tree_nodePS2_
000000000093e7b1 000001ea T _Z24c_omp_adjust_map_clausesP9tree_nodeb
000000000093ebe2 000000df T _ZN23c_omp_address_inspector12check_clauseEP9tree_node
000000000093ee52 0000075e T _ZN23c_omp_address_inspector17expand_array_baseEP9tree_nodeR3vecIPN18omp_addr_tokenizer14omp_addr_tokenE7va_heap6vl_ptrES1_Pj17c_omp_region_type
000000000093f5b0 000002fb T _ZN23c_omp_address_inspector25expand_component_selectorEP9tree_nodeR3vecIPN18omp_addr_tokenizer14omp_addr_tokenE7va_heap6vl_ptrES1_Pj17c_omp_region_type
000000000093f8ac 00000236 T _ZN23c_omp_address_inspector17expand_map_clauseEP9tree_nodeS1_R3vecIPN18omp_addr_tokenizer14omp_addr_tokenE7va_heap6vl_ptrE17c_omp_region_type
000000000093fae2 0000014b T _Z37c_omp_declare_simd_clauses_to_numbersP9tree_nodeS0_
000000000093fee8 0000011c T _Z20ggc_pch_write_objectP12ggc_pch_dataP8_IO_FILEPvS3_m
0000000000940004 0000003a T _Z14ggc_pch_finishP12ggc_pch_dataP8_IO_FILE
000000000094003e 000003b4 T _Z12ggc_pch_readP8_IO_FILEPv
00000000009403f2 000000f7 T _Z18c_common_write_pchv
00000000009404e9 000002c3 T _Z18c_common_valid_pchP10cpp_readerPKci
00000000009407ac 00000155 T _Z17c_common_read_pchP10cpp_readerPKciS2_
0000000000940901 000000c4 T _Z19c_common_pch_pragmaP10cpp_readerPKc
0000000000940c50 0000009a T _Z13pp_dir_changeP10cpp_readerPKc
0000000000941585 00000103 T _Z27add_to_renaming_pragma_listP9tree_nodeS0_
0000000000941a99 00000019 T _Z15pp_c_left_braceP16c_pretty_printer
0000000000941ab2 00000019 T _Z16pp_c_right_braceP16c_pretty_printer
0000000000941acb 00000019 T _Z14pp_c_ampersandP16c_pretty_printer
0000000000941ae4 00000019 T _Z14pp_c_semicolonP16c_pretty_printer
0000000000941afd 00000019 T _Z16pp_c_exclamationP16c_pretty_printer
0000000000941b16 0000009e T _Z20pp_c_init_declaratorP16c_pretty_printerP9tree_node
0000000000941bb4 00000021 T _ZN16c_pretty_printer11declarationEP9tree_node
0000000000941bd6 00000068 T _ZN16c_pretty_printer21assignment_expressionEP9tree_node
0000000000941c3e 00000019 T _Z10pp_c_arrowP16c_pretty_printer
0000000000941cdb 00000050 T _Z19pp_c_string_literalP16c_pretty_printerP9tree_node
000000000094203a 0000003f T _Z31pp_c_space_for_pointer_operatorP16c_pretty_printerP9tree_node
000000000094207a 0000005c T _ZN16c_pretty_printer10declaratorEP9tree_node
00000000009420d6 000000e7 T _ZN16c_pretty_printer17direct_declaratorEP9tree_node
00000000009421bd 00000041 T _Z24pp_c_function_definitionP16c_pretty_printerP9tree_node
00000000009423c9 0000003e T _Z20pp_c_expression_listP16c_pretty_printerP9tree_node
0000000000942407 00000049 T _Z23pp_c_call_argument_listP16c_pretty_printerP9tree_node
0000000000942450 00000055 T _Z21pp_c_constructor_eltsP16c_pretty_printerP3vecI15constructor_elt5va_gc8vl_embedE
00000000009424a6 0000027e T _ZN16c_pretty_printer18primary_expressionEP9tree_node
000000000094292e 00000050 T _ZN16c_pretty_printer11initializerEP9tree_node
00000000009429fe 00000656 T _ZN16c_pretty_printer18postfix_expressionEP9tree_node
0000000000943054 000000a7 T _ZN16c_pretty_printer25multiplicative_expressionEP9tree_node
00000000009434ec 00000062 T _Z26pp_c_logical_or_expressionP16c_pretty_printerP9tree_node
000000000094354e 000000ac T _ZN16c_pretty_printer22conditional_expressionEP9tree_node
00000000009435fa 000002cd T _ZN16c_pretty_printer9statementEP9tree_node
000000000094668b 00000079 T _Z23ubsan_instrument_returnj
0000000000946704 0000010b T _Z20ubsan_instrument_vlajP9tree_node
000000000094680f 0000045f T _Z25ubsan_instrument_divisionjP9tree_nodeS0_
0000000000946c6e 0000072c T _Z22ubsan_instrument_shiftj9tree_codeP9tree_nodeS1_
00000000009473ef 0000025d T _Z23ubsan_instrument_boundsjP9tree_nodePS0_b
000000000094764c 0000009f T _Z32ubsan_maybe_instrument_array_refPP9tree_nodeb
0000000000947a85 0000005b T _Z32ubsan_maybe_instrument_referencePP9tree_node
0000000000947ae0 0000005e T _Z34ubsan_maybe_instrument_member_callP9tree_nodeb
0000000000948b76 000000b7 T _Z18parse_tm_stmt_attrP9tree_nodei
000000000094916c 00000801 T _Z13has_attributejP9tree_nodeS0_PFS0_S0_E
0000000000949b7d 0000011d T _Z29do_warn_duplicated_branches_rPP9tree_nodePiPv
0000000000949c9a 0000018c T _Z21do_warn_array_comparej9tree_codeP9tree_nodeS1_
000000000094a938 00000272 T _Z20ggc_print_statisticsv
000000000094abaa 00000164 T _Z11may_alias_pPK7rtx_defS1_
000000000094ad0e 00000012 T _Z9gt_ggc_mxRP15alias_set_entry
000000000094ad20 000000c9 T _Z15bitmap_xor_intoP11bitmap_headPKS_
000000000094ade9 00000105 T _Z21bitmap_compl_and_intoP11bitmap_headPKS_
000000000094aeee 0000013b T _Z10bitmap_xorP11bitmap_headPKS_S2_
000000000094b1a4 00000095 T _Z32expand_builtin_update_setjmp_bufP7rtx_def
000000000094b239 000001fa T _Z27expand_builtin_setjmp_setupP7rtx_defS0_
000000000094b433 00000084 T _Z30expand_builtin_setjmp_receiverP7rtx_def
000000000094dd61 000000bf T _Z39default_emit_call_builtin___clear_cacheP7rtx_defS0_
000000000094df44 0000003c T _Z24builtin_strncpy_read_strPvS_l15fixed_size_mode
000000000094df80 00000055 T _Z23expand_builtin_saveregsv
000000000094dfd5 0000002a T _Z27std_expand_builtin_va_startP9tree_nodeP7rtx_def
000000000094e44e 000000ef T _Z37maybe_emit_call_builtin___clear_cacheP7rtx_defS0_
000000000094eee8 00000532 T _Z26c_parser_parse_gimple_bodyP8c_parserPc13c_declspec_il13profile_count
000000000094fab5 0000036f T _Z19c_omp_check_loop_ivP9tree_nodeS0_PFS0_PS0_PiPFS0_S1_S2_PvES3_P8hash_setIS0_Lb0E19default_hash_traitsIS0_EEE
000000000094fe24 000001ad T _Z25c_omp_check_loop_iv_exprsj9tree_codeP9tree_nodeiS1_S1_S1_PFS1_PS1_PiPFS1_S2_S3_PvES4_P8hash_setIS1_Lb0E19default_hash_traitsIS1_EEE
000000000094ffd1 0000005d T _Z12print_c_treeP8_IO_FILEP9tree_node
000000000095002e 00000026 T _Z12debug_c_treeP9tree_node
0000000000950054 000005bd T _Z14dump_ada_specsPFvPKcEPFiP9tree_node13cpp_operationE
0000000000950611 000002ae T _Z25check_for_xor_used_as_powjP9tree_nodejjS0_
00000000009508bf 00000725 T _Z15bitmap_registerP11bitmap_head
0000000000951064 00000042 T _Z27hashtab_entry_note_pointersIN8hash_mapIP9ctf_dvdefj21simple_hashmap_traitsI19default_hash_traitsIS2_EjEE10hash_entryEEvPvS9_PFvS9_S9_S9_ES9_
00000000009510a6 0000003c T _Z35gt_pch_p_24vec_ctf_dtdef_ref_va_gc_PvS_PFvS_S_S_ES_
00000000009510e7 0000003f T _Z27hashtab_entry_note_pointersI23function_version_hasherEvPvS1_PFvS1_S1_S1_ES1_
0000000000951126 00000042 T _Z27hashtab_entry_note_pointersIN8hash_mapIPcj21simple_hashmap_traitsI19default_hash_traitsIS1_EjEE10hash_entryEEvPvS8_PFvS8_S8_S8_ES8_
0000000000951168 00000062 T _Z24gt_pch_p_13coverage_dataPvS_PFvS_S_S_ES_
0000000000951413 00000034 T _Z21gt_pch_p_10dw_cfi_rowPvS_PFvS_S_S_ES_
0000000000951447 00000033 T _Z28gt_pch_p_17reg_saved_in_dataPvS_PFvS_S_S_ES_
000000000095147a 00000005 T _Z26gt_pch_p_15dw_cfa_locationPvS_PFvS_S_S_ES_
000000000095147f 0000005f T _Z21gt_pch_p_10die_structPvS_PFvS_S_S_ES_
00000000009514de 00000080 T _Z29gt_pch_p_18dw_loc_list_structPvS_PFvS_S_S_ES_
000000000095155e 0000001d T _Z27gt_pch_p_16addr_table_entryPvS_PFvS_S_S_ES_
000000000095157b 00000033 T _Z31gt_pch_p_20indirect_string_nodePvS_PFvS_S_S_ES_
00000000009515ae 0000003f T _Z27hashtab_entry_note_pointersI22indirect_string_hasherEvPvS1_PFvS1_S1_S1_ES1_
00000000009515ed 00000049 T _Z27gt_pch_p_16comdat_type_nodePvS_PFvS_S_S_ES_
0000000000951636 00000033 T _Z29gt_pch_p_18dw_line_info_tablePvS_PFvS_S_S_ES_
0000000000951669 0000003f T _Z27hashtab_entry_note_pointersI17dwarf_file_hasherEvPvS1_PFvS1_S1_S1_ES1_
00000000009516a8 0000003f T _Z27hashtab_entry_note_pointersI15decl_die_hasherEvPvS1_PFvS1_S1_S1_ES1_
00000000009516e7 0000003f T _Z27hashtab_entry_note_pointersI21variable_value_hasherEvPvS1_PFvS1_S1_S1_ES1_
0000000000951726 0000003f T _Z27hashtab_entry_note_pointersI16block_die_hasherEvPvS1_PFvS1_S1_S1_ES1_
0000000000951765 0000003e T _Z23gt_pch_p_12var_loc_nodePvS_PFvS_S_S_ES_
00000000009517a3 00000006 T _Z27gt_pch_p_16limbo_die_structPvS_PFvS_S_S_ES_
00000000009517a9 0000001a T _Z27gt_pch_p_16var_loc_list_defPvS_PFvS_S_S_ES_
00000000009517c3 00000054 T _Z28gt_pch_p_17call_arg_loc_nodePvS_PFvS_S_S_ES_
0000000000951817 0000003f T _Z27hashtab_entry_note_pointersI15decl_loc_hasherEvPvS1_PFvS1_S1_S1_ES1_
0000000000951856 0000003f T _Z27hashtab_entry_note_pointersI18dw_loc_list_hasherEvPvS1_PFvS1_S1_S1_ES1_
0000000000951895 0000003f T _Z27hashtab_entry_note_pointersI11addr_hasherEvPvS1_PFvS1_S1_S1_ES1_
00000000009518d4 0000003f T _Z27hashtab_entry_note_pointersIN8hash_mapIP9tree_node12sym_off_pair21simple_hashmap_traitsI19default_hash_traitsIS2_ES3_EE10hash_entryEEvPvSA_PFvSA_SA_SA_ESA_
0000000000951913 00000009 T _Z28gt_pch_p_17inline_entry_dataPvS_PFvS_S_S_ES_
000000000095191c 0000003f T _Z27hashtab_entry_note_pointersI24inline_entry_data_hasherEvPvS1_PFvS1_S1_S1_ES1_
000000000095195b 0000003c T _Z32gt_pch_p_21vec_dw_fde_ref_va_gc_PvS_PFvS_S_S_ES_
0000000000951997 0000003c T _Z27gt_pch_p_16vec_char__va_gc_PvS_PFvS_S_S_ES_
00000000009519d3 00000005 T _Z40gt_pch_p_29vec_dw_line_info_entry_va_gc_PvS_PFvS_S_S_ES_
00000000009519d8 0000003c T _Z32gt_pch_p_21vec_dw_die_ref_va_gc_PvS_PFvS_S_S_ES_
0000000000951a14 0000003c T _Z41gt_pch_p_30vec_dw_line_info_table__va_gc_PvS_PFvS_S_S_ES_
0000000000951a50 00000040 T _Z35gt_pch_p_24vec_macinfo_entry_va_gc_PvS_PFvS_S_S_ES_
0000000000951cac 0000001a T _Z8finalizeI8hash_mapIP9ctf_dvdefj21simple_hashmap_traitsI19default_hash_traitsIS2_EjEEEvPv
0000000000951cc6 0000001a T _Z8finalizeI10hash_tableI14asmname_hasherLb0E11xcallocatorEEvPv
0000000000951ce0 0000001a T _Z8finalizeI10hash_tableI19section_name_hasherLb0E11xcallocatorEEvPv
0000000000951cfa 0000001a T _Z8finalizeI8hash_mapIP11symtab_node19symbol_priority_map21simple_hashmap_traitsI19default_hash_traitsIS2_ES3_EEEvPv
0000000000951d14 0000001a T _Z8finalizeI10hash_tableI23function_version_hasherLb0E11xcallocatorEEvPv
0000000000951d2e 0000001a T _Z8finalizeI8hash_mapIPKcP9tree_node21simple_hashmap_traitsI19default_hash_traitsIS2_ES4_EEEvPv
0000000000951d48 0000001a T _Z8finalizeI10hash_tableI22indirect_string_hasherLb0E11xcallocatorEEvPv
0000000000951d62 0000001a T _Z8finalizeI10hash_tableI11addr_hasherLb0E11xcallocatorEEvPv
0000000000951d7c 0000001a T _Z8finalizeI8hash_mapIP9tree_node12sym_off_pair21simple_hashmap_traitsI19default_hash_traitsIS2_ES3_EEEvPv
0000000000951d96 0000001a T _Z8finalizeI10hash_tableI16block_die_hasherLb0E11xcallocatorEEvPv
0000000000951db0 0000001a T _Z8finalizeI10hash_tableI24inline_entry_data_hasherLb0E11xcallocatorEEvPv
0000000000951dca 0000001a T _Z8finalizeI10hash_tableI17dwarf_file_hasherLb0E11xcallocatorEEvPv
0000000000951de4 0000001a T _Z8finalizeI10hash_tableI15decl_die_hasherLb0E11xcallocatorEEvPv
0000000000951dfe 0000001a T _Z8finalizeI10hash_tableI15decl_loc_hasherLb0E11xcallocatorEEvPv
0000000000951e18 0000001a T _Z8finalizeI10hash_tableI18dw_loc_list_hasherLb0E11xcallocatorEEvPv
0000000000951e32 0000001a T _Z8finalizeI10hash_tableI21variable_value_hasherLb0E11xcallocatorEEvPv
0000000000951ff7 00000009 T _Z43gt_pch_p_32hash_map_ctf_dvdef_ref_unsigned_PvS_PFvS_S_S_ES_
0000000000952000 00000009 T _Z35gt_pch_p_24hash_map_char__unsigned_PvS_PFvS_S_S_ES_
0000000000952009 00000009 T _Z31gt_pch_p_20hash_map_char__tree_PvS_PFvS_S_S_ES_
0000000000952012 00000009 T _Z38gt_pch_p_27hash_map_tree_sym_off_pair_PvS_PFvS_S_S_ES_
000000000095201c 00000034 T _ZN16function_summaryIP10thunk_infoE16symtab_insertionEP11cgraph_nodePv
0000000000952050 00000009 T _Z46gt_pch_p_35hash_table_function_version_hasher_PvS_PFvS_S_S_ES_
0000000000952059 00000009 T _Z45gt_pch_p_34hash_table_indirect_string_hasher_PvS_PFvS_S_S_ES_
0000000000952062 00000009 T _Z40gt_pch_p_29hash_table_dwarf_file_hasher_PvS_PFvS_S_S_ES_
000000000095206b 00000009 T _Z38gt_pch_p_27hash_table_decl_die_hasher_PvS_PFvS_S_S_ES_
0000000000952074 00000009 T _Z44gt_pch_p_33hash_table_variable_value_hasher_PvS_PFvS_S_S_ES_
000000000095207d 00000009 T _Z39gt_pch_p_28hash_table_block_die_hasher_PvS_PFvS_S_S_ES_
0000000000952086 00000009 T _Z38gt_pch_p_27hash_table_decl_loc_hasher_PvS_PFvS_S_S_ES_
000000000095208f 00000009 T _Z41gt_pch_p_30hash_table_dw_loc_list_hasher_PvS_PFvS_S_S_ES_
0000000000952098 00000009 T _Z34gt_pch_p_23hash_table_addr_hasher_PvS_PFvS_S_S_ES_
00000000009520a1 00000009 T _Z47gt_pch_p_36hash_table_inline_entry_data_hasher_PvS_PFvS_S_S_ES_
00000000009520aa 00000010 T _Z8finalizeI8hash_mapIPKcj21simple_hashmap_traitsI19default_hash_traitsIS2_EjEEEvPv
0000000000952199 00000009 T _Z32gt_pch_p_21variable_value_structPvS_PFvS_S_S_ES_
00000000009521a2 00000009 T _Z33gt_pch_p_22cached_dw_loc_list_defPvS_PFvS_S_S_ES_
00000000009521ab 000000ef T _Z23validate_gimple_arglistPK5gcallz
000000000095229a 00000007 T _Z22default_expand_builtinP9tree_nodeP7rtx_defS2_12machine_modei
00000000009522a2 00000057 T _ZNK10access_ref14offset_boundedEv
0000000000952307 000000fb T _Z15init_save_areasv
0000000000952440 0000001b T _Z23reference_callee_copiedP9ix86_argsRK17function_arg_info
000000000095245b 00000024 T _Z27must_pass_in_stack_var_sizeRK17function_arg_info
000000000095247f 0000004c T _Z24cxx17_empty_base_field_pPK9tree_node
00000000009524d8 0000005d T _Z12debug_helperIP8edge_defEvR3vecIT_7va_heap6vl_ptrE
0000000000952535 00000050 T _Z12debug_helperIP8edge_defEvR3vecIT_5va_gc8vl_embedE
0000000000952585 00000009 T _Z5debugR3vecIP8edge_def7va_heap6vl_ptrE
000000000095258e 0000001f T _Z5debugP3vecIP8edge_def7va_heap6vl_ptrE
00000000009525ad 00000006 T _Z5debugR3vecIP8edge_def5va_gc8vl_embedE
00000000009525b3 0000001f T _Z5debugP3vecIP8edge_def5va_gc8vl_embedE
00000000009525d2 00000064 T _Z12debug_helperIP8edge_defEvR8hash_setIT_Lb0E19default_hash_traitsIS3_EE
0000000000952636 00000006 T _Z5debugR8hash_setIP8edge_defLb0E19default_hash_traitsIS1_EE
000000000095263c 0000001c T _Z5debugP8hash_setIP8edge_defLb0E19default_hash_traitsIS1_EE
0000000000952658 000000f3 T _Z15print_edge_listP8_IO_FILEP9edge_list
000000000095274b 0000002a T _Z15find_edge_indexP9edge_listP15basic_block_defS2_
0000000000952775 0000028e T _Z16verify_edge_listP8_IO_FILEP9edge_list
0000000000952ac7 00000016 T _Z13get_cfg_hooksv
0000000000952add 00000018 T _Z13set_cfg_hooks9cfg_hooks
0000000000952af5 0000005d T _Z12debug_helperIP15basic_block_defEvR3vecIT_7va_heap6vl_ptrE
0000000000952b52 00000050 T _Z12debug_helperIP15basic_block_defEvR3vecIT_5va_gc8vl_embedE
0000000000952ba2 00000009 T _Z5debugR3vecIP15basic_block_def7va_heap6vl_ptrE
0000000000952bab 0000001f T _Z5debugP3vecIP15basic_block_def7va_heap6vl_ptrE
0000000000952bca 00000006 T _Z5debugR3vecIP15basic_block_def5va_gc8vl_embedE
0000000000952bd0 0000001f T _Z5debugP3vecIP15basic_block_def5va_gc8vl_embedE
0000000000952bef 0000006a T _Z12debug_helperIP15basic_block_defEvR8hash_setIT_Lb0E19default_hash_traitsIS3_EE
0000000000952c59 00000006 T _Z5debugR8hash_setIP15basic_block_defLb0E19default_hash_traitsIS1_EE
0000000000952c5f 0000001c T _Z5debugP8hash_setIP15basic_block_defLb0E19default_hash_traitsIS1_EE
0000000000952c7c 0000000d T _ZN16loop_exit_hasher4hashEP9loop_exit
0000000000952c8a 0000000b T _ZN16loop_exit_hasher5equalEP9loop_exitP8edge_def
0000000000952c95 00000046 T _Z18dump_recorded_exitPP9loop_exitP8_IO_FILE
0000000000952cdb 00000074 T _Z19dump_recorded_exitsP8_IO_FILE
0000000000952d4f 0000002d T _Z14get_loop_levelPK4loop
0000000000952d7c 00000028 T _Z17entry_of_functionv
0000000000952db5 00000010 T _Z10get_btf_idm
0000000000952dc5 00000038 T _Z23traverse_btf_func_typesPFbP9ctf_dtdefPvES1_
0000000000952e28 0000000d T _ZN19section_name_hasher4hashEP18section_hash_entry
0000000000952e36 0000001c T _ZNK11symtab_node21get_visibility_stringEv
0000000000952e52 00000010 T _ZNK11symtab_node22get_symtab_type_stringEv
0000000000952f18 0000001e T _ZN10thunk_info4hashEv
0000000000952f36 0000000e T _Z25symtab_thunks_cc_finalizev
0000000000952f4a 0000000e T _ZN23function_version_hasher4hashEP28cgraph_function_version_info
0000000000952f58 0000001a T _ZN23function_version_hasher5equalEP28cgraph_function_version_infoS1_
0000000000952f72 0000000d T _ZN18cgraph_edge_hasher4hashEP11cgraph_edge
0000000000952f80 0000000c T _ZN18cgraph_edge_hasher4hashEP6gimple
0000000000952f8c 00000031 T _ZNK11cgraph_node7get_funEv
0000000000952fbe 00000014 T _ZN11cgraph_edge30num_speculative_call_targets_pEv
0000000000952fd2 00000005 T _Z9gt_pch_nxP23function_version_hasherPFvPvS1_S1_ES1_
000000000095306c 0000004d T _Z10gcov_closev
00000000009530b9 00000023 T _Z10gcov_magicjj
00000000009530dc 00000028 T _Z10gcov_writePKvj
0000000000953104 0000003a T _Z19gcov_write_unsignedj
000000000095313e 0000004c T _Z17gcov_write_stringPKc
000000000095318a 000000b6 T _Z19gcov_write_filenamePKc
0000000000953240 0000002c T _Z14gcov_write_tagj
000000000095326c 00000033 T _Z18gcov_read_unsignedv
000000000095329f 00000046 T _Z17gcov_read_counterv
00000000009532e5 0000011e T _Z11mangle_pathPKc
0000000000953403 0000002a T _Z16gcov_read_stringv
000000000095342d 0000001c T _Z17gcov_read_summaryP12gcov_summary
000000000095349f 0000002e T _Z32cselib_dummy_expand_value_rtx_cbP7rtx_defP11bitmap_headiPFS0_S0_S2_iPvES3_
0000000000953533 0000000f T _Z15dbg_cnt_counter13debug_counter
0000000000953542 0000011b T _Z25dbg_cnt_list_all_countersv
000000000095365d 00000057 T _Z26df_bb_regno_first_def_findP15basic_block_defj
00000000009536b4 00000057 T _Z25df_bb_regno_last_def_findP15basic_block_defj
000000000095370b 000000bc T _Z11dump_regsetP11bitmap_headP8_IO_FILE
00000000009537c7 00000023 T _Z12debug_regsetP11bitmap_head
00000000009537ea 000000be T _Z15df_print_regsetP8_IO_FILEPK11bitmap_head
000000000095404a 0000000e T _Z11df_dump_topP15basic_block_defP8_IO_FILE
0000000000954058 0000000b T _Z14df_dump_bottomP15basic_block_defP8_IO_FILE
0000000000954063 0000000e T _Z16df_dump_insn_topPK8rtx_insnP8_IO_FILE
0000000000954071 0000000b T _Z19df_dump_insn_bottomPK8rtx_insnP8_IO_FILE
000000000095407c 0000003a T _Z18df_regs_chain_dumpP8df_ref_dP8_IO_FILE
00000000009540b6 000000a3 T _Z14df_regno_debugjP8_IO_FILE
0000000000954159 00000013 T _Z12debug_df_regP7rtx_def
000000000095416c 00000010 T _Z14debug_df_regnoj
000000000095418d 0000008e T _Z13df_chain_dumpP7df_linkP8_IO_FILE
000000000095421b 00000053 T _Z18df_refs_chain_dumpP8df_ref_dbP8_IO_FILE
0000000000954404 00000010 T _Z13df_insn_debugP8rtx_insnbP8_IO_FILE
0000000000954414 00000097 T _Z19df_insn_debug_regnoP8rtx_insnP8_IO_FILE
000000000095453e 000000ea T _Z12df_ref_debugP8df_ref_dP8_IO_FILE
0000000000954628 00000010 T _Z12debug_df_refP8df_ref_d
0000000000954638 00000024 T _Z14debug_df_defnoj
000000000095465c 00000024 T _Z14debug_df_usenoj
0000000000954680 00000023 T _Z14debug_df_chainP7df_link
0000000000954a47 00000127 T _Z17df_print_bb_indexP15basic_block_defP8_IO_FILE
0000000000954c80 0000001c T _Z18df_hard_reg_used_pj
0000000000954c9c 00000018 T _Z22df_hard_reg_used_countj
0000000000954d09 0000000e T _Z25init_pending_stack_adjustv
0000000000954d17 00000010 T _Z6jumpifP9tree_nodeP14rtx_code_label19profile_probability
0000000000954d27 0000006e T _Z20debug_dominance_info13cdi_direction
0000000000954d95 0000000d T _Z20debug_dominance_tree13cdi_directionP15basic_block_def
0000000000954da2 00000069 T _ZN3gcc12dump_managerD1Ev
0000000000954e0c 0000004c T _ZNK3gcc12dump_manager28get_dump_file_info_by_switchEPKc
0000000000954e58 00000033 T _ZNK12dump_context19apply_dump_filter_pE9dump_flagS0_
0000000000954e8c 00000007 T _ZNK12dump_context15get_scope_depthEv
0000000000954e94 0000000d T _ZNK12dump_context17optinfo_enabled_pEv
0000000000954ea1 0000000e T _Z20get_dump_scope_depthv
0000000000954eaf 00000059 T _Z14dump_flag_namei
0000000000954f08 00000045 T _ZNK3gcc12dump_manager14dump_flag_nameEi
0000000000954f4d 0000001f T _Z8dump_endiP8_IO_FILE
0000000000954f6c 0000006c T _Z23dw2_asm_output_data_rawim
0000000000954fd8 00000065 T _Z31dw2_asm_output_data_sleb128_rawl
0000000000955064 00000045 T _Z27hashtab_entry_note_pointersIN8hash_mapIPcP9tree_node21simple_hashmap_traitsI19default_hash_traitsIS1_ES3_EE10hash_entryEEvPvSA_PFvSA_SA_SA_ESA_
00000000009550a9 0000001c T _Z30expand_builtin_dwarf_sp_columnv
00000000009550c5 0000002a T _Z21dwarf2cfi_cc_finalizev
00000000009550ef 00000009 T _Z25gt_ggc_mx_dw_cfa_locationPv
0000000000955185 00000009 T _Z14dw_get_die_sibP10die_struct
000000000095518e 00000008 T _Z8AT_classP14dw_attr_struct
0000000000955196 00000008 T _Z14dw_get_die_tagP10die_struct
000000000095519e 00000009 T _Z16dw_get_die_childP10die_struct
0000000000955219 00000063 T _Z17loc_descr_equal_pP17dw_loc_descr_nodeS0_
00000000009552b6 000000b5 T _Z21build_cfa_aligned_locP15dw_cfa_location8poly_intILj1ElEl
000000000095536b 0000000c T _Z32dwarf2out_set_demangle_name_funcPFPKcS0_E
0000000000955378 0000000c T _ZN22indirect_string_hasher4hashEP20indirect_string_node
0000000000955384 00000014 T _ZN22indirect_string_hasher5equalEP20indirect_string_nodePKc
0000000000955398 00000046 T _Z21reset_indirect_stringPP20indirect_string_nodePv
00000000009553de 00000020 T _Z21init_addr_table_entryP16addr_table_entry8ate_kindPv
00000000009553fe 00000020 T _Z15lookup_type_dieP9tree_node
000000000095553d 0000007e T _Z23dwarf2_build_local_stubPP12external_refP10die_struct
00000000009556d9 00000011 T _Z14free_loc_descrRKP17dw_loc_descr_nodePv
0000000000955740 00000016 T _ZN16block_die_hasher4hashEP10die_struct
0000000000955756 0000001a T _ZN16block_die_hasher5equalEP10die_structS1_
0000000000955770 00000014 T _ZN17dwarf_file_hasher5equalEP15dwarf_file_dataPKc
0000000000955784 0000000c T _ZN17dwarf_file_hasher4hashEP15dwarf_file_data
0000000000955790 00000026 T _Z34var_location_switch_text_section_1PP16var_loc_list_defPv
00000000009557b6 0000002f T _Z19count_index_stringsPP20indirect_string_nodePj
00000000009557e5 00000015 T _Z17count_index_addrsPP16addr_table_entryPj
000000000095596e 0000028b T _Z21dwarf2out_cc_finalizev
0000000000955bf9 00000012 T _Z9gt_ggc_mxRP10die_struct
0000000000955c0b 00000027 T _Z9gt_ggc_mxR16addr_table_entry
0000000000955c32 0000001a T _Z9gt_ggc_mxR20indirect_string_node
0000000000955c4c 00000009 T _Z39gt_ggc_mx_vec_dw_line_info_entry_va_gc_Pv
0000000000955c55 00000013 T _Z9gt_ggc_mxR21variable_value_struct
0000000000955c68 00000012 T _Z9gt_ggc_mxRP18dw_line_info_table
0000000000955c7a 0000001f T _Z9gt_ggc_mxR14pubname_struct
0000000000955c99 0000000d T _Z9gt_ggc_mxR14macinfo_struct
0000000000955ca6 0000001f T _Z9gt_ggc_mxR17inline_entry_data
0000000000955cc5 00000027 T _Z9gt_pch_nxR16addr_table_entry
0000000000955cec 0000001a T _Z9gt_pch_nxR20indirect_string_node
0000000000955d06 0000000d T _Z9gt_pch_nxR14macinfo_struct
0000000000955d13 0000001a T _Z9gt_pch_nxR18dw_ranges_by_label
0000000000955d2d 0000001f T _Z9gt_pch_nxR17inline_entry_data
0000000000955d4c 00000053 T _Z9gt_pch_nxP10die_structPFvPvS1_S1_ES1_
0000000000955d9f 00000015 T _Z9gt_pch_nxP16addr_table_entryPFvPvS1_S1_ES1_
0000000000955db4 00000027 T _Z9gt_pch_nxP20indirect_string_nodePFvPvS1_S1_ES1_
0000000000955ddb 00000005 T _Z9gt_pch_nxP22indirect_string_hasherPFvPvS1_S1_ES1_
0000000000955de0 00000005 T _Z9gt_pch_nxP19dw_line_info_structPFvPvS1_S1_ES1_
0000000000955de5 00000069 T _Z9gt_pch_nxP14dw_attr_structPFvPvS1_S1_ES1_
0000000000955e4e 00000043 T _Z34gt_pch_p_23vec_dw_attr_node_va_gc_PvS_PFvS_S_S_ES_
0000000000955e91 00000005 T _Z9gt_pch_nxP17dwarf_file_hasherPFvPvS1_S1_ES1_
0000000000955e96 00000005 T _Z9gt_pch_nxP15decl_die_hasherPFvPvS1_S1_ES1_
0000000000955e9b 00000005 T _Z9gt_pch_nxP21variable_value_hasherPFvPvS1_S1_ES1_
0000000000955ea0 00000005 T _Z9gt_pch_nxP16block_die_hasherPFvPvS1_S1_ES1_
0000000000955ea5 0000000b T _Z9gt_pch_nxP16var_loc_list_defPFvPvS1_S1_ES1_
0000000000955eb0 00000005 T _Z9gt_pch_nxP15decl_loc_hasherPFvPvS1_S1_ES1_
0000000000955eb5 00000005 T _Z9gt_pch_nxP18dw_loc_list_hasherPFvPvS1_S1_ES1_
0000000000955eba 0000000f T _Z9gt_pch_nxP14macinfo_structPFvPvS1_S1_ES1_
0000000000955ec9 00000032 T _Z9gt_pch_nxP9dw_rangesPFvPvS1_S1_ES1_
0000000000955efb 00000043 T _Z31gt_pch_p_20vec_dw_ranges_va_gc_PvS_PFvS_S_S_ES_
0000000000955f3e 00000005 T _Z9gt_pch_nxP11addr_hasherPFvPvS1_S1_ES1_
0000000000955f43 00000005 T _Z9gt_pch_nxP12sym_off_pairPFvPvS1_S1_ES1_
0000000000955f48 00000005 T _Z9gt_pch_nxP24inline_entry_data_hasherPFvPvS1_S1_ES1_
0000000000955f4e 0000000e T _ZN23generic_subrtx_iteratorI16rtx_var_accessorE10array_typeC1Ev
0000000000955f5c 00000024 T _ZN23generic_subrtx_iteratorI16rtx_var_accessorEC1ERNS1_10array_typeEP7rtx_defPK21rtx_subrtx_bound_info
0000000000955f80 00000008 T _ZNK23generic_subrtx_iteratorI16rtx_var_accessorE6at_endEv
0000000000955f88 00000009 T _ZNK23generic_subrtx_iteratorI16rtx_var_accessorEdeEv
0000000000955fc4 00000008 T _ZN16const_int_hasher4hashEP7rtx_def
0000000000955fcc 0000000c T _ZN16const_int_hasher5equalEP7rtx_defl
0000000000955fd8 0000001a T _ZN21const_wide_int_hasher4hashEP7rtx_def
0000000000955ff2 00000011 T _ZN18const_fixed_hasher4hashEP7rtx_def
0000000000956004 0000001a T _ZN15reg_attr_hasher5equalEP9reg_attrsS1_
000000000095601e 00000016 T _Z25maybe_set_first_label_numP14rtx_code_label
0000000000956034 00000018 T _Z23maybe_set_max_label_numP14rtx_code_label
000000000095604c 00000021 T _ZN9mem_attrsC1Ev
000000000095606d 00000051 T _Z14set_mem_offsetP7rtx_def8poly_intILj1ElE
00000000009560be 0000002e T _Z21extract_cond_bb_edgesP15basic_block_defPP8edge_defS3_
00000000009560ec 0000002e T _Z28split_block_before_cond_jumpP15basic_block_def
000000000095611a 00000056 T _Z30profile_record_account_profileP14profile_record
0000000000956170 000000a4 T _Z17verify_insn_chainv
0000000000956214 0000012a T _Z21ctf_dtd_preprocess_cbPP9ctf_dtdefPv
000000000095633e 000000a2 T _Z22btf_dtd_postprocess_cbPP9ctf_dtdefP13ctf_container
0000000000956417 0000002a T _Z27cgraph_inline_failed_string22cgraph_inline_failed_t
0000000000956441 00000047 T _Z22cgraphunit_cc_finalizev
0000000000956488 00000080 T _Z17gcov_write_lengthj
0000000000956508 00000034 T _Z9gcov_syncjj
0000000000956584 00000045 T _ZN21const_poly_int_hasher4hashEP7rtx_def
00000000009565c9 0000004d T _Z14df_uses_createPP7rtx_defP8rtx_insni
00000000009567ac 00000135 T _ZN19dump_pretty_printer10stash_itemEPPKcP12optinfo_item
0000000000956951 00000284 T _Z12lookup_cfa_1P11dw_cfi_nodeP15dw_cfa_locationS2_
0000000000956bd5 00000103 T _Z14build_span_loc7cfa_reg
0000000000956cd8 00000089 T _Z13build_cfa_locP15dw_cfa_location8poly_intILj1ElE
0000000000956db5 00000037 T _Z22index_addr_table_entryPP16addr_table_entryPj
0000000000956e72 000000c3 T _Z10verify_dieP10die_struct
0000000000956f35 00000069 T _Z12index_stringPP20indirect_string_nodePj
0000000000956f9e 0000003a T _Z13reg_is_parm_pP7rtx_def
0000000000956fd8 000001e9 T _Z34expand_ifn_atomic_compare_exchangeP5gcall
00000000009571de 00000401 T _Z30expand_ifn_atomic_bit_test_andP5gcall
00000000009576f7 00000329 T _Z32expand_ifn_atomic_op_fetch_cmp_0P5gcall
0000000000957ac8 00000039 T _ZN11cgraph_edge12verify_countEv
00000000009586ac 0000001b T _ZN19const_double_hasher5equalEP7rtx_defS1_
00000000009587c4 00000451 T _Z11do_mpc_arg2P9tree_nodeS0_S0_iPFiP12__mpc_structPKS1_S4_iE
0000000000959071 0000042e T _Z16init_caller_savev
000000000095949f 00000054 T _Z17gen_tmp_stack_mem12machine_modeP7rtx_def
00000000009595ab 00000188 T _Z35expand_builtin_init_dwarf_reg_sizesP9tree_node
00000000009597a0 00000c0a T _Z16setup_save_areasv
000000000095a3aa 00000034 T _Z11gen_rtvec_viPP8rtx_insn
000000000095a970 00000018 T _ZN19control_dependences31clear_control_dependence_bitmapEP15basic_block_def
000000000095b182 00000a2d T _Z24save_call_clobbered_regsv
000000000095be50 000000b1 T _Z18shift_return_value12machine_modebP7rtx_def
000000000095c387 0000025d T _Z14dump_edge_infoP8_IO_FILEP8edge_def9dump_flagi
000000000095c5e4 00000056 T _Z5debugR8edge_def
000000000095c63a 0000001c T _Z5debugP8edge_def
000000000095c775 000004bf T _Z12dump_bb_infoP8_IO_FILEP15basic_block_defi9dump_flagbb
000000000095cc34 00000059 T _Z14brief_dump_cfgP8_IO_FILE9dump_flag
000000000095cc8d 0000007e T _Z7dump_bbP8_IO_FILEP15basic_block_defi9dump_flag
000000000095cd0b 0000001b T _Z8debug_bbP15basic_block_def
000000000095cd26 00000028 T _Z10debug_bb_ni
000000000095cd4e 00000017 T _Z8debug_bbP15basic_block_def9dump_flag
000000000095cd65 00000033 T _Z10debug_bb_ni9dump_flag
000000000095cd98 00000017 T _Z5debugR15basic_block_def
000000000095cdaf 0000001c T _Z5debugP15basic_block_def
000000000095cdcb 0000006b T _Z14dump_flow_infoP8_IO_FILE9dump_flag
000000000095ce36 00000012 T _Z15debug_flow_infov
000000000095ce48 00000086 T _Z16dump_basic_block9dump_flagP15basic_block_defi
000000000095cece 0000010d T _Z31scale_strictly_dominated_blocksP15basic_block_def13profile_countS1_
000000000095d085 0000004a T _Z26reset_original_copy_tablesv
000000000095dc7c 00000615 T _Z16verify_flow_infov
000000000095e291 00000027 T _Z26block_ends_with_condjump_pPK15basic_block_def
000000000095e2b8 00000027 T _Z19flow_call_edges_addP17simple_bitmap_def
000000000095e2df 0000014b T _Z23verify_marked_backedgesP8function
000000000095e42a 00000047 T _Z28verify_no_unreachable_blocksv
000000000095e471 00000074 T _Z17remove_fake_edgesv
000000000095e4e5 000000d4 T _Z21bitmap_union_of_succsP17simple_bitmap_defPS0_P15basic_block_def
000000000095e5b9 000000cf T _Z21bitmap_union_of_predsP17simple_bitmap_defPS0_P15basic_block_def
000000000095e74f 00000010 T _Z18expand_null_returnv
000000000095e828 00000241 T _ZN11symtab_node20copy_visibility_fromEPS_
000000000095ea69 00000077 T _Z17dump_bb_for_graphP14pretty_printerP15basic_block_def
000000000095eae0 00000418 T _Z32profile_record_check_consistencyP14profile_record
000000000095eef8 00000031 T _Z29get_loop_body_in_custom_orderPK4loopPFiPKvS3_E
000000000095ef29 00000067 T _Z17num_loop_branchesPK4loop
000000000095ef90 000001c9 T _Z14flow_loop_dumpPK4loopP8_IO_FILEPFvS1_S3_iEi
000000000095f159 00000066 T _Z18loop_exits_to_bb_pP4loopP15basic_block_def
000000000095f1bf 00000054 T _Z33get_estimated_loop_iterations_intP4loop
000000000095f213 00000066 T _Z34expected_loop_iterations_unboundedPK4loopPb
000000000095f279 0000001a T _Z24expected_loop_iterationsP4loop
000000000095f293 00000192 T _Z30create_empty_if_region_on_edgeP8edge_defP9tree_node
000000000095f425 000002a0 T _Z25create_empty_loop_on_edgeP8edge_defP9tree_nodeS2_S2_S2_PS2_S3_P4loop
000000000095f6c5 00000054 T _Z18emit_insn_at_entryP7rtx_def
000000000095f7b9 00000074 T _Z20prepend_insn_to_edgeP7rtx_defP8edge_def
000000000095fa84 00000025 T _Z13debug_df_insnP8rtx_insn
000000000095ffa9 00000054 T _Z17init_ctf_sectionsv
000000000095fffd 00000054 T _Z17init_btf_sectionsv
0000000000960051 0000005d T _Z21ctf_dvd_preprocess_cbPP9ctf_dvdefPv
00000000009600ae 00000293 T _Z26btf_dvd_emit_preprocess_cbPP9ctf_dvdefP13ctf_container
00000000009604ce 0000007b T _Z26output_index_string_offsetPP20indirect_string_nodePj
0000000000960549 00000019 T _Z12ctf_finalizev
0000000000960562 0000017f T _Z12btf_finalizev
00000000009606f4 0000084c T _Z10ctf_outputPKc
0000000000960f40 000000db T _ZN11symtab_node13priority_infoEv
000000000096101c 000000c2 T _ZN11cgraph_node27insert_new_function_versionEv
00000000009610de 00000047 T _Z17alloc_dw_wide_intRK16generic_wide_intI20wide_int_ref_storageILb0ELb1EEE
000000000096119c 00000240 T _Z20btf_init_postprocessv
00000000009613dc 0000000f T _Z26ctf_debug_init_postprocessb
00000000009614e7 00000013 T _Z34cgraph_allocate_init_indirect_infov
00000000009614fa 00000011 T _Z11new_die_raw9dwarf_tag
000000000096193f 00000eb4 T _Z10btf_outputPKc
00000000009627f3 00000034 T _Z42gt_pch_nx_hash_map_ctf_dvdef_ref_unsigned_Pv
0000000000962827 00000034 T _Z34gt_pch_nx_hash_map_char__unsigned_Pv
000000000096285b 0000006f T _Z23gt_pch_nx_coverage_dataPv
00000000009628ca 00000015 T _Z25gt_pch_nx_dw_cfa_locationPv
00000000009628df 0000003b T _Z27gt_pch_nx_reg_saved_in_dataPv
000000000096291a 00000042 T _Z26gt_pch_nx_addr_table_entryPv
000000000096295c 0000000f T _Z9gt_pch_nxRP16addr_table_entry
000000000096296b 0000002c T _Z9gt_pch_nxR9dw_ranges
0000000000962997 00000031 T _Z30gt_pch_nx_indirect_string_nodePv
00000000009629c8 0000000f T _Z9gt_pch_nxRP20indirect_string_node
00000000009629d7 00000056 T _Z44gt_pch_nx_hash_table_indirect_string_hasher_Pv
0000000000962a2d 00000015 T _Z39gt_pch_nx_vec_dw_line_info_entry_va_gc_Pv
0000000000962a42 00000042 T _Z28gt_pch_nx_dw_line_info_tablePv
0000000000962a84 0000000f T _Z9gt_pch_nxRP18dw_line_info_table
0000000000962a93 0000005c T _Z22gt_pch_nx_var_loc_nodePv
0000000000962aef 0000000f T _Z9gt_pch_nxR16var_loc_list_def
0000000000962afe 0000002d T _Z26gt_pch_nx_var_loc_list_defPv
0000000000962b2b 0000000f T _Z9gt_pch_nxRP16var_loc_list_def
0000000000962b3a 00000078 T _Z27gt_pch_nx_call_arg_loc_nodePv
0000000000962bb2 00000056 T _Z37gt_pch_nx_hash_table_decl_loc_hasher_Pv
0000000000962c08 0000003f T _Z40gt_pch_nx_vec_dw_line_info_table__va_gc_Pv
0000000000962c47 0000003e T _Z34gt_pch_nx_vec_macinfo_entry_va_gc_Pv
0000000000962c85 0000003e T _Z30gt_pch_nx_vec_dw_ranges_va_gc_Pv
0000000000962cc3 0000003e T _Z39gt_pch_nx_vec_dw_ranges_by_label_va_gc_Pv
0000000000962d01 00000056 T _Z33gt_pch_nx_hash_table_addr_hasher_Pv
0000000000962d57 00000036 T _Z27gt_pch_nx_inline_entry_dataPv
0000000000962d8d 0000000f T _Z9gt_pch_nxRP17inline_entry_data
0000000000962d9c 00000056 T _Z46gt_pch_nx_hash_table_inline_entry_data_hasher_Pv
0000000000962df2 0000003a T _Z34gt_pch_nx_vec_ctf_dtdef_ref_va_gc_Pv
0000000000962e2c 00000020 T _ZNK11symtab_node8asm_nameEv
0000000000962e4c 0000002c T _ZNK11symtab_node4nameEv
0000000000962e78 00000077 T _ZNK11symtab_node13get_dump_nameEb
0000000000962ef0 00000008 T _ZNK11symtab_node9dump_nameEv
0000000000962ef8 00000056 T _ZN11cgraph_node13dump_graphvizEP8_IO_FILE
0000000000962f4e 0000000c T _ZN11symtab_node13dump_graphvizEP8_IO_FILE
0000000000962f5a 0000004b T _ZN12symbol_table13dump_graphvizEP8_IO_FILE
0000000000962fa6 0000000e T _ZNK11symtab_node13dump_asm_nameEv
0000000000962fb4 00000091 T _ZN11symtab_node15dump_referencesEP8_IO_FILE
0000000000963046 000000a9 T _ZN11symtab_node14dump_referringEP8_IO_FILE
00000000009630f0 00000074 T _ZN10thunk_info4dumpEP8_IO_FILE
0000000000963164 0000051e T _ZN11symtab_node9dump_baseEP8_IO_FILE
0000000000963682 00000026 T _ZN11cgraph_node15get_for_asmnameEP9tree_node
00000000009636a8 00000059 T _ZN10thunk_info10stream_outEP23lto_simple_output_block
0000000000963701 0000000d T _Z26streamer_write_poly_uint64P12output_block8poly_intILj1EmE
000000000096370e 00000055 T _ZN10thunk_info9stream_inEP15lto_input_block
0000000000963763 0000000c T _Z25streamer_read_poly_uint64P15lto_input_block
000000000096376f 00000026 T _Z9gt_pch_nxR17unprocessed_thunk
0000000000963795 0000003e T _Z38gt_pch_nx_vec_unprocessed_thunk_va_gc_Pv
00000000009637d3 00000043 T _Z39gt_pch_p_28vec_unprocessed_thunk_va_gc_PvS_PFvS_S_S_ES_
0000000000963816 00000009 T _Z9gt_pch_nxP17unprocessed_thunkPFvPvS1_S1_ES1_
000000000096381f 00000043 T _Z35gt_pch_p_24vec_pubname_entry_va_gc_PvS_PFvS_S_S_ES_
0000000000963862 00000009 T _Z9gt_pch_nxP14pubname_structPFvPvS1_S1_ES1_
000000000096386b 00000043 T _Z40gt_pch_p_29vec_dw_ranges_by_label_va_gc_PvS_PFvS_S_S_ES_
00000000009638ae 00000009 T _Z9gt_pch_nxP18dw_ranges_by_labelPFvPvS1_S1_ES1_
00000000009638b7 00000043 T _Z35gt_pch_p_24vec_die_arg_entry_va_gc_PvS_PFvS_S_S_ES_
00000000009638fa 00000009 T _Z9gt_pch_nxP20die_arg_entry_structPFvPvS1_S1_ES1_
0000000000963903 00000009 T _Z9gt_pch_nxP17inline_entry_dataPFvPvS1_S1_ES1_
0000000000963b7e 000000ae T _ZN11cgraph_node31delete_function_version_by_declEP9tree_node
0000000000963c2c 00000089 T _ZN11cgraph_node24record_function_versionsEP9tree_nodeS1_
0000000000963cb6 00000043 T _ZN11cgraph_edge27speculative_call_for_targetEP11cgraph_node
0000000000963cfa 000000e1 T _ZN11cgraph_edge15dump_edge_flagsEP8_IO_FILE
0000000000963ddc 00000938 T _ZN11cgraph_node4dumpEP8_IO_FILE
0000000000964714 00000019 T _ZN11symtab_node4dumpEP8_IO_FILE
000000000096472e 00000039 T _ZN12symbol_table4dumpEP8_IO_FILE
0000000000964768 0000000d T _ZN12symbol_table5debugEv
0000000000964776 0000000d T _ZN11symtab_node5debugEv
0000000000964784 00000632 T _ZN11symtab_node11verify_baseEv
0000000000964db6 00000093 T _ZN11cgraph_edge5debugEv
0000000000964e4a 00000010 T _ZN11cgraph_node5debugEv
0000000000964e5a 00000056 T _ZN11cgraph_node11dump_cgraphEP8_IO_FILE
0000000000964eb0 00000094 T _ZN11cgraph_node10make_localEPS_Pv
0000000000964f44 00000018 T _ZN11cgraph_node10make_localEv
0000000000964fac 000001f5 T _ZN11cgraph_edge28verify_corresponds_to_fndeclEP9tree_node
0000000000965456 000000de T _ZN11cgraph_node8get_bodyEv
0000000000965534 00000089 T _Z18cgraph_cc_finalizev
00000000009655bd 00000056 T _Z45gt_pch_nx_hash_table_function_version_hasher_Pv
0000000000965613 00000022 T _Z30compute_call_stmt_bb_frequencyP9tree_nodeP15basic_block_def
0000000000965636 00000022 T _ZN11cgraph_node22record_stmt_referencesEP6gimple
0000000000965658 0000010f T _ZN11cgraph_node28create_edge_including_clonesEPS_P6gimpleP5gcall13profile_count22cgraph_inline_failed_t
0000000000965768 00000061 T _ZN11cgraph_node31remove_symbol_and_inline_clonesEPS_
00000000009657c9 00000052 T _Z29convert_to_pointer_maybe_foldP9tree_nodeS0_b
0000000000965aaa 0000000e T _Z18convert_to_complexP9tree_nodeS0_
0000000000965ab8 00000052 T _Z29convert_to_complex_maybe_foldP9tree_nodeS0_b
0000000000965b0a 00000172 T _Z16convert_to_fixedP9tree_nodeS0_
0000000000965c7c 00000108 T _Z9gcov_openPKci
0000000000965d84 0000001f T _Z13get_gcov_typev
0000000000965dc5 00000121 T _Z17parse_dump_optionPKcPS0_
0000000000965ee6 0000006d T _Z25tree_coverage_counter_refjj
0000000000965f53 00000077 T _Z26tree_coverage_counter_addrjj
00000000009660eb 0000004d T _Z32coverage_compute_lineno_checksumv
0000000000966138 00000102 T _Z27coverage_compute_profile_idP11cgraph_node
000000000096623a 00000338 T _Z19dbg_cnt_process_optPKc
00000000009665b4 00000111 T _ZN3gcc12dump_manager15dump_enable_allE9dump_kind9dump_flagPKc
00000000009666c5 00000030 T _Z20enable_rtl_dump_filev
00000000009666f6 00000079 T _ZNK3gcc12dump_manager23update_dfi_for_opt_infoEP14dump_file_info
0000000000966770 0000006c T _ZN3gcc12dump_manager22opt_info_enable_passesE13optgroup_flag9dump_flagPKc
00000000009667dc 000000cf T _ZN3gcc12dump_manager15dump_switch_p_1EPKcP14dump_file_infob
00000000009668ab 00000218 T _Z17opt_info_switch_pPKc
0000000000966ac3 00000077 T _Z26dwarf2out_vms_end_prologuejPKc
0000000000966b3a 00000077 T _Z28dwarf2out_vms_begin_epiloguejPKc
0000000000966bd9 000001ca T _Z23coverage_begin_functionjj
0000000000966da3 000001b3 T _Z21coverage_end_functionjj
00000000009670c0 00000085 T _Z22coverage_counter_allocjj
0000000000967145 0000003b T _Z32cselib_subst_to_values_from_insnP7rtx_def12machine_modeP8rtx_insn
0000000000967180 000001d2 T _Z15dump_cselib_valPP10cselib_valP8_IO_FILE
00000000009673ae 000000a4 T _Z17dump_cselib_tableP8_IO_FILE
0000000000967452 00000039 T _Z24streamer_read_real_valueP15lto_input_blockP10real_value
000000000096748b 00000028 T _Z26bp_pack_string_with_lengthP12output_blockP9bitpack_dPKcjb
00000000009674b3 0000003b T _Z25streamer_write_real_valueP12output_blockPK10real_value
000000000096753c 00000135 T _Z20df_print_word_regsetP8_IO_FILEPK11bitmap_head
0000000000967730 00000012 T _Z14df_reg_definedP8rtx_insnP7rtx_def
0000000000967742 00000012 T _Z11df_reg_usedP8rtx_insnP7rtx_def
0000000000967754 000000b4 T _Z13df_dump_startP8_IO_FILE
0000000000967808 00000342 T _Z17print_rtl_with_bbP8_IO_FILEPK8rtx_insn9dump_flag
00000000009686c5 0000005d T _Z7df_dumpP8_IO_FILE
0000000000968722 000000cd T _Z14df_dump_regionP8_IO_FILE
0000000000968b26 0000000e T _Z17df_rd_add_problemv
0000000000968b34 0000000e T _Z17df_md_add_problemv
0000000000968d68 000001ed T _Z31df_lr_verify_transfer_functionsv
0000000000968f55 000001f7 T _Z33df_live_verify_transfer_functionsv
0000000000969403 00000027 T _Z13df_chain_copyP8df_ref_dP7df_link
00000000009695fe 0000005f T _Z37df_md_simulate_artificial_defs_at_topP15basic_block_defP11bitmap_head
000000000096965d 00000061 T _Z23df_md_simulate_one_insnP15basic_block_defP8rtx_insnP11bitmap_head
0000000000969b9d 00000355 T _Z14df_scan_verifyv
0000000000969ef2 0000001a T _Z9df_verifyv
000000000096a51c 00000098 T _ZN12dump_context9emit_itemEP12optinfo_item9dump_flag
000000000096a6c4 00000096 T _ZN12dump_context18dump_loc_immediateE9dump_flagRK20dump_user_location_t
000000000096a75a 00000010 T _Z39dumpfile_ensure_any_optinfo_are_flushedv
000000000096a910 00000142 T _ZN19dump_pretty_printer13decode_formatEP9text_infoPKcPS3_
000000000096aa52 0000000e T _ZN19dump_pretty_printer17format_decoder_cbEP14pretty_printerP9text_infoPKcibbbPbPS5_
000000000096aa60 00000038 T _ZN19dump_pretty_printerC2EP12dump_context9dump_flag
000000000096aa98 00000020 T _ZN12dump_context9end_scopeEv
000000000096aab8 0000000d T _Z14dump_end_scopev
000000000096aac6 0000009d T _ZN12dump_context18begin_next_optinfoERK15dump_metadata_tRK20dump_user_location_t
000000000096ab64 00000042 T _ZN12dump_context8dump_locERK15dump_metadata_tRK20dump_user_location_t
000000000096aba6 0000002b T _ZN12dump_context22ensure_pending_optinfoERK15dump_metadata_t
000000000096abd2 00000013 T _ZN12dump_context12emit_optinfoEPK7optinfo
000000000096abe5 000000e5 T _Z8dump_dec9dump_flagRK8poly_intILj1E16generic_wide_intI16wide_int_storageEE6signop
000000000096acca 000000d9 T _Z8dump_hex9dump_flagRK8poly_intILj1E16generic_wide_intI16wide_int_storageEE
000000000096ada4 000000be T _ZN3gcc12dump_manager13register_passEP8opt_pass
000000000096ae62 00000158 T _ZN3gcc12dump_manager13dump_switch_pEPKc
000000000096afba 00000079 T _ZN18debug_dump_contextC2EP8_IO_FILE
000000000096b034 0000003c T _ZN18debug_dump_contextD1Ev
000000000096b070 0000005d T _Z30gt_pch_nx_hash_map_char__tree_Pv
000000000096b0cd 00000056 T _Z37gt_pch_nx_hash_map_tree_sym_off_pair_Pv
000000000096b515 000002d2 T _Z10output_cfiP11dw_cfi_nodeP11dw_fde_nodei
000000000096b7e7 00000097 T _Z13debug_cfi_rowP10dw_cfi_row
000000000096b87e 0000003c T _Z20gt_pch_nx_dw_cfi_rowPv
000000000096bf39 00000023 T _Z20ctf_get_die_loc_fileP10die_struct
000000000096bf5c 00000016 T _Z20ctf_get_die_loc_lineP10die_struct
000000000096bf72 00000016 T _Z19ctf_get_die_loc_colP10die_struct
000000000096d164 00000036 T _Z22ctf_debug_early_finishPKc
000000000096d19a 0000002a T _Z16ctf_debug_finishPKc
000000000096d1c4 000000f3 T _Z10ctf_do_dieP10die_struct
000000000096d348 0000006d T _Z14ctf_debug_initv
000000000096d3b5 00000328 T _Z23output_loc_sequence_rawP17dw_loc_descr_node
000000000096dae6 00000078 T _ZN11addr_hasher4hashEP16addr_table_entry
000000000096db5e 0000004f T _ZN11addr_hasher5equalEP16addr_table_entryS1_
000000000096f9c6 00000069 T _Z19output_index_stringPP20indirect_string_nodePj
000000000096fa2f 0000014f T _Z23output_addr_table_entryPP16addr_table_entryPj
000000000096fb7e 0000006b T _Z9gt_ggc_mxR10die_struct
000000000096fbe9 0000003d T _Z26gt_ggc_mx_addr_table_entryPv
000000000096fc26 0000000f T _Z9gt_ggc_mxRP16addr_table_entry
000000000096fc35 00000029 T _Z31gt_ggc_mx_variable_value_structPv
000000000096fc5e 0000000f T _Z9gt_ggc_mxRP21variable_value_struct
000000000096fc6d 00000056 T _Z22gt_ggc_mx_var_loc_nodePv
000000000096fcc3 0000000f T _Z9gt_ggc_mxR16var_loc_list_def
000000000096fcd2 00000028 T _Z26gt_ggc_mx_var_loc_list_defPv
000000000096fcfa 0000000f T _Z9gt_ggc_mxRP16var_loc_list_def
000000000096fd09 00000031 T _Z27gt_ggc_mx_inline_entry_dataPv
000000000096fd3a 0000000f T _Z9gt_ggc_mxRP17inline_entry_data
000000000096fd49 00000012 T _Z9gt_ggc_mxRP20indirect_string_node
000000000096fd5b 00000012 T _Z9gt_ggc_mxRP11dw_fde_node
000000000096fd6d 00000029 T _Z32gt_ggc_mx_cached_dw_loc_list_defPv
000000000096fd96 0000000f T _Z9gt_ggc_mxRP22cached_dw_loc_list_def
000000000096fda5 00000013 T _Z9gt_ggc_mxR22cached_dw_loc_list_def
000000000096fdb8 00000084 T _Z28gt_pch_nx_dw_loc_list_structPv
000000000096fe3c 0000002e T _Z32gt_pch_nx_cached_dw_loc_list_defPv
000000000096fe6a 0000000f T _Z9gt_pch_nxRP22cached_dw_loc_list_def
000000000096fe79 00000056 T _Z40gt_pch_nx_hash_table_dw_loc_list_hasher_Pv
000000000096fecf 00000013 T _Z9gt_pch_nxR22cached_dw_loc_list_def
000000000096fee2 0000003f T _Z31gt_pch_nx_vec_dw_fde_ref_va_gc_Pv
000000000096ff21 00000012 T _Z9gt_pch_nxRP11dw_fde_node
000000000096ff33 0000003a T _Z26gt_pch_nx_vec_char__va_gc_Pv
000000000096ff6d 000000fd T _Z9gt_pch_nxR14dw_attr_struct
000000000097006a 0000003e T _Z33gt_pch_nx_vec_dw_attr_node_va_gc_Pv
00000000009700a8 000000af T _Z20gt_pch_nx_die_structPv
0000000000970157 00000012 T _Z9gt_pch_nxRP10die_struct
0000000000970169 00000054 T _Z26gt_pch_nx_comdat_type_nodePv
00000000009701bd 00000046 T _Z26gt_pch_nx_limbo_die_structPv
0000000000970203 00000056 T _Z37gt_pch_nx_hash_table_decl_die_hasher_Pv
0000000000970259 0000003f T _Z31gt_pch_nx_vec_dw_die_ref_va_gc_Pv
0000000000970298 0000002b T _Z31gt_pch_nx_variable_value_structPv
00000000009702c3 0000000f T _Z9gt_pch_nxRP21variable_value_struct
00000000009702d2 00000056 T _Z43gt_pch_nx_hash_table_variable_value_hasher_Pv
0000000000970328 00000013 T _Z9gt_pch_nxR21variable_value_struct
000000000097033b 00000056 T _Z38gt_pch_nx_hash_table_block_die_hasher_Pv
0000000000970391 0000001f T _Z9gt_pch_nxR14pubname_struct
00000000009703b0 0000003e T _Z34gt_pch_nx_vec_pubname_entry_va_gc_Pv
00000000009703ee 00000026 T _Z9gt_pch_nxR20die_arg_entry_struct
0000000000970414 0000003e T _Z34gt_pch_nx_vec_die_arg_entry_va_gc_Pv
0000000000970452 0000006b T _Z9gt_pch_nxR10die_struct
00000000009704bd 00000056 T _Z39gt_pch_nx_hash_table_dwarf_file_hasher_Pv
0000000000970513 00000009 T _Z9gt_pch_nxP21variable_value_structPFvPvS1_S1_ES1_
000000000097051c 00000009 T _Z9gt_pch_nxP22cached_dw_loc_list_defPFvPvS1_S1_ES1_
0000000000970526 00000014 T _ZN23generic_subrtx_iteratorI16rtx_var_accessorE10array_typeD1Ev
000000000097053a 00000054 T _ZN21const_poly_int_hasher5equalEP7rtx_defRKSt4pairI12machine_mode8poly_intILj1E16generic_wide_intI20wide_int_ref_storageILb0ELb1EEEEE
000000000097058e 0000001a T _ZN19const_double_hasher4hashEP7rtx_def
00000000009705a8 0000001b T _ZN18const_fixed_hasher5equalEP7rtx_defS1_
00000000009705c3 00000095 T _Z22set_reg_attrs_for_parmP7rtx_defS0_
0000000000970658 0000006e T _Z17gen_highpart_mode12machine_modeS_P7rtx_def
00000000009706c6 00000025 T _Z25must_pass_va_arg_in_stackP9tree_node
00000000009706eb 000001d7 T _Z18sort_sibling_loopsP8function
00000000009708c2 00000e1f T _ZN11cgraph_node11verify_nodeEv
00000000009716e2 0000005b T _ZN11symtab_node6verifyEv
000000000097173e 00000182 T _ZN11symtab_node19verify_symtab_nodesEv
00000000009718c0 00000048 T _ZN11cgraph_node19verify_cgraph_nodesEv
0000000000971b90 0000004e T _ZN3gcc7contextD1Ev
0000000000971bde 0000011a T _Z17verify_dominators13cdi_direction
0000000000971cf8 00000c75 T _Z21verify_loop_structurev
000000000097296e 00000035 T _ZN12dump_context15set_json_writerEP21optrecord_json_writer
00000000009729a4 0000006b T _ZN12dump_context16dump_gimple_stmtERK15dump_metadata_t9dump_flagP6gimplei
0000000000972a10 0000003c T _ZN12dump_context20dump_gimple_stmt_locERK15dump_metadata_tRK20dump_user_location_t9dump_flagP6gimplei
0000000000972a4c 00000039 T _Z20dump_gimple_stmt_locRK15dump_metadata_tRK20dump_user_location_t9dump_flagP6gimplei
0000000000972a85 00000039 T _Z16dump_gimple_stmtRK15dump_metadata_t9dump_flagP6gimplei
0000000000972abe 0000006b T _ZN12dump_context16dump_gimple_exprERK15dump_metadata_t9dump_flagP6gimplei
0000000000972b2a 0000003c T _ZN12dump_context20dump_gimple_expr_locERK15dump_metadata_tRK20dump_user_location_t9dump_flagP6gimplei
0000000000972b66 00000039 T _Z20dump_gimple_expr_locRK15dump_metadata_tRK20dump_user_location_t9dump_flagP6gimplei
0000000000972b9f 00000039 T _Z16dump_gimple_exprRK15dump_metadata_t9dump_flagP6gimplei
0000000000972bd8 0000006a T _ZN12dump_context17dump_generic_exprERK15dump_metadata_t9dump_flagP9tree_node
0000000000972c42 00000035 T _ZN12dump_context21dump_generic_expr_locERK15dump_metadata_tRK20dump_user_location_t9dump_flagP9tree_node
0000000000972c77 00000036 T _Z21dump_generic_expr_locRK15dump_metadata_tRK20dump_user_location_t9dump_flagP9tree_node
0000000000972cad 00000036 T _Z17dump_generic_exprRK15dump_metadata_t9dump_flagP9tree_node
0000000000972ce4 0000004e T _ZN19dump_pretty_printer9emit_itemEP12optinfo_itemP7optinfo
0000000000972d32 00000095 T _ZN19dump_pretty_printer31emit_any_pending_textual_chunksEP7optinfo
0000000000972dc8 00000163 T _ZN19dump_pretty_printer10emit_itemsEP7optinfo
0000000000972f2c 000000c8 T _ZN12dump_context14dump_printf_vaERK15dump_metadata_tPKcPA1_13__va_list_tag
0000000000972ff4 00000035 T _ZN12dump_context18dump_printf_loc_vaERK15dump_metadata_tRK20dump_user_location_tPKcPA1_13__va_list_tag
0000000000973029 000000bb T _Z15dump_printf_locRK15dump_metadata_tRK20dump_user_location_tPKcz
00000000009730e4 000000bd T _Z11dump_printfRK15dump_metadata_tPKcz
00000000009731a1 000003e5 T _Z19get_coverage_countsjjjj
0000000000973586 00000062 T _ZN12dump_context16dump_symtab_nodeERK15dump_metadata_tP11symtab_node
00000000009735e8 00000034 T _Z16dump_symtab_nodeRK15dump_metadata_tP11symtab_node
000000000097361c 00000191 T _ZN12dump_context11begin_scopeEPKcRK20dump_user_location_tRK20dump_impl_location_t
00000000009737ad 00000019 T _Z16dump_begin_scopePKcRK20dump_user_location_tRK20dump_impl_location_t
0000000000973896 000000f9 T _Z8dump_decILj1EtEvRK15dump_metadata_tRK8poly_intIXT_ET0_E
000000000097398f 000000f6 T _Z8dump_decILj1ElEvRK15dump_metadata_tRK8poly_intIXT_ET0_E
0000000000973a85 000000f9 T _Z8dump_decILj1EmEvRK15dump_metadata_tRK8poly_intIXT_ET0_E
0000000000973b7e 000000ec T _Z8dump_decILj1E16generic_wide_intI22fixed_wide_int_storageILi128EEEEvRK15dump_metadata_tRK8poly_intIXT_ET0_E
0000000000973c6a 000000f7 T _Z8dump_decILj1E16generic_wide_intI18widest_int_storageILi131072EEEEvRK15dump_metadata_tRK8poly_intIXT_ET0_E
00000000009742a6 00000010 T _Z21debug_dwarf_loc_descrP17dw_loc_descr_node
000000000097447b 00000010 T _Z15debug_dwarf_dieP10die_struct
000000000097448b 00000010 T _Z5debugR10die_struct
000000000097449b 0000001f T _Z5debugP10die_struct
00000000009744ba 00000025 T _Z11debug_dwarfv
000000000097485e 0000003f T _Z27hashtab_entry_note_pointersI16const_int_hasherEvPvS1_PFvS1_S1_S1_ES1_
000000000097489d 0000003f T _Z27hashtab_entry_note_pointersI21const_wide_int_hasherEvPvS1_PFvS1_S1_S1_ES1_
00000000009748dc 0000003f T _Z27hashtab_entry_note_pointersI21const_poly_int_hasherEvPvS1_PFvS1_S1_S1_ES1_
000000000097491b 0000003f T _Z27hashtab_entry_note_pointersI15reg_attr_hasherEvPvS1_PFvS1_S1_S1_ES1_
000000000097495a 0000003f T _Z27hashtab_entry_note_pointersI19const_double_hasherEvPvS1_PFvS1_S1_S1_ES1_
0000000000974999 0000003f T _Z27hashtab_entry_note_pointersI18const_fixed_hasherEvPvS1_PFvS1_S1_S1_ES1_
0000000000974a9b 0000009f T _Z31gt_pch_p_20initial_value_structPvS_PFvS_S_S_ES_
0000000000974b3a 0000003f T _Z27hashtab_entry_note_pointersI17insn_cache_hasherEvPvS1_PFvS1_S1_S1_ES1_
0000000000974b79 0000003f T _Z27hashtab_entry_note_pointersI19temp_address_hasherEvPvS1_PFvS1_S1_S1_ES1_
0000000000974cb7 00000009 T _Z39gt_pch_p_28hash_table_const_int_hasher_PvS_PFvS_S_S_ES_
0000000000974cc0 00000009 T _Z44gt_pch_p_33hash_table_const_wide_int_hasher_PvS_PFvS_S_S_ES_
0000000000974cc9 00000009 T _Z44gt_pch_p_33hash_table_const_poly_int_hasher_PvS_PFvS_S_S_ES_
0000000000974cd2 00000009 T _Z38gt_pch_p_27hash_table_reg_attr_hasher_PvS_PFvS_S_S_ES_
0000000000974cdb 00000009 T _Z42gt_pch_p_31hash_table_const_double_hasher_PvS_PFvS_S_S_ES_
0000000000974ce4 00000009 T _Z41gt_pch_p_30hash_table_const_fixed_hasher_PvS_PFvS_S_S_ES_
0000000000974ced 00000009 T _Z40gt_pch_p_29hash_table_insn_cache_hasher_PvS_PFvS_S_S_ES_
0000000000974cf6 00000009 T _Z42gt_pch_p_31hash_table_temp_address_hasher_PvS_PFvS_S_S_ES_
0000000000974cff 0000001a T _Z8finalizeI10hash_tableI16const_int_hasherLb0E11xcallocatorEEvPv
0000000000974d19 0000001a T _Z8finalizeI10hash_tableI21const_wide_int_hasherLb0E11xcallocatorEEvPv
0000000000974d33 0000001a T _Z8finalizeI10hash_tableI19const_double_hasherLb0E11xcallocatorEEvPv
0000000000974d4d 0000001a T _Z8finalizeI10hash_tableI18const_fixed_hasherLb0E11xcallocatorEEvPv
0000000000974d67 0000001a T _Z8finalizeI10hash_tableI15reg_attr_hasherLb0E11xcallocatorEEvPv
0000000000974d81 0000001a T _Z8finalizeI8hash_mapI9tree_hashP9tree_node21simple_hashmap_traitsI19default_hash_traitsIS1_ES3_EEEvPv
0000000000974d9b 0000001a T _Z8finalizeI10hash_tableI19temp_address_hasherLb0E11xcallocatorEEvPv
0000000000974db5 0000001a T _Z8finalizeI10hash_tableI16used_type_hasherLb0E11xcallocatorEEvPv
0000000000974dcf 00000009 T _Z29gt_pch_p_18call_site_record_dPvS_PFvS_S_S_ES_
0000000000974dd8 00000009 T _Z35gt_pch_p_24hash_map_tree_hash_tree_PvS_PFvS_S_S_ES_
0000000000974eb4 00000009 T _Z19gt_pch_p_9temp_slotPvS_PFvS_S_S_ES_
0000000000974ebd 00000009 T _Z34gt_pch_p_23temp_slot_address_entryPvS_PFvS_S_S_ES_
0000000000974ec6 00000082 T _ZNK40maybe_range_label_for_tree_type_mismatch8get_textEj
0000000000974f48 0000000e T _Z32default_gt_pch_alloc_granularityv
0000000000974fa0 00000045 T _Z27hashtab_entry_note_pointersIN8hash_mapI9tree_hashP9tree_node21simple_hashmap_traitsI19default_hash_traitsIS1_ES3_EE10hash_entryEEvPvSA_PFvSA_SA_SA_ESA_
0000000000975001 000000b7 T _Z27set_new_first_and_last_insnP8rtx_insnS0_
00000000009750b8 00000020 T _Z22get_last_insn_anywherev
00000000009750d8 00000021 T _Z23next_real_nondebug_insnP7rtx_def
00000000009750f9 00000013 T _Z27emit_jump_insn_before_nolocP7rtx_defP8rtx_insn
000000000097510c 00000013 T _Z27emit_call_insn_before_nolocP7rtx_defP8rtx_insn
000000000097511f 00000013 T _Z28emit_debug_insn_before_nolocP7rtx_defP8rtx_insn
0000000000975132 00000010 T _Z26emit_call_insn_after_nolocP7rtx_defP8rtx_insn
0000000000975142 00000010 T _Z27emit_debug_insn_after_nolocP7rtx_defP8rtx_insn
0000000000975152 0000000e T _Z27emit_call_insn_after_setlocP7rtx_defP8rtx_insnj
0000000000975160 00000013 T _Z20emit_call_insn_afterP7rtx_defP8rtx_insn
0000000000975173 0000000e T _Z28emit_debug_insn_after_setlocP7rtx_defP8rtx_insnj
0000000000975181 00000011 T _Z28emit_jump_insn_before_setlocP7rtx_defP8rtx_insnj
0000000000975192 00000011 T _Z28emit_call_insn_before_setlocP7rtx_defP8rtx_insnj
00000000009751a3 00000016 T _Z21emit_call_insn_beforeP7rtx_defP8rtx_insn
00000000009751b9 00000011 T _Z29emit_debug_insn_before_setlocP7rtx_defP8rtx_insnj
00000000009751ca 00000023 T _Z24valid_for_const_vector_p12machine_modeP7rtx_def
00000000009751ed 00000005 T _Z9gt_pch_nxP16const_int_hasherPFvPvS1_S1_ES1_
00000000009751f2 00000005 T _Z9gt_pch_nxP21const_wide_int_hasherPFvPvS1_S1_ES1_
00000000009751f7 00000005 T _Z9gt_pch_nxP21const_poly_int_hasherPFvPvS1_S1_ES1_
00000000009751fc 00000005 T _Z9gt_pch_nxP15reg_attr_hasherPFvPvS1_S1_ES1_
0000000000975201 00000005 T _Z9gt_pch_nxP19const_double_hasherPFvPvS1_S1_ES1_
0000000000975206 00000005 T _Z9gt_pch_nxP18const_fixed_hasherPFvPvS1_S1_ES1_
000000000097520b 00000013 T _Z33get_eh_landing_pad_from_number_fnP8functioni
000000000097521e 00000016 T _Z39current_function_has_exception_handlersv
0000000000975234 000000d8 T _Z23lookup_type_for_runtimeP9tree_node
000000000097530c 0000000c T _Z29sjlj_emit_function_exit_afterP8rtx_insn
0000000000975318 0000003a T _Z17remove_eh_handlerP11eh_region_d
0000000000975352 0000004b T _Z17for_each_eh_labelPFvP7rtx_defE
000000000097539d 00000005 T _Z9gt_pch_nxP9tree_hashPFvPvS1_S1_ES1_
00000000009753ad 0000003c T _Z23get_stack_check_protectv
00000000009753e9 00000019 T _Z16rtx_to_tree_code8rtx_code
0000000000975402 00000044 T _Z18maybe_expand_shift9tree_code12machine_modeP7rtx_defiS2_i
0000000000975446 00000013 T _Z22remap_profile_filenamePKc
0000000000975459 0000001b T _Z19dbr_sequence_lengthv
0000000000975474 0000004e T _Z18label_to_alignmentP7rtx_def
00000000009754e3 00000056 T _Z11fixed_isnegPK11fixed_value
0000000000975539 00000097 T _Z21div_if_zero_remainderPK9tree_nodeS1_
00000000009755d0 0000000f T _Z34fold_deferring_overflow_warnings_pv
00000000009755df 00000083 T _Z9can_min_pPK9tree_nodeS1_R8poly_intILj1E16generic_wide_intI16wide_int_storageEE
0000000000975662 00000058 T _Z26shift_bytes_in_array_rightPhjj
00000000009757b4 00000007 T _ZN19temp_address_hasher4hashEP23temp_slot_address_entry
00000000009757bb 00000029 T _Z35remove_unused_temp_slot_addresses_1PP23temp_slot_address_entryPv
00000000009757e4 00000044 T _Z24has_hard_reg_initial_val12machine_modej
0000000000975828 00000031 T _Z19initial_value_entryiPP7rtx_defS1_
0000000000975859 00000046 T _Z28debug_find_var_in_block_treeP9tree_nodeS0_
000000000097589f 00000014 T _Z19get_next_funcdef_nov
00000000009758b3 0000000b T _Z19get_last_funcdef_nov
00000000009758be 0000002a T _Z26prologue_epilogue_containsPK8rtx_insn
00000000009758e8 00000010 T _Z19record_prologue_seqP8rtx_insn
00000000009758f8 00000010 T _Z19record_epilogue_seqP8rtx_insn
0000000000975908 0000001a T _Z11fndecl_nameP9tree_node
0000000000975922 00000023 T _Z13function_namePK8function
0000000000975945 0000000d T _Z21current_function_namev
0000000000975952 0000001a T _ZN16used_type_hasher5equalEP24types_used_by_vars_entryS1_
000000000097596c 00000027 T _Z9gt_ggc_mxR23temp_slot_address_entry
0000000000975993 00000005 T _Z9gt_pch_nxP17insn_cache_hasherPFvPvS1_S1_ES1_
0000000000975998 0000002b T _Z9gt_pch_nxP23temp_slot_address_entryPFvPvS1_S1_ES1_
00000000009759c3 00000005 T _Z9gt_pch_nxP19temp_address_hasherPFvPvS1_S1_ES1_
00000000009759ec 00000037 T _ZN23predefined_function_abi20add_full_reg_clobberEj
0000000000975a29 0000000e T _Z16gcse_cc_finalizev
0000000000975a43 000000f2 T _Z21ggc_register_root_tabPK12ggc_root_tab
0000000000975b35 00000007 T _Z26default_gt_pch_get_addressmi
0000000000975b3c 0000001d T _Z26default_gt_pch_use_addressRPvmim
0000000000975b59 00000041 T _Z23mmap_gt_pch_get_addressmi
0000000000975b9a 0000003a T _Z23mmap_gt_pch_use_addressRPvmim
0000000000975bd4 000000a6 T _Z19ggc_common_finalizev
0000000000975c84 00000049 T _Z12empty_body_pP6gimple
0000000000975ccd 00000015 T _Z22dump_gimple_statisticsv
0000000000975ce2 00000011 T _Z20gimple_unsigned_typeP9tree_node
0000000000975cf3 000000b6 T _Z13dump_decl_setP8_IO_FILEP11bitmap_head
0000000000975da9 0000007a T _Z17is_gimple_addressPK9tree_node
0000000000975e2d 00000028 T _Z11gsi_for_phiP4gphi
0000000000975f1c 00000009 T _Z26check_nul_terminated_arrayP6gimpleP9tree_nodeS2_
0000000000975f25 00000009 T _Z24maybe_warn_nonstring_argP9tree_nodeS0_
0000000000975fc1 0000001a T _Z24gimple_current_bind_exprv
0000000000975fdb 00000010 T _Z22gimple_bind_expr_stackv
0000000000976062 0000002c T _ZN11pieces_addr17increment_addressEl
0000000000976156 00000047 T _Z21need_atomic_barrier_p8memmodelb
00000000009761e1 00000071 T _Z17update_alignmentsR3vecIP7rtx_def7va_heap6vl_ptrE
0000000000976252 0000049e T _Z11asm_fprintfP8_IO_FILEPKcz
00000000009766f0 0000005a T _Z22final_forward_branch_pP8rtx_insn
000000000097678e 0000001f T _Z19ggc_splay_dont_freePvS_
00000000009767ad 00000068 T _Z20gt_pch_note_callbackPvS_
0000000000976815 00000054 T _Z19gt_pch_note_reorderPvS_PFvS_S_PFvS_S_S_ES_E
0000000000976ffe 0000028a T _ZN22address_reload_context12emit_autoincEP7rtx_def8poly_intILj1ElE
0000000000977288 00000055 T _Z24get_hard_reg_initial_regP7rtx_def
00000000009772dd 00000068 T _Z20force_reload_addressP7rtx_def
00000000009775b8 000001b6 T _Z19widen_memory_accessP7rtx_def12machine_mode8poly_intILj1ElE
000000000097797e 00000082 T _Z18verify_rtl_sharingv
0000000000977a00 00000080 T _Z14make_safe_fromP7rtx_defS0_
0000000000977a80 00000056 T _Z22get_first_nonnote_insnv
0000000000977ad6 0000005d T _Z21get_last_nonnote_insnv
0000000000977b33 00000027 T _Z16prev_active_insnP8rtx_insn
0000000000977b5a 0000003d T _Z19emit_barrier_beforeP8rtx_insn
0000000000977b97 00000026 T _Z16emit_label_afterP8rtx_insnS0_
0000000000977bbd 00000021 T _Z21emit_likely_jump_insnP7rtx_def
0000000000977bde 00000021 T _Z23emit_unlikely_jump_insnP7rtx_def
0000000000977bff 00000024 T _Z20pop_topmost_sequencev
0000000000977c23 00000026 T _Z11gen_clobberP7rtx_def
0000000000977c49 00000027 T _Z21push_topmost_sequencev
0000000000977c70 00000026 T _Z7gen_useP7rtx_def
0000000000977c96 0000001e T _Z20copy_delay_slot_insnP8rtx_insn
0000000000977cb4 000001e7 T _Z20const_vector_int_eltPK7rtx_defj
0000000000977f55 000000f6 T _Z20const_vec_series_p_1PK7rtx_defPPS_S3_
000000000097804b 0000001f T _Z9insn_linePK8rtx_insn
000000000097806a 0000001f T _Z9insn_filePK8rtx_insn
00000000009780a9 00000039 T _Z21gen_eh_region_allowedP11eh_region_dP9tree_node
00000000009780e2 0000009c T _Z19eh_region_outermostP8functionP11eh_region_dS2_
000000000097817e 00000114 T _Z23find_bitfield_repr_typeii
00000000009787b7 00000018 T _Z19update_sjlj_contextv
00000000009787cf 00000010 T _Z26expand_builtin_unwind_initv
00000000009787df 00000055 T _Z34expand_builtin_extract_return_addrP9tree_node
0000000000978834 00000038 T _Z31expand_builtin_frob_return_addrP9tree_node
000000000097886c 000000e6 T _Z24expand_builtin_eh_returnP9tree_nodeS0_
0000000000978952 00000040 T _Z29expand_builtin_extend_pointerP9tree_node
0000000000978a64 000002ad T _Z12dump_eh_treeP8_IO_FILEP8function
0000000000978d11 00000013 T _Z13debug_eh_treeP8function
0000000000978d24 0000022c T _Z14verify_eh_treeP8function
0000000000978f50 00000028 T _Z28gt_ggc_mx_call_site_record_dPv
0000000000978f78 00000037 T _Z33gt_ggc_mx_temp_slot_address_entryPv
0000000000978faf 0000000f T _Z9gt_ggc_mxRP23temp_slot_address_entry
000000000097903c 000000cd T _Z17record_final_callP9tree_nodej
0000000000979109 0000011f T _Z20record_dynamic_allocP9tree_node
0000000000979228 0000006e T _Z12force_subreg12machine_modeP7rtx_defS_8poly_intILj1EmE
0000000000979296 00000062 T _Z30update_nonlocal_goto_save_areav
00000000009792f8 000000bc T _Z22get_dynamic_stack_base8poly_intILj1ElEjP7rtx_def
00000000009793b4 00000574 T _Z17probe_stack_rangelP7rtx_def
0000000000979928 00000358 T _Z27anti_adjust_stack_and_probeP7rtx_defb
0000000000979c80 00000175 T _Z18flip_storage_order12machine_modeP7rtx_def
0000000000979df5 00000106 T _Z27expand_mult_highpart_adjust15scalar_int_modeP7rtx_defS1_S1_S1_i
0000000000979efb 0000006b T _Z17emit_storent_insnP7rtx_defS0_
0000000000979f66 000005d3 T _Z19emit_store_flag_intP7rtx_defS0_8rtx_codeS0_S0_15scalar_int_modeiiS0_
000000000097a539 00000075 T _Z26convert_float_to_wider_int12machine_modeS_P7rtx_def
000000000097a5ae 0000006e T _Z26convert_wider_int_to_float12machine_modeS_P7rtx_def
000000000097a61c 00000053 T _ZN16move_by_pieces_d14finish_retmodeE9memop_ret
000000000097a670 00000053 T _ZN17store_by_pieces_d14finish_retmodeE9memop_ret
000000000097a999 00000064 T _Z16clobber_reg_modePP7rtx_defS0_12machine_mode
000000000097abc3 0000018c T _Z22emit_move_resolve_push12machine_modeP7rtx_def
000000000097ad4f 000000d5 T _Z22emit_move_complex_push12machine_modeP7rtx_defS1_
000000000097ae24 00000078 T _Z23emit_move_complex_partsP7rtx_defS0_
000000000097b13d 000005a3 T _Z28maybe_optimize_pow2p_mod_cmp9tree_codePP9tree_nodeS2_
000000000097b7a6 00000016 T _Z20add_macro_prefix_mapPKc
000000000097b7bc 00000016 T _Z20add_debug_prefix_mapPKc
000000000097b7d2 0000003f T _Z19add_file_prefix_mapPKc
000000000097b811 00000016 T _Z22add_profile_prefix_mapPKc
000000000097b827 00000102 T _Z27get_some_local_dynamic_namev
000000000097ba25 0000001b T _Z18insn_discriminatorPK8rtx_insn
000000000097ba40 00000118 T _Z22output_operand_lossagePKcz
000000000097be4e 000000a5 T _Z21fixed_from_double_int10double_int11scalar_mode
000000000097bef3 000001b1 T _Z17fixed_from_stringP11fixed_valuePKc11scalar_mode
000000000097c0a4 00000164 T _Z16fixed_to_decimalPcPK11fixed_valuem
000000000097c208 000001ef T _Z23fixed_convert_from_realP11fixed_value11scalar_modePK10real_valueb
000000000097c9c5 0000020c T _Z22fixed_convert_from_intP11fixed_value11scalar_mode10double_intbb
000000000097cd95 00000316 T _Z13fixed_convertP11fixed_value11scalar_modePKS_b
000000000097d0ab 00000ac5 T _Z16fixed_arithmeticP11fixed_valueiPKS_S2_b
000000000097db70 00000151 T _Z13fixed_compareiPK11fixed_valueS1_
000000000097dcc1 0000016a T _Z23real_convert_from_fixedP10real_value11scalar_modePK11fixed_value
000000000097de2b 000000ba T _Z21native_interpret_realP9tree_nodePKhi
000000000097dee5 00000596 T _Z26native_interpret_aggregateP9tree_nodePKhii
000000000097e47b 00000045 T _Z30fold_unary_ignore_overflow_locj9tree_codeP9tree_nodeS1_
000000000097e4c0 00000023 T _Z22fold_unary_to_constant9tree_codeP9tree_nodeS1_
000000000097e76d 00000072 T _Z37fold_build_call_array_initializer_locjP9tree_nodeS0_iPS0_
000000000097e7df 00000054 T _Z25tree_expr_signaling_nan_pPK9tree_node
000000000097e833 0000006b T _Z27ctor_single_nonzero_elementPK9tree_node
000000000097f114 00000018 T _ZN19temp_address_hasher5equalEP23temp_slot_address_entryS1_
000000000097f12c 000000c4 T _Z24get_hard_reg_initial_val12machine_modej
000000000097f1f0 0000002f T _Z15ggc_splay_allociPv
000000000097f4c8 0000012e T _Z22stack_protect_epiloguev
000000000097f5f6 00000013 T _Z18pop_dummy_functionv
000000000097f609 000000aa T _Z25get_arg_pointer_save_areav
000000000097f7ec 000000a8 T _Z15expr_callee_abiPK9tree_node
000000000097f894 00000041 T _ZN17gcc_rich_location8add_exprEP9tree_nodeP11range_label
000000000097f8d6 00000019 T _ZN17gcc_rich_location14maybe_add_exprEP9tree_nodeP11range_label
000000000097f8f0 00000028 T _ZN17gcc_rich_location23add_fixit_misspelled_idEjP9tree_node
000000000097fc7e 0000007f T _ZN23binary_op_rich_location18use_operator_loc_pERK13op_location_tP9tree_nodeS4_
000000000097fcfe 000000c3 T _ZN23binary_op_rich_locationC2ERK13op_location_tP9tree_nodeS4_b
000000000097fe0e 00000036 T _Z34ggc_cleared_alloc_htab_ignore_argsmm
000000000097ffaa 00000024 T _Z36ggc_cleared_alloc_ptr_array_two_argsmm
0000000000980223 000000ee T _Z17ggc_free_overheadPv
0000000000980311 00000747 T _Z19ggc_record_overheadmmPv
0000000000980a6b 0000000b T _Z27ggc_print_common_statisticsP8_IO_FILEP14ggc_statistics
0000000000980a76 00000197 T _Z18gt_pch_note_objectPvS_PFvS_S_PFvS_S_S_ES_Em
0000000000980c0d 00000056 T _Z38gt_pch_nx_hash_table_const_int_hasher_Pv
0000000000980c63 00000056 T _Z43gt_pch_nx_hash_table_const_wide_int_hasher_Pv
0000000000980cb9 00000056 T _Z43gt_pch_nx_hash_table_const_poly_int_hasher_Pv
0000000000980d0f 00000056 T _Z37gt_pch_nx_hash_table_reg_attr_hasher_Pv
0000000000980d65 00000056 T _Z41gt_pch_nx_hash_table_const_double_hasher_Pv
0000000000980dbb 00000056 T _Z40gt_pch_nx_hash_table_const_fixed_hasher_Pv
0000000000980e11 0000002d T _Z28gt_pch_nx_call_site_record_dPv
0000000000980e3e 00000069 T _Z34gt_pch_nx_hash_map_tree_hash_tree_Pv
0000000000980ea7 00000057 T _Z19gt_pch_nx_temp_slotPv
0000000000980efe 00000024 T _Z9gt_pch_nxR23temp_slot_address_entry
0000000000980f22 00000087 T _Z30gt_pch_nx_initial_value_structPv
0000000000980fa9 00000056 T _Z39gt_pch_nx_hash_table_insn_cache_hasher_Pv
0000000000980fff 0000003c T _Z33gt_pch_nx_temp_slot_address_entryPv
000000000098103b 0000000f T _Z9gt_pch_nxRP23temp_slot_address_entry
000000000098104a 00000056 T _Z41gt_pch_nx_hash_table_temp_address_hasher_Pv
00000000009810a0 00000026 T _Z14ggc_call_countPP8ptr_dataP15traversal_state
00000000009810c6 0000003f T _Z14ggc_call_allocPP8ptr_dataP15traversal_state
0000000000981105 00000788 T _Z11gt_pch_saveP8_IO_FILE
000000000098188d 000004b1 T _Z14gt_pch_restoreP8_IO_FILE
0000000000981d3e 000000a0 T _Z23ggc_prune_overhead_listv
0000000000981dde 0000002a T _Z22gimple_build_eh_filterP9tree_nodeP6gimple
0000000000981e08 00000033 T _Z25gimple_build_omp_criticalP6gimpleP9tree_nodeS2_
0000000000981e3b 00000072 T _Z20gimple_build_omp_forP6gimpleiP9tree_nodemS0_
0000000000981ead 00000041 T _Z25gimple_build_omp_parallelP6gimpleP9tree_nodeS2_S2_
0000000000981eee 00000060 T _Z21gimple_build_omp_taskP6gimpleP9tree_nodeS2_S2_S2_S2_S2_
0000000000981f4e 0000001f T _Z24gimple_build_omp_sectionP6gimple
0000000000981f6d 0000001f T _Z33gimple_build_omp_structured_blockP6gimple
0000000000981f8c 0000001f T _Z23gimple_build_omp_masterP6gimple
0000000000981fab 0000002a T _Z23gimple_build_omp_maskedP6gimpleP9tree_node
0000000000981fd5 0000002a T _Z26gimple_build_omp_taskgroupP6gimpleP9tree_node
0000000000981fff 00000025 T _Z25gimple_build_omp_continueP9tree_nodeS0_
0000000000982024 0000002a T _Z24gimple_build_omp_orderedP6gimpleP9tree_node
000000000098204e 0000001e T _Z23gimple_build_omp_returnb
000000000098206c 0000002a T _Z21gimple_build_omp_scanP6gimpleP9tree_node
0000000000982096 0000002a T _Z25gimple_build_omp_sectionsP6gimpleP9tree_node
00000000009820c0 00000010 T _Z32gimple_build_omp_sections_switchv
00000000009820d0 0000002a T _Z23gimple_build_omp_singleP6gimpleP9tree_node
00000000009820fa 0000002a T _Z22gimple_build_omp_scopeP6gimpleP9tree_node
0000000000982124 0000003e T _Z23gimple_build_omp_targetP6gimpleiP9tree_node
0000000000982162 0000002a T _Z22gimple_build_omp_teamsP6gimpleP9tree_node
000000000098218c 00000039 T _Z28gimple_build_omp_atomic_loadP9tree_nodeS0_16omp_memory_order
00000000009821c5 00000030 T _Z29gimple_build_omp_atomic_storeP9tree_node16omp_memory_order
00000000009821f5 00000025 T _Z19gimple_build_assumeP9tree_nodeP6gimple
000000000098221a 00000028 T _Z24gimple_build_transactionP6gimple
0000000000982242 0000002c T _Z23gimple_seq_set_locationP6gimplej
000000000098226e 00000118 T _Z26gimple_call_copy_skip_argsP5gcallP11bitmap_head
0000000000982386 00000029 T _Z19infer_nonnull_rangeP6gimpleP9tree_node
00000000009823af 00000060 T _Z26gimple_decl_printable_nameP9tree_nodei
000000000098240f 000000e8 T _Z13copy_var_declP9tree_nodeS0_S0_
0000000000982782 000000af T _Z22gsi_safe_insert_beforeP20gimple_stmt_iteratorP6gimple
0000000000982831 000000e9 T _Z26gsi_safe_insert_seq_beforeP20gimple_stmt_iteratorP6gimple
000000000098291a 0000014e T _Z18valid_gimple_rhs_pP9tree_node
000000000098374b 000000f6 T _Z31omp_check_mapping_compatibilityjP17omp_mapping_groupS0_
0000000000984746 0000008c T _Z26clear_type_padding_in_maskP9tree_nodePh
00000000009847d2 000003e1 T _Z36fold_builtin_atomic_compare_exchangeP20gimple_stmt_iterator
0000000000984bb3 000000dd T _Z12gimple_buildP20gimple_stmt_iteratorb19gsi_iterator_updatej11combined_fnP9tree_node
0000000000984c90 00000126 T _Z12gimple_buildP20gimple_stmt_iteratorb19gsi_iterator_updatej11combined_fnP9tree_nodeS4_S4_
0000000000984db6 00000145 T _Z12gimple_buildP20gimple_stmt_iteratorb19gsi_iterator_updatej11combined_fnP9tree_nodeS4_S4_S4_
0000000000984efb 00000024 T _Z12gimple_buildP20gimple_stmt_iteratorb19gsi_iterator_updatej11code_helperP9tree_nodeS4_
0000000000984f1f 00000038 T _Z12gimple_buildP20gimple_stmt_iteratorb19gsi_iterator_updatej11code_helperP9tree_nodeS4_S4_S4_
0000000000984f57 00000057 T _Z28gimple_convert_to_ptrofftypeP20gimple_stmt_iteratorb19gsi_iterator_updatejP9tree_node
0000000000984fae 000000af T _Z21gimple_build_round_upP20gimple_stmt_iteratorb19gsi_iterator_updatejP9tree_nodeS3_m
000000000098505d 00000134 T _Z33gimple_stmt_integer_valued_real_pP6gimplei
0000000000985191 000000a0 T _Z28integer_valued_real_single_pP9tree_nodei
0000000000985231 00000107 T _Z21integer_valued_real_pP9tree_nodei
0000000000985338 00000045 T _Z27integer_valued_real_unary_p9tree_codeP9tree_nodei
000000000098537d 00000045 T _Z28integer_valued_real_binary_p9tree_codeP9tree_nodeS1_i
00000000009853c2 000000a8 T _Z26integer_valued_real_call_p11combined_fnP9tree_nodeS1_i
0000000000986675 00000012 T _Z18warn_string_no_nuljP6gimplePKcP9tree_nodeS4_S4_bPK16generic_wide_intI16wide_int_storageE
0000000000986a2f 00000012 T _Z18warn_string_no_nuljP9tree_nodePKcS0_S0_S0_bPK16generic_wide_intI16wide_int_storageE
0000000000986f66 00000009 T _Z20maybe_warn_for_bound8opt_codejP6gimpleP9tree_nodePS3_S3_PK11access_data
0000000000987494 00000009 T _Z20maybe_warn_for_bound8opt_codejP9tree_nodeS1_PS1_S1_PK11access_data
0000000000988152 00000016 T _Z14copy_if_sharedPP9tree_nodePv
000000000098946b 000000c5 T _Z27omp_firstprivatize_variableP16gimplify_omp_ctxP9tree_node
0000000000989af7 0000002f T _Z19debug_mapping_groupP17omp_mapping_group
0000000000989c9d 0000026d T _Z32oacc_resolve_clause_dependenciesP3vecI17omp_mapping_group7va_heap6vl_ptrEP8hash_mapI23tree_operand_hash_no_sePS0_21simple_hashmap_traitsI19default_hash_traitsIS6_ES7_EE
000000000098a364 00000498 T _Z31omp_resolve_clause_dependencies9tree_codeP3vecI17omp_mapping_group7va_heap6vl_ptrEP8hash_mapI23tree_operand_hash_no_sePS1_21simple_hashmap_traitsI19default_hash_traitsIS7_ES8_EE
000000000098b079 000004d8 T _Z30omp_construct_selector_matchesP9tree_codeiPi
000000000098bdc1 00000108 T _Z20gen_const_vec_series12machine_modeP7rtx_defS1_
000000000098bec9 00000088 T _Z14gen_vec_series12machine_modeP7rtx_defS1_
000000000098bf51 00000009 T _Z8finalizeI8hash_setIP9tree_nodeLb0E19default_hash_traitsIS2_EEEvPv
000000000098bfa0 000001b4 T _ZN17gcc_rich_location26add_fixit_insert_formattedEPKcjj
000000000098c51f 0000005b T _Z25dump_ssaname_info_to_fileP8_IO_FILEP9tree_nodei
000000000098c57a 00001d16 T _Z16pp_gimple_stmt_1P14pretty_printerPK6gimplei9dump_flag
000000000098e290 00000065 T _Z17print_gimple_stmtP8_IO_FILEP6gimplei9dump_flag
000000000098e2f5 00000017 T _Z17debug_gimple_stmtP6gimple
000000000098e30c 00000017 T _Z5debugR6gimple
000000000098e323 0000001c T _Z5debugP6gimple
000000000098e33f 00000066 T _Z17print_gimple_exprP8_IO_FILEP6gimplei9dump_flag
000000000098e4f4 00000065 T _Z16print_gimple_seqP8_IO_FILEP6gimplei9dump_flag
000000000098e559 00000017 T _Z16debug_gimple_seqP6gimple
000000000098f32e 00000353 T _Z14gimple_dump_bbP8_IO_FILEP15basic_block_defi9dump_flag
000000000098f681 00000149 T _Z24gimple_dump_bb_for_graphP14pretty_printerP15basic_block_def
000000000098f7ca 00000009 T _Z24maybe_warn_nonstring_argP9tree_nodeP6gimple
0000000000997874 0000001f T _Z24gt_pch_p_13string_concatPvS_PFvS_S_S_ES_
0000000000997893 00000045 T _Z27hashtab_entry_note_pointersIN8hash_mapI8int_hashIjLj0ELj1EEP13string_concat21simple_hashmap_traitsI19default_hash_traitsIS2_ES4_EE10hash_entryEEvPvSB_PFvSB_SB_SB_ESB_
00000000009978d8 00000216 T _Z17gt_pch_p_7rtx_defPvS_PFvS_S_S_ES_
0000000000997aee 00000048 T _Z19gt_pch_p_9rtvec_defPvS_PFvS_S_S_ES_
0000000000997b36 00000076 T _Z22gt_pch_p_11cgraph_edgePvS_PFvS_S_S_ES_
0000000000997bac 0000008e T _Z27gt_pch_p_16cl_target_optionPvS_PFvS_S_S_ES_
0000000000997c3a 0000006a T _Z26gt_pch_p_15basic_block_defPvS_PFvS_S_S_ES_
0000000000997ca4 00000044 T _Z27gt_pch_p_16machine_functionPvS_PFvS_S_S_ES_
0000000000997ce8 0000003e T _Z23gt_pch_p_12object_blockPvS_PFvS_S_S_ES_
0000000000997d26 000000c9 T _Z18gt_pch_p_8functionPvS_PFvS_S_S_ES_
0000000000997def 000000e8 T _Z21gt_pch_p_10target_rtlPvS_PFvS_S_S_ES_
0000000000997ed7 00000018 T _Z23gt_pch_p_12ptr_info_defPvS_PFvS_S_S_ES_
0000000000997eef 00000034 T _Z25gt_pch_p_14target_globalsPvS_PFvS_S_S_ES_
0000000000997f23 00000033 T _Z18gt_pch_p_8tree_mapPvS_PFvS_S_S_ES_
0000000000997f56 00000033 T _Z24gt_pch_p_13tree_decl_mapPvS_PFvS_S_S_ES_
0000000000997f89 0000001a T _Z23gt_pch_p_12tree_int_mapPvS_PFvS_S_S_ES_
0000000000997fa3 00000006 T _Z23gt_pch_p_12tree_vec_mapPvS_PFvS_S_S_ES_
0000000000997fa9 00000018 T _Z24gt_pch_p_13libfunc_entryPvS_PFvS_S_S_ES_
0000000000997fc1 0000003f T _Z27hashtab_entry_note_pointersI14libfunc_hasherEvPvS1_PFvS1_S1_S1_ES1_
0000000000998000 00000065 T _Z26gt_pch_p_15target_libfuncsPvS_PFvS_S_S_ES_
0000000000998065 00000080 T _Z19gt_pch_p_9gimple_dfPvS_PFvS_S_S_ES_
00000000009980e5 0000005f T _Z19gt_pch_p_9eh_statusPvS_PFvS_S_S_ES_
0000000000998144 00000049 T _Z29gt_pch_p_18control_flow_graphPvS_PFvS_S_S_ES_
000000000099818d 0000003f T _Z15gt_pch_p_5loopsPvS_PFvS_S_S_ES_
00000000009981cc 0000003f T _Z27hashtab_entry_note_pointersI19default_hash_traitsIP9tree_nodeEEvPvS4_PFvS4_S4_S4_ES4_
000000000099820b 0000003f T _Z27hashtab_entry_note_pointersI16used_type_hasherEvPvS1_PFvS1_S1_S1_ES1_
000000000099824a 00000033 T _Z24gt_pch_p_13nb_iter_boundPvS_PFvS_S_S_ES_
000000000099827d 000000b8 T _Z14gt_pch_p_4loopPvS_PFvS_S_S_ES_
0000000000998335 0000005f T _Z21gt_pch_p_10niter_descPvS_PFvS_S_S_ES_
0000000000998394 0000003f T _Z27hashtab_entry_note_pointersI16loop_exit_hasherEvPvS1_PFvS1_S1_S1_ES1_
00000000009983d3 00000054 T _Z29gt_pch_p_18lto_file_decl_dataPvS_PFvS_S_S_ES_
0000000000998427 000000b3 T _Z28gt_pch_p_17cgraph_simd_clonePvS_PFvS_S_S_ES_
00000000009984da 0000003f T _Z27hashtab_entry_note_pointersI18cgraph_edge_hasherEvPvS1_PFvS1_S1_S1_ES1_
0000000000998519 0000003f T _Z36gt_pch_p_25cgraph_indirect_call_infoPvS_PFvS_S_S_ES_
0000000000998558 00000018 T _Z21gt_pch_p_10thunk_infoPvS_PFvS_S_S_ES_
0000000000998570 0000007c T _Z23gt_pch_p_12symbol_tablePvS_PFvS_S_S_ES_
00000000009985ec 0000003f T _Z27hashtab_entry_note_pointersI19section_name_hasherEvPvS1_PFvS1_S1_S1_ES1_
000000000099862b 0000003f T _Z27hashtab_entry_note_pointersI14asmname_hasherEvPvS1_PFvS1_S1_S1_ES1_
000000000099866a 00000042 T _Z27hashtab_entry_note_pointersIN8hash_mapIP11symtab_node19symbol_priority_map21simple_hashmap_traitsI19default_hash_traitsIS2_ES3_EE10hash_entryEEvPvSA_PFvSA_SA_SA_ESA_
00000000009986ac 0000004a T _Z28gt_pch_p_17lto_in_decl_statePvS_PFvS_S_S_ES_
00000000009986f6 0000003f T _Z25gt_pch_p_14ipa_fn_summaryPvS_PFvS_S_S_ES_
0000000000998735 000000fb T _Z28gt_pch_p_17dw_loc_descr_nodePvS_PFvS_S_S_ES_
0000000000998830 00000034 T _Z23gt_pch_p_12ctf_func_argPvS_PFvS_S_S_ES_
0000000000998864 0000003f T _Z27hashtab_entry_note_pointersI15ctfc_dtd_hasherEvPvS1_PFvS1_S1_S1_ES1_
00000000009988a3 0000003f T _Z27hashtab_entry_note_pointersI15ctfc_dvd_hasherEvPvS1_PFvS1_S1_S1_ES1_
00000000009988e2 0000010d T _Z24gt_pch_p_13ctf_containerPvS_PFvS_S_S_ES_
00000000009989ef 000000b9 T _Z22gt_pch_p_11eh_region_dPvS_PFvS_S_S_ES_
0000000000998aa8 00000042 T _Z27hashtab_entry_note_pointersIN8hash_mapIP6gimplei21simple_hashmap_traitsI19default_hash_traitsIS2_EiEE10hash_entryEEvPvS9_PFvS9_S9_S9_ES9_
0000000000998aea 0000003f T _Z27hashtab_entry_note_pointersI15ssa_name_hasherEvPvS1_PFvS1_S1_S1_ES1_
0000000000998b29 0000003f T _Z27hashtab_entry_note_pointersI17tm_restart_hasherEvPvS1_PFvS1_S1_S1_ES1_
0000000000998b68 0000003f T _Z27hashtab_entry_note_pointersI17decl_state_hasherEvPvS1_PFvS1_S1_S1_ES1_
0000000000998ba7 0000003c T _Z25gt_pch_p_14vec_rtx_va_gc_PvS_PFvS_S_S_ES_
0000000000998be3 00000005 T _Z48gt_pch_p_37vec_ipa_freqcounting_predicate_va_gc_PvS_PFvS_S_S_ES_
0000000000998be8 00000005 T _Z22gt_pch_p_11fixed_valuePvS_PFvS_S_S_ES_
0000000000998bed 00000005 T _Z26gt_pch_p_15cgraph_rtl_infoPvS_PFvS_S_S_ES_
0000000000998bf2 00000005 T _Z25gt_pch_p_14vrange_storagePvS_PFvS_S_S_ES_
0000000000998bf7 0000003c T _Z31gt_pch_p_20vec_rtx_insn__va_gc_PvS_PFvS_S_S_ES_
0000000000998c33 0000003c T _Z38gt_pch_p_27vec_call_site_record_va_gc_PvS_PFvS_S_S_ES_
0000000000998c6f 00000040 T _Z37gt_pch_p_26vec_callinfo_callee_va_gc_PvS_PFvS_S_S_ES_
0000000000998caf 00000040 T _Z37gt_pch_p_26vec_callinfo_dalloc_va_gc_PvS_PFvS_S_S_ES_
0000000000998cef 0000003c T _Z28gt_pch_p_17vec_loop_p_va_gc_PvS_PFvS_S_S_ES_
0000000000998d2b 0000003c T _Z33gt_pch_p_22vec_basic_block_va_gc_PvS_PFvS_S_S_ES_
0000000000998d67 0000003c T _Z26gt_pch_p_15vec_edge_va_gc_PvS_PFvS_S_S_ES_
0000000000998da3 0000003c T _Z38gt_pch_p_27vec_ipa_replace_map__va_gc_PvS_PFvS_S_S_ES_
0000000000998ddf 00000005 T _Z38gt_pch_p_27modref_tree_alias_set_type_PvS_PFvS_S_S_ES_
0000000000998de4 00000005 T _Z22gt_pch_p_11dw_wide_intPvS_PFvS_S_S_ES_
0000000000998de9 0000003c T _Z32gt_pch_p_21vec_dw_cfi_ref_va_gc_PvS_PFvS_S_S_ES_
0000000000998e25 0000003c T _Z33gt_pch_p_22vec_temp_slot_p_va_gc_PvS_PFvS_S_S_ES_
0000000000998e61 0000003c T _Z31gt_pch_p_20vec_eh_region_va_gc_PvS_PFvS_S_S_ES_
0000000000998e9d 0000003c T _Z36gt_pch_p_25vec_eh_landing_pad_va_gc_PvS_PFvS_S_S_ES_
0000000000998ed9 00000040 T _Z42gt_pch_p_31vec_ipa_param_descriptor_va_gc_PvS_PFvS_S_S_ES_
0000000000998f19 00000040 T _Z38gt_pch_p_27vec_ipa_argagg_value_va_gc_PvS_PFvS_S_S_ES_
0000000000998f59 00000005 T _Z44gt_pch_p_33vec_ipa_uid_to_idx_map_elt_va_gc_PvS_PFvS_S_S_ES_
0000000000998fcc 00000005 T _Z27hashtab_entry_note_pointersIN8hash_mapI8int_hashIjLj0ELj1EE13nowarn_spec_t21simple_hashmap_traitsI19default_hash_traitsIS2_ES3_EE10hash_entryEEvPvSA_PFvSA_SA_SA_ESA_
0000000000998ff5 0000003c T _Z35gt_pch_p_24vec_param_access__va_gc_PvS_PFvS_S_S_ES_
0000000000999031 00000040 T _Z37gt_pch_p_26vec_isra_param_desc_va_gc_PvS_PFvS_S_S_ES_
0000000000999071 00000033 T _Z21gt_pch_p_10odr_type_dPvS_PFvS_S_S_ES_
00000000009990a4 0000003c T _Z30gt_pch_p_19vec_odr_type_va_gc_PvS_PFvS_S_S_ES_
00000000009990e0 00000005 T _Z28gt_pch_p_17modref_tree_tree_PvS_PFvS_S_S_ES_
0000000000999109 00000020 T _Z10cmp_countsPKvS0_
0000000000999129 0000003f T _Z27hashtab_entry_note_pointersI22ipa_vr_ggc_hash_traitsEvPvS1_PFvS1_S1_S1_ES1_
00000000009992a4 0000003a T _Z24lhd_tree_dump_type_qualsPK9tree_node
00000000009992de 00000007 T _Z18lhd_omp_array_sizeP9tree_nodePP6gimple
00000000009992e5 00000033 T _Z16lhd_omp_scalar_pP9tree_nodeb
0000000000999318 00000009 T _Z21lhd_omp_get_decl_initP9tree_node
0000000000999343 0000001a T _Z8finalizeI10hash_tableI22ipa_vr_ggc_hash_traitsLb0E11xcallocatorEEvPv
00000000009995fb 00000009 T _Z27gt_pch_p_16string_concat_dbPvS_PFvS_S_S_ES_
0000000000999604 00000009 T _Z19gt_pch_p_9mem_attrsPvS_PFvS_S_S_ES_
000000000099960d 00000009 T _Z19gt_pch_p_9reg_attrsPvS_PFvS_S_S_ES_
0000000000999616 00000009 T _Z22gt_pch_p_11frame_spacePvS_PFvS_S_S_ES_
000000000099961f 00000009 T _Z26gt_pch_p_15ipa_replace_mapPvS_PFvS_S_S_ES_
0000000000999628 00000009 T _Z32gt_pch_p_21ipa_param_adjustmentsPvS_PFvS_S_S_ES_
0000000000999631 00000009 T _Z26gt_pch_p_15ipa_node_paramsPvS_PFvS_S_S_ES_
000000000099963a 00000009 T _Z29gt_pch_p_18dw_discr_list_nodePvS_PFvS_S_S_ES_
0000000000999643 00000009 T _Z31gt_pch_p_20ssa_operand_memory_dPvS_PFvS_S_S_ES_
000000000099964c 00000009 T _Z28gt_pch_p_17isra_func_summaryPvS_PFvS_S_S_ES_
0000000000999655 00000009 T _Z35gt_pch_p_24ipa_return_value_summaryPvS_PFvS_S_S_ES_
000000000099965e 00000009 T _Z49gt_pch_p_38hash_map_location_hash_string_concat__PvS_PFvS_S_S_ES_
0000000000999667 00000009 T _Z53gt_pch_p_42hash_map_tree_tree_decl_tree_cache_traits_PvS_PFvS_S_S_ES_
0000000000999670 00000009 T _Z53gt_pch_p_42hash_map_tree_tree_type_tree_cache_traits_PvS_PFvS_S_S_ES_
0000000000999679 00000009 T _Z47gt_pch_p_36hash_map_tree_tree_decl_tree_traits_PvS_PFvS_S_S_ES_
0000000000999682 00000009 T _Z25gt_pch_p_14hash_set_tree_PvS_PFvS_S_S_ES_
000000000099968b 00000009 T _Z53gt_pch_p_42hash_map_symtab_node__symbol_priority_map_PvS_PFvS_S_S_ES_
0000000000999694 00000009 T _Z48gt_pch_p_37hash_map_location_hash_nowarn_spec_t_PvS_PFvS_S_S_ES_
000000000099969d 00000009 T _Z32gt_pch_p_21hash_map_gimple__int_PvS_PFvS_S_S_ES_
00000000009996a6 00000009 T _Z30gt_pch_p_19hash_map_tree_tree_PvS_PFvS_S_S_ES_
00000000009996af 00000009 T _Z22gt_pch_p_11bitmap_headPvS_PFvS_S_S_ES_
00000000009996b8 00000009 T _Z29gt_pch_p_18section_hash_entryPvS_PFvS_S_S_ES_
00000000009996c1 00000009 T _Z26gt_pch_p_15cl_optimizationPvS_PFvS_S_S_ES_
00000000009996ca 00000009 T _Z21gt_pch_p_10eh_catch_dPvS_PFvS_S_S_ES_
00000000009996d3 00000009 T _Z25gt_pch_p_14bitmap_elementPvS_PFvS_S_S_ES_
00000000009996dc 00000009 T _Z35gt_pch_p_24types_used_by_vars_entryPvS_PFvS_S_S_ES_
00000000009996e5 00000009 T _Z18gt_pch_p_8asm_nodePvS_PFvS_S_S_ES_
00000000009996ee 00000009 T _Z21gt_pch_p_10clone_infoPvS_PFvS_S_S_ES_
00000000009996f7 00000009 T _Z35gt_pch_p_24constant_descriptor_treePvS_PFvS_S_S_ES_
0000000000999700 00000009 T _Z16gt_pch_p_6ipa_vrPvS_PFvS_S_S_ES_
0000000000999709 00000009 T _Z24gt_pch_p_13ipa_edge_argsPvS_PFvS_S_S_ES_
0000000000999712 00000009 T _Z25gt_pch_p_14modref_summaryPvS_PFvS_S_S_ES_
000000000099971b 00000009 T _Z26gt_pch_p_15dwarf_file_dataPvS_PFvS_S_S_ES_
0000000000999724 00000009 T _Z21gt_pch_p_10ctf_stringPvS_PFvS_S_S_ES_
000000000099972d 00000009 T _Z19gt_pch_p_9ctf_dvdefPvS_PFvS_S_S_ES_
0000000000999736 00000009 T _Z26gt_pch_p_15tm_restart_nodePvS_PFvS_S_S_ES_
000000000099973f 00000009 T _Z23gt_pch_p_12param_accessPvS_PFvS_S_S_ES_
0000000000999748 00000009 T _Z29gt_pch_p_18modref_summary_ltoPvS_PFvS_S_S_ES_
0000000000999751 0000001b T _Z26gt_pch_p_15vec_tree_va_gc_PvS_PFvS_S_S_ES_
000000000099976c 00000009 T _Z35gt_pch_p_24tree_statement_list_nodePvS_PFvS_S_S_ES_
0000000000999775 00000009 T _Z25gt_pch_p_14sequence_stackPvS_PFvS_S_S_ES_
000000000099977e 00000009 T _Z21gt_pch_p_10control_ivPvS_PFvS_S_S_ES_
0000000000999787 00000009 T _Z22gt_pch_p_11rtl_bb_infoPvS_PFvS_S_S_ES_
0000000000999790 00000009 T _Z30gt_pch_p_19ipcp_transformationPvS_PFvS_S_S_ES_
0000000000999799 00000009 T _Z37gt_pch_p_26hash_table_libfunc_hasher_PvS_PFvS_S_S_ES_
00000000009997a2 00000009 T _Z39gt_pch_p_28hash_table_used_type_hasher_PvS_PFvS_S_S_ES_
00000000009997ab 00000009 T _Z39gt_pch_p_28hash_table_loop_exit_hasher_PvS_PFvS_S_S_ES_
00000000009997b4 00000009 T _Z41gt_pch_p_30hash_table_cgraph_edge_hasher_PvS_PFvS_S_S_ES_
00000000009997bd 00000009 T _Z42gt_pch_p_31hash_table_section_name_hasher_PvS_PFvS_S_S_ES_
00000000009997c6 00000009 T _Z37gt_pch_p_26hash_table_asmname_hasher_PvS_PFvS_S_S_ES_
00000000009997cf 00000009 T _Z38gt_pch_p_27hash_table_ctfc_dtd_hasher_PvS_PFvS_S_S_ES_
00000000009997d8 00000009 T _Z38gt_pch_p_27hash_table_ctfc_dvd_hasher_PvS_PFvS_S_S_ES_
00000000009997e1 00000009 T _Z38gt_pch_p_27hash_table_ssa_name_hasher_PvS_PFvS_S_S_ES_
00000000009997ea 00000009 T _Z40gt_pch_p_29hash_table_tm_restart_hasher_PvS_PFvS_S_S_ES_
00000000009997f3 00000009 T _Z40gt_pch_p_29hash_table_decl_state_hasher_PvS_PFvS_S_S_ES_
00000000009997fc 00000009 T _Z45gt_pch_p_34hash_table_ipa_vr_ggc_hash_traits_PvS_PFvS_S_S_ES_
0000000000999805 00000009 T _Z22gt_pch_p_11dw_fde_nodePvS_PFvS_S_S_ES_
000000000099980e 00000009 T _Z22gt_pch_p_11stack_usagePvS_PFvS_S_S_ES_
0000000000999817 00000009 T _Z19gt_pch_p_9loop_exitPvS_PFvS_S_S_ES_
0000000000999820 00000009 T _Z39gt_pch_p_28cgraph_function_version_infoPvS_PFvS_S_S_ES_
0000000000999829 00000009 T _Z27gt_pch_p_16eh_landing_pad_dPvS_PFvS_S_S_ES_
0000000000999832 00000009 T _Z19gt_pch_p_9ctf_dmdefPvS_PFvS_S_S_ES_
000000000099a0bd 00000032 T _Z12expand_CLRSB11internal_fnP5gcall
000000000099a0ef 00000032 T _Z13expand_PARITY11internal_fnP5gcall
000000000099a457 0000000d T _Z8finalizeIN8hash_mapI18nofree_string_hash8odr_enum21simple_hashmap_traitsI19default_hash_traitsIS1_ES2_EE10hash_entryEEvPv
000000000099a464 00000034 T _ZN16function_summaryIP15ipa_node_paramsE16symtab_insertionEP11cgraph_nodePv
000000000099a498 00000031 T _ZN21fast_function_summaryIP16ipa_size_summary7va_heapE16symtab_insertionEP11cgraph_nodePv
000000000099a540 00000076 T _ZN17fast_call_summaryIP23edge_growth_cache_entry7va_heapE18symtab_duplicationEP11cgraph_edgeS5_Pv
000000000099a5b6 00000031 T _ZN21fast_function_summaryIP20node_context_summary7va_heapE16symtab_insertionEP11cgraph_nodePv
000000000099a5e8 00000074 T _ZN21fast_function_summaryIP20node_context_summary7va_heapE18symtab_duplicationEP11cgraph_nodeS5_Pv
000000000099a65c 00000034 T _ZN16function_summaryIPP9tree_nodeE16symtab_insertionEP11cgraph_nodePv
000000000099a690 00000067 T _ZN16function_summaryIPP9tree_nodeE18symtab_duplicationEP11cgraph_nodeS5_Pv
000000000099a78a 00000094 T _ZN12call_summaryIP24speculative_call_summaryE18symtab_duplicationEP11cgraph_edgeS4_Pv
000000000099a890 0000005a T _ZN19ipa_edge_args_sum_t6removeEP11cgraph_edgeP13ipa_edge_args
000000000099a966 00000034 T _ZN16function_summaryIP19ipcp_transformationE16symtab_insertionEP11cgraph_nodePv
000000000099a99a 00000034 T _ZN16function_summaryIP24ipa_return_value_summaryE16symtab_insertionEP11cgraph_nodePv
000000000099ac9e 00000045 T _Z27hashtab_entry_note_pointersIN8hash_mapIP9tree_nodeS2_22decl_tree_cache_traitsE10hash_entryEEvPvS6_PFvS6_S6_S6_ES6_
000000000099ace3 00000045 T _Z27hashtab_entry_note_pointersIN8hash_mapIP9tree_nodeS2_22type_tree_cache_traitsE10hash_entryEEvPvS6_PFvS6_S6_S6_ES6_
000000000099ad28 00000045 T _Z27hashtab_entry_note_pointersIN8hash_mapIP9tree_nodeS2_16decl_tree_traitsE10hash_entryEEvPvS6_PFvS6_S6_S6_ES6_
000000000099ad6d 00000045 T _Z27hashtab_entry_note_pointersIN8hash_mapIP9tree_nodeS2_21simple_hashmap_traitsI19default_hash_traitsIS2_ES2_EE10hash_entryEEvPvS9_PFvS9_S9_S9_ES9_
000000000099ae60 000000e8 T _Z10dump_graphP8_IO_FILEP5graph
000000000099af48 0000004a T _Z9gt_ggc_mxR7section
000000000099af92 00000012 T _Z9gt_ggc_mxR9reg_attrs
000000000099afa4 00000034 T _Z9gt_ggc_mxR12object_block
000000000099afd8 00000009 T _Z21gt_ggc_mx_fixed_valuePv
000000000099afe1 00000009 T _Z25gt_ggc_mx_cgraph_rtl_infoPv
000000000099afea 00000026 T _Z9gt_ggc_mxR8tree_map
000000000099b010 00000026 T _Z9gt_ggc_mxR13tree_decl_map
000000000099b036 00000012 T _Z9gt_ggc_mxR12tree_int_map
000000000099b048 00000026 T _Z9gt_ggc_mxR12tree_vec_map
000000000099b06e 00000013 T _Z9gt_ggc_mxR13libfunc_entry
000000000099b081 00000012 T _Z9gt_ggc_mxRP8rtx_insn
000000000099b093 00000013 T _Z9gt_ggc_mxR15callinfo_callee
000000000099b0a6 0000000d T _Z9gt_ggc_mxR15callinfo_dalloc
000000000099b0b3 0000000d T _Z9gt_ggc_mxR18section_hash_entry
000000000099b0c0 00000012 T _Z9gt_ggc_mxRP28cgraph_function_version_info
000000000099b0d2 00000026 T _Z9gt_ggc_mxR24constant_descriptor_tree
000000000099b0f8 00000026 T _Z9gt_ggc_mxR17lto_in_decl_state
000000000099b11e 0000001a T _Z9gt_ggc_mxR15dwarf_file_data
000000000099b138 0000001f T _Z9gt_ggc_mxR9ctf_dvdef
000000000099b157 00000012 T _Z9gt_ggc_mxRP9temp_slot
000000000099b169 00000012 T _Z9gt_ggc_mxR20ipa_param_descriptor
000000000099b17b 00000012 T _Z9gt_ggc_mxR16ipa_argagg_value
000000000099b18d 00000012 T _Z9gt_pch_nxR9reg_attrs
000000000099b19f 00000012 T _Z9gt_pch_nxRP9tree_node
000000000099b1b1 00000026 T _Z9gt_pch_nxR8tree_map
000000000099b1d7 00000026 T _Z9gt_pch_nxR13tree_decl_map
000000000099b1fd 00000012 T _Z9gt_pch_nxR12tree_int_map
000000000099b20f 00000013 T _Z9gt_pch_nxR15callinfo_callee
000000000099b222 0000000d T _Z9gt_pch_nxR15callinfo_dalloc
000000000099b22f 0000000d T _Z9gt_pch_nxR18section_hash_entry
000000000099b23c 00000026 T _Z9gt_pch_nxR18ipa_adjusted_param
000000000099b262 0000001a T _Z9gt_pch_nxR15dwarf_file_data
000000000099b27c 0000001f T _Z9gt_pch_nxR9ctf_dvdef
000000000099b29b 00000012 T _Z9gt_pch_nxRP9temp_slot
000000000099b2ad 00000051 T _Z9gt_pch_nxR15ipa_agg_jf_item
000000000099b2fe 00000012 T _Z9gt_pch_nxR20ipa_param_descriptor
000000000099b310 00000012 T _Z9gt_pch_nxR16ipa_argagg_value
000000000099b322 00000027 T _Z9gt_pch_nxR28ipa_polymorphic_call_context
000000000099b349 00000034 T _Z9gt_pch_nxR12expr_eval_op
000000000099b37d 0000006d T _Z9gt_pch_nxP11cgraph_edgePFvPvS1_S1_ES1_
000000000099b3ea 0000004e T _Z9gt_pch_nxP7sectionPFvPvS1_S1_ES1_
000000000099b438 00000032 T _Z9gt_pch_nxP12object_blockPFvPvS1_S1_ES1_
000000000099b46a 00000005 T _Z9gt_pch_nxP22decl_tree_cache_traitsPFvPvS1_S1_ES1_
000000000099b46f 00000005 T _Z9gt_pch_nxP22type_tree_cache_traitsPFvPvS1_S1_ES1_
000000000099b474 00000005 T _Z9gt_pch_nxP16decl_tree_traitsPFvPvS1_S1_ES1_
000000000099b479 00000027 T _Z9gt_pch_nxP8tree_mapPFvPvS1_S1_ES1_
000000000099b4a0 00000027 T _Z9gt_pch_nxP13tree_decl_mapPFvPvS1_S1_ES1_
000000000099b4c7 0000000b T _Z9gt_pch_nxP12tree_int_mapPFvPvS1_S1_ES1_
000000000099b4d2 00000006 T _Z9gt_pch_nxP12tree_vec_mapPFvPvS1_S1_ES1_
000000000099b4d8 00000005 T _Z9gt_pch_nxP14libfunc_hasherPFvPvS1_S1_ES1_
000000000099b4dd 00000005 T _Z9gt_pch_nxP16used_type_hasherPFvPvS1_S1_ES1_
000000000099b4e2 0000003d T _Z9gt_pch_nxP9loop_exitPFvPvS1_S1_ES1_
000000000099b51f 00000005 T _Z9gt_pch_nxP16loop_exit_hasherPFvPvS1_S1_ES1_
000000000099b524 00000006 T _Z9gt_pch_nxP28cgraph_function_version_infoPFvPvS1_S1_ES1_
000000000099b52a 00000005 T _Z9gt_pch_nxP18cgraph_edge_hasherPFvPvS1_S1_ES1_
000000000099b52f 00000005 T _Z9gt_pch_nxP19section_name_hasherPFvPvS1_S1_ES1_
000000000099b534 00000005 T _Z9gt_pch_nxP14asmname_hasherPFvPvS1_S1_ES1_
000000000099b539 00000005 T _Z9gt_pch_nxP19symbol_priority_mapPFvPvS1_S1_ES1_
000000000099b53e 00000027 T _Z9gt_pch_nxP17lto_in_decl_statePFvPvS1_S1_ES1_
000000000099b565 00000005 T _Z9gt_pch_nxP13nowarn_spec_tPFvPvS1_S1_ES1_
000000000099b56a 00000005 T _Z9gt_pch_nxP15ctfc_dtd_hasherPFvPvS1_S1_ES1_
000000000099b56f 00000005 T _Z9gt_pch_nxP15ctfc_dvd_hasherPFvPvS1_S1_ES1_
000000000099b574 00000005 T _Z9gt_pch_nxP15ssa_name_hasherPFvPvS1_S1_ES1_
000000000099b579 00000005 T _Z9gt_pch_nxP17tm_restart_hasherPFvPvS1_S1_ES1_
000000000099b57e 00000052 T _Z9gt_pch_nxP15ipa_agg_jf_itemPFvPvS1_S1_ES1_
000000000099b5d0 00000043 T _Z37gt_pch_p_26vec_ipa_agg_jf_item_va_gc_PvS_PFvS_S_S_ES_
000000000099b613 00000005 T _Z9gt_pch_nxP22ipa_uid_to_idx_map_eltPFvPvS1_S1_ES1_
000000000099b618 00000041 T _Z9gt_pch_nxP13ipa_jump_funcPFvPvS1_S1_ES1_
000000000099b659 00000043 T _Z35gt_pch_p_24vec_ipa_jump_func_va_gc_PvS_PFvS_S_S_ES_
000000000099b69c 0000002b T _Z9gt_pch_nxP28ipa_polymorphic_call_contextPFvPvS1_S1_ES1_
000000000099b6c7 00000043 T _Z50gt_pch_p_39vec_ipa_polymorphic_call_context_va_gc_PvS_PFvS_S_S_ES_
000000000099b70a 00000005 T _Z9gt_pch_nxP17decl_state_hasherPFvPvS1_S1_ES1_
000000000099b70f 00000032 T _Z9gt_pch_nxP12expr_eval_opPFvPvS1_S1_ES1_
000000000099b741 00000043 T _Z34gt_pch_p_23vec_expr_eval_op_va_gc_PvS_PFvS_S_S_ES_
000000000099b784 00000036 T _Z9gt_pch_nxP9conditionPFvPvS1_S1_ES1_
000000000099b7ba 00000043 T _Z31gt_pch_p_20vec_condition_va_gc_PvS_PFvS_S_S_ES_
000000000099b7fd 00000005 T _Z9gt_pch_nxP26ipa_freqcounting_predicatePFvPvS1_S1_ES1_
000000000099b802 0000000c T _Z11pos_mul_hwill
000000000099b80e 0000000c T _Z7mul_hwill
000000000099b81a 00000074 T _Z17split_quote_chainv
000000000099b88e 0000002a T _Z16add_cpp_dir_pathP7cpp_dir12incpath_kind
000000000099b8b8 00000010 T _Z18get_added_cpp_dirs12incpath_kind
000000000099b8c8 00000024 T _Z24commutative_ternary_fn_p11internal_fn
000000000099b8ec 00000011 T _Z23associative_binary_fn_p11internal_fn
000000000099b8fd 00000057 T _Z27get_conditional_internal_fn11internal_fn
000000000099b954 0000001a T _Z19get_len_internal_fn11internal_fn
000000000099b96e 0000001a T _Z28internal_gather_scatter_fn_p11internal_fn
000000000099b988 0000004c T _Z22internal_fn_else_index11internal_fn
000000000099b9d4 0000002a T _Z30internal_fn_stored_value_index11internal_fn
000000000099b9fe 00000175 T _ZN17isra_call_summary4dumpEP8_IO_FILE
000000000099bb84 0000003c T _Z19ipa_sra_cc_finalizev
000000000099bbc5 00000021 T _Z16add_decl_warningRKP9tree_nodeRK15decl_warn_countP3vecIPS4_7va_heap6vl_ptrE
000000000099bc6e 00000011 T _Z28push_all_edges_in_set_to_vecRKP11cgraph_edgeP3vecIS0_7va_heap6vl_ptrE
000000000099bde4 0000001e T _ZN14modref_summaryC1Ev
000000000099be02 00000018 T _ZN18modref_summary_ltoC1Ev
000000000099be1a 00000017 T _Z15debug_eaf_flagsi
000000000099be52 0000007b T _Z22ipa_modref_cc_finalizev
000000000099bed9 00000005 T _Z9gt_pch_nxRKP11modref_treeIiEPFvPvS4_S4_ES4_
000000000099bede 00000005 T _Z9gt_pch_nxRKP11modref_treeIP9tree_nodeEPFvPvS6_S6_ES6_
000000000099bee3 00000005 T _Z9gt_pch_nxP16modref_base_nodeIiEPFvPvS2_S2_ES2_
000000000099bee8 00000005 T _Z9gt_pch_nxP16modref_base_nodeIP9tree_nodeEPFvPvS4_S4_ES4_
000000000099beed 00000005 T _Z9gt_pch_nxP15modref_ref_nodeIiEPFvPvS2_S2_ES2_
000000000099bef2 00000005 T _Z9gt_pch_nxP15modref_ref_nodeIP9tree_nodeEPFvPvS4_S4_ES4_
000000000099bf48 0000002c T _Z23ipa_profile_cc_finalizev
000000000099c044 00000075 T _ZN26ipa_profile_call_summaries9duplicateEP11cgraph_edgeS1_P24speculative_call_summaryS3_
000000000099c0bf 0000002f T _Z28ipcp_free_transformation_sumv
000000000099c0ee 00000005 T _Z9gt_pch_nxP22ipa_vr_ggc_hash_traitsPFvPvS1_S1_ES1_
000000000099c0f4 0000003c T _ZN26ipa_param_body_adjustments20register_replacementEP9tree_nodejS1_
000000000099c130 00000023 T _Z31ipa_edge_modifications_finalizev
000000000099c1a8 0000000c T _ZN7ipa_ref18referring_ref_listEv
000000000099c1bf 0000001d T _Z25cgraph_build_static_cdtorcP9tree_nodei
000000000099c1e7 0000011b T _Z21ira_print_dispositionP8_IO_FILE
000000000099c302 00000010 T _Z21ira_debug_dispositionv
000000000099c312 000000ce T _Z25ira_debug_allocno_classesv
000000000099c3eb 00000096 T _Z26ira_print_expanded_allocnoP11ira_allocno
000000000099c481 00000036 T _Z21ira_create_live_rangeP10ira_objectiiP10live_range
000000000099c4b7 00000051 T _Z24ira_copy_live_range_listP10live_range
000000000099c508 00000013 T _Z14ira_debug_prefP16ira_allocno_pref
000000000099c55e 0000000d T _Z15ira_debug_prefsv
000000000099c56b 00000068 T _Z23ira_debug_allocno_prefsP11ira_allocno
000000000099c5d3 00000013 T _Z5debugR16ira_allocno_copy
000000000099c5e6 00000025 T _Z5debugP16ira_allocno_copy
000000000099c60b 00000013 T _Z14ira_debug_copyP16ira_allocno_copy
000000000099c65d 0000000d T _Z16ira_debug_copiesv
000000000099c66a 0000001a T _Z20ira_free_cost_vectorPii
000000000099c684 0000001a T _Z25ira_adjust_equiv_reg_costji
000000000099c9c3 00000014 T _Z19ira_debug_conflictsb
000000000099cb66 0000001b T _Z18debug_hard_reg_set12HARD_REG_SET
000000000099cbab 0000000d T _Z26ira_debug_hard_regs_forestv
000000000099cbb8 00000105 T _Z26ira_mark_allocation_changei
000000000099ccbd 00000022 T _Z29ira_mark_memory_move_deletionii
000000000099ccdf 00000058 T _Z19ira_debug_move_listP4move
000000000099cd37 00000043 T _Z25ira_print_live_range_listP8_IO_FILEP10live_range
000000000099cdf3 00000013 T _Z5debugR10live_range
000000000099ce06 00000025 T _Z5debugP10live_range
000000000099ce2b 00000013 T _Z25ira_debug_live_range_listP10live_range
000000000099ce3e 00000013 T _Z29ira_debug_allocno_live_rangesP11ira_allocno
000000000099ce90 0000000d T _Z21ira_debug_live_rangesv
000000000099ce9d 00000031 T _Z19delete_for_peepholeP8rtx_insnS0_
000000000099ced3 00000007 T _Z35lhd_do_nothing_iii_return_null_treeiii
000000000099ceda 00000011 T _Z16lhd_post_optionsPPKc
000000000099ceeb 00000008 T _Z17lhd_get_alias_setP9tree_node
000000000099cef3 00000013 T _Z22lhd_types_compatible_pP9tree_nodeS0_
000000000099cf06 00000007 T _Z17lhd_handle_optionmPKclijPK18cl_option_handlers
000000000099cf0d 0000000e T _Z29lhd_omp_predetermined_sharingP9tree_node
000000000099cf1b 0000000c T _Z29lhd_omp_predetermined_mappingP9tree_node
000000000099cf27 00000053 T _Z30simulate_builtin_function_decljPKcP9tree_nodeiS0_S2_
000000000099cf7a 00000013 T _Z20lhd_builtin_functionP9tree_node
000000000099cf8d 00000021 T _Z16remove_list_elemP7rtx_defPS0_
000000000099cfae 00000028 T _Z26remove_free_EXPR_LIST_nodePP13rtx_expr_list
000000000099cff9 000000d4 T _Z26lra_dump_bitmap_with_titlePKcP11bitmap_headi
000000000099d0cd 000003cc T _Z16gt_pch_p_6gimplePvS_PFvS_S_S_ES_
000000000099d499 00000177 T _Z22gt_pch_p_11symtab_nodePvS_PFvS_S_S_ES_
000000000099d610 0000001f T _Z40gt_pch_p_29function_summary_thunk_info__PvS_PFvS_S_S_ES_
000000000099d62f 0000001f T _Z30gt_pch_p_19ipa_edge_args_sum_tPvS_PFvS_S_S_ES_
000000000099d64e 0000001f T _Z55gt_pch_p_44fast_function_summary_ipa_fn_summary__va_gc_PvS_PFvS_S_S_ES_
000000000099d66d 00000006 T _Z55gt_pch_p_44fast_function_summary_modref_summary__va_gc_PvS_PFvS_S_S_ES_
000000000099d673 00000006 T _Z59gt_pch_p_48fast_function_summary_modref_summary_lto__va_gc_PvS_PFvS_S_S_ES_
000000000099d679 0000001f T _Z54gt_pch_p_43function_summary_ipa_return_value_summary__PvS_PFvS_S_S_ES_
000000000099d698 0000001f T _Z40gt_pch_p_29function_summary_clone_info__PvS_PFvS_S_S_ES_
000000000099d6b7 0000001f T _Z28gt_pch_p_17ipa_node_params_tPvS_PFvS_S_S_ES_
000000000099d6d6 0000001f T _Z49gt_pch_p_38function_summary_ipcp_transformation__PvS_PFvS_S_S_ES_
000000000099da70 0000001b T _Z20expand_SHUFFLEVECTOR11internal_fnP5gcall
000000000099da8b 0000001b T _Z10expand_PHI11internal_fnP5gcall
000000000099daa6 0000001b T _Z16expand_MASK_CALL11internal_fnP5gcall
000000000099dac1 0000001f T _Z37gt_pch_p_26ipa_sra_function_summariesPvS_PFvS_S_S_ES_
000000000099dafb 0000003f T _Z14set_type_binfoP9tree_nodeS0_
000000000099db3a 000000fc T _Z14ipa_dump_hintsP8_IO_FILEi
000000000099dc36 00000038 T _Z36ipa_verify_edge_has_no_modificationsP11cgraph_edge
000000000099dd43 00000013 T _Z5debugR11ira_allocno
000000000099dd56 00000025 T _Z5debugP11ira_allocno
000000000099dd7b 00000013 T _Z24ira_debug_allocno_copiesP11ira_allocno
000000000099de82 0000001b T _Z20lhd_type_promotes_toP9tree_node
000000000099de9d 00000020 T _Z25lhd_incomplete_type_errorjPK9tree_nodeS1_
000000000099debd 0000001b T _Z13lhd_tree_size9tree_code
000000000099f14d 00000059 T _Z16find_dummy_typesRKPKcP16godump_container
00000000009a0238 000000c4 T _Z17dump_go_spec_initPKcPK15gcc_debug_hooks
00000000009a039b 000003a3 T _Z18lookup_internal_fnPKc
00000000009a0752 000000e5 T _Z19gt_pch_p_9cpp_tokenPvS_PFvS_S_S_ES_
00000000009a0837 000001b7 T _Z19gt_pch_p_9cpp_macroPvS_PFvS_S_S_ES_
00000000009a09ee 00000074 T _Z19gt_ggc_mx_cpp_tokenPv
00000000009a0a62 00000044 T _Z22gt_ggc_mx_object_blockPv
00000000009a0aa6 0000000f T _Z9gt_ggc_mxRP12object_block
00000000009a0ab5 000000d2 T _Z20gt_ggc_mx_target_rtlPv
00000000009a0b87 00000036 T _Z18gt_ggc_mx_tree_mapPv
00000000009a0bbd 0000000f T _Z9gt_ggc_mxRP8tree_map
00000000009a0bcc 00000028 T _Z22gt_ggc_mx_tree_int_mapPv
00000000009a0bf4 0000000f T _Z9gt_ggc_mxRP12tree_int_map
00000000009a0c03 00000048 T _Z25gt_ggc_mx_target_libfuncsPv
00000000009a0c4b 00000034 T _Z24gt_ggc_mx_target_globalsPv
00000000009a0c7f 0000003e T _Z36gt_ggc_mx_vec_callinfo_callee_va_gc_Pv
00000000009a0cbd 00000039 T _Z36gt_ggc_mx_vec_callinfo_dalloc_va_gc_Pv
00000000009a0cf6 00000034 T _Z21gt_ggc_mx_stack_usagePv
00000000009a0d2a 0000005b T _Z20gt_ggc_mx_control_ivPv
00000000009a0d85 00000036 T _Z27gt_ggc_mx_lto_in_decl_statePv
00000000009a0dbb 0000000f T _Z9gt_ggc_mxRP17lto_in_decl_state
00000000009a0dca 00000024 T _Z28gt_ggc_mx_dw_discr_list_nodePv
00000000009a0dee 00000048 T _Z20gt_ggc_mx_ctf_stringPv
00000000009a0e36 00000048 T _Z19gt_ggc_mx_ctf_dmdefPv
00000000009a0e7e 0000002e T _Z22gt_ggc_mx_ctf_func_argPv
00000000009a0eac 00000031 T _Z19gt_ggc_mx_ctf_dvdefPv
00000000009a0edd 0000000f T _Z9gt_ggc_mxRP9ctf_dvdef
00000000009a0eec 0000004f T _Z37gt_ggc_mx_hash_table_ctfc_dvd_hasher_Pv
00000000009a0f3b 00000060 T _Z20gt_ggc_mx_eh_catch_dPv
00000000009a0f9b 000000cc T _Z21gt_ggc_mx_eh_region_dPv
00000000009a1067 00000068 T _Z26gt_ggc_mx_eh_landing_pad_dPv
00000000009a10cf 0000000f T _Z9gt_ggc_mxRP16eh_landing_pad_d
00000000009a10de 00000012 T _Z9gt_ggc_mxRP11eh_region_d
00000000009a10f0 0000004f T _Z39gt_ggc_mx_hash_table_decl_state_hasher_Pv
00000000009a113f 0000005b T _Z28gt_ggc_mx_lto_file_decl_dataPv
00000000009a119a 00000012 T _Z9gt_ggc_mxRP13string_concat
00000000009a11ac 0000004d T _Z23gt_ggc_mx_nb_iter_boundPv
00000000009a11f9 00000055 T _Z31gt_ggc_mx_hash_map_gimple__int_Pv
00000000009a124e 00000036 T _Z25gt_ggc_mx_tm_restart_nodePv
00000000009a1284 0000000f T _Z9gt_ggc_mxRP15tm_restart_node
00000000009a1293 0000004f T _Z39gt_ggc_mx_hash_table_tm_restart_hasher_Pv
00000000009a12e2 00000026 T _Z9gt_ggc_mxR15tm_restart_node
00000000009a1308 00000012 T _Z9gt_ggc_mxRP11cgraph_edge
00000000009a131a 0000007b T _Z9gt_ggc_mxR11cgraph_edge
00000000009a1395 000000af T _Z27gt_ggc_mx_cgraph_simd_clonePv
00000000009a1444 00000042 T _Z9gt_ggc_mxR28cgraph_function_version_info
00000000009a1486 00000055 T _Z52gt_ggc_mx_hash_map_symtab_node__symbol_priority_map_Pv
00000000009a14db 00000012 T _Z9gt_ggc_mxRP11symtab_node
00000000009a14ed 00000012 T _Z9gt_ggc_mxRP9reg_attrs
00000000009a14ff 00000012 T _Z9gt_ggc_mxRP13libfunc_entry
00000000009a1511 00000012 T _Z9gt_ggc_mxRP18call_site_record_d
00000000009a1523 00000012 T _Z9gt_ggc_mxRP24types_used_by_vars_entry
00000000009a1535 00000012 T _Z9gt_ggc_mxRP9loop_exit
00000000009a1547 00000042 T _Z9gt_ggc_mxR9loop_exit
00000000009a1589 0000006e T _Z20gt_ggc_mx_niter_descPv
00000000009a15f7 00000012 T _Z9gt_ggc_mxRP8edge_def
00000000009a1609 00000012 T _Z9gt_ggc_mxRP4loop
00000000009a161b 00000012 T _Z9gt_ggc_mxRP18section_hash_entry
00000000009a162d 00000012 T _Z9gt_ggc_mxRP10thunk_info
00000000009a163f 00000012 T _Z9gt_ggc_mxRP10clone_info
00000000009a1651 00000012 T _Z9gt_ggc_mxRP15ipa_replace_map
00000000009a1663 00000012 T _Z9gt_ggc_mxR15ipa_node_params
00000000009a1675 00000012 T _Z9gt_ggc_mxRP15ipa_node_params
00000000009a1687 00000026 T _Z9gt_ggc_mxR13ipa_edge_args
00000000009a16ad 00000012 T _Z9gt_ggc_mxRP13ipa_edge_args
00000000009a16bf 00000012 T _Z9gt_ggc_mxRP11dw_cfi_node
00000000009a16d1 00000061 T _Z19gt_ggc_mx_ctf_dtdefPv
00000000009a1732 0000000f T _Z9gt_ggc_mxRP9ctf_dtdef
00000000009a1741 0000004f T _Z37gt_ggc_mx_hash_table_ctfc_dtd_hasher_Pv
00000000009a1790 00000051 T _Z9gt_ggc_mxR9ctf_dtdef
00000000009a17e1 00000065 T _Z19gt_pch_p_9ctf_dtdefPvS_PFvS_S_S_ES_
00000000009a1846 00000048 T _Z9gt_pch_nxP9ctf_dtdefPFvPvS1_S1_ES1_
00000000009a188e 00000012 T _Z9gt_ggc_mxRP19ipcp_transformation
00000000009a18a0 00000012 T _Z9gt_ggc_mxRP14ipa_fn_summary
00000000009a18b2 000000ef T _Z19gt_pch_nx_line_mapsPv
00000000009a19a1 0000003a T _Z23gt_pch_nx_string_concatPv
00000000009a19db 0000000f T _Z9gt_pch_nxRP13string_concat
00000000009a19ea 00000061 T _Z48gt_pch_nx_hash_map_location_hash_string_concat__Pv
00000000009a1a4b 0000002d T _Z26gt_pch_nx_string_concat_dbPv
00000000009a1a78 0000005c T _Z17gt_pch_nx_sectionPv
00000000009a1ad4 0000004a T _Z9gt_pch_nxR7section
00000000009a1b1e 00000012 T _Z9gt_pch_nxRP7section
00000000009a1b30 0000007a T _Z26gt_pch_nx_cl_target_optionPv
00000000009a1baa 0000004c T _Z25gt_pch_nx_cl_optimizationPv
00000000009a1bf6 00000052 T _Z24gt_pch_nx_bitmap_elementPv
00000000009a1c48 0000002b T _Z21gt_pch_nx_bitmap_headPv
00000000009a1c73 0000002d T _Z19gt_pch_nx_mem_attrsPv
00000000009a1ca0 0000002d T _Z19gt_pch_nx_reg_attrsPv
00000000009a1ccd 0000000f T _Z9gt_pch_nxRP9reg_attrs
00000000009a1cdc 00000015 T _Z21gt_pch_nx_fixed_valuePv
00000000009a1cf1 00000015 T _Z25gt_pch_nx_cgraph_rtl_infoPv
00000000009a1d06 00000059 T _Z52gt_pch_nx_hash_map_tree_tree_decl_tree_cache_traits_Pv
00000000009a1d5f 00000059 T _Z52gt_pch_nx_hash_map_tree_tree_type_tree_cache_traits_Pv
00000000009a1db8 00000059 T _Z46gt_pch_nx_hash_map_tree_tree_decl_tree_traits_Pv
00000000009a1e11 0000002e T _Z22gt_pch_nx_ptr_info_defPv
00000000009a1e3f 00000015 T _Z24gt_pch_nx_vrange_storagePv
00000000009a1e54 00000028 T _Z25gt_pch_nx_vec_tree_va_gc_Pv
00000000009a1e7c 00000023 T _Z9gt_pch_nxR12tree_vec_map
00000000009a1e9f 00000026 T _Z9gt_pch_nxR17lto_in_decl_state
00000000009a1ec5 00000089 T _Z34gt_pch_nx_tree_statement_list_nodePv
00000000009a1f4e 0000003b T _Z18gt_pch_nx_tree_mapPv
00000000009a1f89 0000000f T _Z9gt_pch_nxRP8tree_map
00000000009a1f98 0000003b T _Z23gt_pch_nx_tree_decl_mapPv
00000000009a1fd3 0000000f T _Z9gt_pch_nxRP13tree_decl_map
00000000009a1fe2 0000002d T _Z22gt_pch_nx_tree_int_mapPv
00000000009a200f 0000000f T _Z9gt_pch_nxRP12tree_int_map
00000000009a201e 0000003b T _Z22gt_pch_nx_tree_vec_mapPv
00000000009a2059 0000000f T _Z9gt_pch_nxRP12tree_vec_map
00000000009a2068 00000015 T _Z26gt_pch_nx_vec_uchar_va_gc_Pv
00000000009a207d 0000002a T _Z21gt_pch_nx_frame_spacePv
00000000009a20a7 00000043 T _Z36gt_pch_nx_vec_callinfo_callee_va_gc_Pv
00000000009a20ea 0000003e T _Z36gt_pch_nx_vec_callinfo_dalloc_va_gc_Pv
00000000009a2128 00000039 T _Z21gt_pch_nx_stack_usagePv
00000000009a2161 00000056 T _Z24gt_pch_nx_hash_set_tree_Pv
00000000009a21b7 0000003b T _Z34gt_pch_nx_types_used_by_vars_entryPv
00000000009a21f2 0000000f T _Z9gt_pch_nxRP24types_used_by_vars_entry
00000000009a2201 00000056 T _Z38gt_pch_nx_hash_table_used_type_hasher_Pv
00000000009a2257 00000061 T _Z20gt_pch_nx_control_ivPv
00000000009a22b8 00000029 T _Z28gt_pch_nx_section_hash_entryPv
00000000009a22e1 0000000f T _Z9gt_pch_nxRP18section_hash_entry
00000000009a22f0 0000002d T _Z25gt_pch_nx_ipa_replace_mapPv
00000000009a231d 0000000f T _Z9gt_pch_nxRP15ipa_replace_map
00000000009a232c 0000004a T _Z35gt_pch_nx_cgraph_indirect_call_infoPv
00000000009a2376 0000003b T _Z18gt_pch_nx_asm_nodePv
00000000009a23b1 0000002e T _Z20gt_pch_nx_thunk_infoPv
00000000009a23df 0000000f T _Z9gt_pch_nxRP10thunk_info
00000000009a23ee 00000021 T _Z39gt_pch_nx_function_summary_thunk_info__Pv
00000000009a240f 00000021 T _Z39gt_pch_nx_function_summary_clone_info__Pv
00000000009a2430 00000056 T _Z41gt_pch_nx_hash_table_section_name_hasher_Pv
00000000009a2486 0000003f T _Z37gt_pch_nx_vec_ipa_replace_map__va_gc_Pv
00000000009a24c5 0000003b T _Z27gt_pch_nx_lto_in_decl_statePv
00000000009a2500 0000000f T _Z9gt_pch_nxRP17lto_in_decl_state
00000000009a250f 00000047 T _Z16gt_pch_nx_ipa_vrPv
00000000009a2556 0000003e T _Z39gt_pch_nx_vec_ipa_adjusted_param_va_gc_Pv
00000000009a2594 0000002a T _Z31gt_pch_nx_ipa_param_adjustmentsPv
00000000009a25be 00000038 T _Z20gt_pch_nx_clone_infoPv
00000000009a25f6 0000000f T _Z9gt_pch_nxRP10clone_info
00000000009a2605 00000015 T _Z37gt_pch_nx_modref_tree_alias_set_type_Pv
00000000009a261a 00000038 T _Z24gt_pch_nx_modref_summaryPv
00000000009a2652 0000000f T _Z9gt_pch_nxRP14modref_summary
00000000009a2661 00000034 T _Z47gt_pch_nx_hash_map_location_hash_nowarn_spec_t_Pv
00000000009a2695 0000002a T _Z28gt_pch_nx_dw_discr_list_nodePv
00000000009a26bf 00000015 T _Z21gt_pch_nx_dw_wide_intPv
00000000009a26d4 00000031 T _Z25gt_pch_nx_dwarf_file_dataPv
00000000009a2705 0000000f T _Z9gt_pch_nxRP15dwarf_file_data
00000000009a2714 0000004e T _Z20gt_pch_nx_ctf_stringPv
00000000009a2762 0000004e T _Z19gt_pch_nx_ctf_dmdefPv
00000000009a27b0 00000034 T _Z22gt_pch_nx_ctf_func_argPv
00000000009a27e4 0000004e T _Z9gt_pch_nxR9ctf_dtdef
00000000009a2832 00000066 T _Z19gt_pch_nx_ctf_dtdefPv
00000000009a2898 0000000f T _Z9gt_pch_nxRP9ctf_dtdef
00000000009a28a7 00000036 T _Z19gt_pch_nx_ctf_dvdefPv
00000000009a28dd 0000000f T _Z9gt_pch_nxRP9ctf_dvdef
00000000009a28ec 00000056 T _Z37gt_pch_nx_hash_table_ctfc_dtd_hasher_Pv
00000000009a2942 00000056 T _Z37gt_pch_nx_hash_table_ctfc_dvd_hasher_Pv
00000000009a2998 0000010c T _Z23gt_pch_nx_ctf_containerPv
00000000009a2aa4 0000003f T _Z32gt_pch_nx_vec_temp_slot_p_va_gc_Pv
00000000009a2ae3 00000065 T _Z20gt_pch_nx_eh_catch_dPv
00000000009a2b48 00000059 T _Z29gt_pch_nx_hash_map_tree_tree_Pv
00000000009a2ba1 00000056 T _Z37gt_pch_nx_hash_table_ssa_name_hasher_Pv
00000000009a2bf7 00000044 T _Z30gt_pch_nx_ssa_operand_memory_dPv
00000000009a2c3b 0000003e T _Z36gt_pch_nx_vec_ipa_agg_jf_item_va_gc_Pv
00000000009a2c79 00000041 T _Z9gt_pch_nxR13ipa_jump_func
00000000009a2cba 00000043 T _Z41gt_pch_nx_vec_ipa_param_descriptor_va_gc_Pv
00000000009a2cfd 0000002a T _Z25gt_pch_nx_ipa_node_paramsPv
00000000009a2d27 0000000f T _Z9gt_pch_nxRP15ipa_node_params
00000000009a2d36 00000012 T _Z9gt_pch_nxR15ipa_node_params
00000000009a2d48 00000043 T _Z37gt_pch_nx_vec_ipa_argagg_value_va_gc_Pv
00000000009a2d8b 00000032 T _Z9gt_pch_nxR6ipa_vr
00000000009a2dbd 0000003e T _Z27gt_pch_nx_vec_ipa_vr_va_gc_Pv
00000000009a2dfb 00000055 T _Z29gt_pch_nx_ipcp_transformationPv
00000000009a2e50 0000000f T _Z9gt_pch_nxRP19ipcp_transformation
00000000009a2e5f 00000015 T _Z43gt_pch_nx_vec_ipa_uid_to_idx_map_elt_va_gc_Pv
00000000009a2e74 0000003e T _Z34gt_pch_nx_vec_ipa_jump_func_va_gc_Pv
00000000009a2eb2 0000003e T _Z49gt_pch_nx_vec_ipa_polymorphic_call_context_va_gc_Pv
00000000009a2ef0 00000038 T _Z23gt_pch_nx_ipa_edge_argsPv
00000000009a2f28 0000000f T _Z9gt_pch_nxRP13ipa_edge_args
00000000009a2f37 00000026 T _Z9gt_pch_nxR13ipa_edge_args
00000000009a2f5d 00000021 T _Z27gt_pch_nx_ipa_node_params_tPv
00000000009a2f7e 00000030 T _Z29gt_pch_nx_ipa_edge_args_sum_tPv
00000000009a2fae 00000021 T _Z48gt_pch_nx_function_summary_ipcp_transformation__Pv
00000000009a2fcf 00000056 T _Z39gt_pch_nx_hash_table_decl_state_hasher_Pv
00000000009a3025 00000060 T _Z28gt_pch_nx_lto_file_decl_dataPv
00000000009a3085 0000003e T _Z33gt_pch_nx_vec_expr_eval_op_va_gc_Pv
00000000009a30c3 00000032 T _Z9gt_pch_nxR9condition
00000000009a30f5 0000003e T _Z30gt_pch_nx_vec_condition_va_gc_Pv
00000000009a3133 00000062 T _Z24gt_pch_nx_ipa_fn_summaryPv
00000000009a3195 0000000f T _Z9gt_pch_nxRP14ipa_fn_summary
00000000009a31a4 00000015 T _Z47gt_pch_nx_vec_ipa_freqcounting_predicate_va_gc_Pv
00000000009a31b9 00000030 T _Z54gt_pch_nx_fast_function_summary_ipa_fn_summary__va_gc_Pv
00000000009a31e9 0000003b T _Z22gt_pch_nx_param_accessPv
00000000009a3224 0000000f T _Z9gt_pch_nxRP12param_access
00000000009a3233 0000003f T _Z34gt_pch_nx_vec_param_access__va_gc_Pv
00000000009a3272 0000000f T _Z9gt_pch_nxR15isra_param_desc
00000000009a3281 00000043 T _Z36gt_pch_nx_vec_isra_param_desc_va_gc_Pv
00000000009a32c4 0000002a T _Z27gt_pch_nx_isra_func_summaryPv
00000000009a32ee 0000000f T _Z9gt_pch_nxRP17isra_func_summary
00000000009a32fd 00000012 T _Z9gt_pch_nxR17isra_func_summary
00000000009a330f 00000021 T _Z36gt_pch_nx_ipa_sra_function_summariesPv
00000000009a3330 0000003b T _Z20gt_pch_nx_odr_type_dPv
00000000009a336b 0000000f T _Z9gt_pch_nxRP10odr_type_d
00000000009a337a 0000003f T _Z29gt_pch_nx_vec_odr_type_va_gc_Pv
00000000009a33b9 00000030 T _Z54gt_pch_nx_fast_function_summary_modref_summary__va_gc_Pv
00000000009a33e9 00000030 T _Z58gt_pch_nx_fast_function_summary_modref_summary_lto__va_gc_Pv
00000000009a3419 00000015 T _Z27gt_pch_nx_modref_tree_tree_Pv
00000000009a342e 00000038 T _Z28gt_pch_nx_modref_summary_ltoPv
00000000009a3466 0000000f T _Z9gt_pch_nxRP18modref_summary_lto
00000000009a3475 00000034 T _Z44gt_pch_nx_hash_table_ipa_vr_ggc_hash_traits_Pv
00000000009a34a9 0000002d T _Z34gt_pch_nx_ipa_return_value_summaryPv
00000000009a34d6 0000000f T _Z9gt_pch_nxRP24ipa_return_value_summary
00000000009a34e5 00000021 T _Z53gt_pch_nx_function_summary_ipa_return_value_summary__Pv
00000000009a3506 0000016f T _Z19gt_pch_p_9line_mapsPvS_PFvS_S_S_ES_
00000000009a3675 00000084 T _Z17gt_pch_p_7sectionPvS_PFvS_S_S_ES_
00000000009a36f9 00000080 T _Z19gt_pch_nx_cpp_tokenPv
00000000009a3779 0000010c T _Z19gt_pch_nx_cpp_macroPv
00000000009a3885 00000028 T _Z18gt_pch_nx_edge_defPv
00000000009a38ad 00000054 T _Z19gt_pch_nx_loop_exitPv
00000000009a3901 0000000f T _Z9gt_pch_nxRP9loop_exit
00000000009a3910 00000056 T _Z38gt_pch_nx_hash_table_loop_exit_hasher_Pv
00000000009a3966 00000042 T _Z9gt_pch_nxR9loop_exit
00000000009a39a8 0000003f T _Z25gt_pch_nx_vec_edge_va_gc_Pv
00000000009a39e7 000000ec T _Z25gt_pch_nx_basic_block_defPv
00000000009a3ad3 000013a4 T _Z17gt_pch_nx_rtx_defPv
00000000009a4e77 00000043 T _Z19gt_pch_nx_rtvec_defPv
00000000009a4eba 00000012 T _Z9gt_pch_nxRP7rtx_def
00000000009a4ecc 0000003a T _Z24gt_pch_nx_vec_rtx_va_gc_Pv
00000000009a4f06 00000046 T _Z22gt_pch_nx_object_blockPv
00000000009a4f4c 0000000f T _Z9gt_pch_nxRP12object_block
00000000009a4f5b 00000034 T _Z9gt_pch_nxR12object_block
00000000009a4f8f 000000d3 T _Z20gt_pch_nx_target_rtlPv
00000000009a5062 0000002e T _Z23gt_pch_nx_libfunc_entryPv
00000000009a5090 0000000f T _Z9gt_pch_nxRP13libfunc_entry
00000000009a509f 00000056 T _Z36gt_pch_nx_hash_table_libfunc_hasher_Pv
00000000009a50f5 00000013 T _Z9gt_pch_nxR13libfunc_entry
00000000009a5108 0000004d T _Z25gt_pch_nx_target_libfuncsPv
00000000009a5155 0000003c T _Z24gt_pch_nx_target_globalsPv
00000000009a5191 00000046 T _Z24gt_pch_nx_sequence_stackPv
00000000009a51d7 0000003f T _Z30gt_pch_nx_vec_rtx_insn__va_gc_Pv
00000000009a5216 00000012 T _Z9gt_pch_nxRP8rtx_insn
00000000009a5228 00000073 T _Z20gt_pch_nx_niter_descPv
00000000009a529b 00000049 T _Z21gt_pch_nx_rtl_bb_infoPv
00000000009a52e4 0000003b T _Z34gt_pch_nx_constant_descriptor_treePv
00000000009a531f 0000000f T _Z9gt_pch_nxRP24constant_descriptor_tree
00000000009a532e 00000026 T _Z9gt_pch_nxR24constant_descriptor_tree
00000000009a5354 0000006e T _Z26gt_pch_nx_eh_landing_pad_dPv
00000000009a53c2 000000cd T _Z21gt_pch_nx_eh_region_dPv
00000000009a548f 0000003f T _Z30gt_pch_nx_vec_eh_region_va_gc_Pv
00000000009a54ce 00000012 T _Z9gt_pch_nxRP11eh_region_d
00000000009a54e0 0000003f T _Z35gt_pch_nx_vec_eh_landing_pad_va_gc_Pv
00000000009a551f 00000012 T _Z9gt_pch_nxRP16eh_landing_pad_d
00000000009a557d 0000039c T _Z16gt_pch_nx_gimplePv
00000000009a5919 000000d9 T _Z21gt_pch_nx_cgraph_edgePv
00000000009a59f2 00000012 T _Z9gt_pch_nxRP11cgraph_edge
00000000009a5a04 00000056 T _Z40gt_pch_nx_hash_table_cgraph_edge_hasher_Pv
00000000009a5a5a 00000220 T _Z21gt_pch_nx_symtab_nodePv
00000000009a5c7a 000000b0 T _Z27gt_pch_nx_cgraph_simd_clonePv
00000000009a5d2a 00000057 T _Z38gt_pch_nx_cgraph_function_version_infoPv
00000000009a5d81 0000000f T _Z9gt_pch_nxRP28cgraph_function_version_info
00000000009a5d90 00000042 T _Z9gt_pch_nxR28cgraph_function_version_info
00000000009a5dd2 00000056 T _Z36gt_pch_nx_hash_table_asmname_hasher_Pv
00000000009a5e28 0000005c T _Z52gt_pch_nx_hash_map_symtab_node__symbol_priority_map_Pv
00000000009a5e84 00000096 T _Z22gt_pch_nx_symbol_tablePv
00000000009a5f1a 00000012 T _Z9gt_pch_nxRP11symtab_node
00000000009a5f2c 0000007b T _Z9gt_pch_nxR11cgraph_edge
00000000009a5fa7 00000053 T _Z23gt_pch_nx_nb_iter_boundPv
00000000009a5ffa 0000005c T _Z31gt_pch_nx_hash_map_gimple__int_Pv
00000000009a6056 00000087 T _Z19gt_pch_nx_eh_statusPv
00000000009a60dd 00000012 T _Z9gt_pch_nxRP6gimple
00000000009a60ef 0000003b T _Z25gt_pch_nx_tm_restart_nodePv
00000000009a612a 0000000f T _Z9gt_pch_nxRP15tm_restart_node
00000000009a6139 00000056 T _Z39gt_pch_nx_hash_table_tm_restart_hasher_Pv
00000000009a618f 0000009d T _Z19gt_pch_nx_gimple_dfPv
00000000009a622c 00000026 T _Z9gt_pch_nxR15tm_restart_node
00000000009a6252 000000fa T _Z14gt_pch_nx_loopPv
00000000009a634c 0000003f T _Z27gt_pch_nx_vec_loop_p_va_gc_Pv
00000000009a638b 0000004a T _Z15gt_pch_nx_loopsPv
00000000009a63d5 00000012 T _Z9gt_pch_nxRP4loop
00000000009a63e7 0000003f T _Z32gt_pch_nx_vec_basic_block_va_gc_Pv
00000000009a6426 00000057 T _Z28gt_pch_nx_control_flow_graphPv
00000000009a647d 00000012 T _Z9gt_pch_nxRP15basic_block_def
00000000009a648f 00000012 T _Z9gt_pch_nxRP8edge_def
00000000009a64a1 0000001b T _Z18gt_pch_p_8edge_defPvS_PFvS_S_S_ES_
00000000009a64bc 0000004f T _Z26gt_pch_nx_machine_functionPv
00000000009a650b 0000003e T _Z36gt_pch_nx_vec_constructor_elt_va_gc_Pv
00000000009a6549 00000009 T _Z9gt_pch_nxR15constructor_elt
00000000009a6552 0000003e T _Z31gt_pch_nx_vec_alias_pair_va_gc_Pv
00000000009a6590 00000009 T _Z9gt_pch_nxR10alias_pair
00000000009a6599 00000009 T _Z9gt_pch_nxR24types_used_by_vars_entry
00000000009a65a2 0000003f T _Z37gt_pch_nx_vec_call_site_record_va_gc_Pv
00000000009a65e1 00000012 T _Z9gt_pch_nxRP18call_site_record_d
00000000009a65f3 00000068 T _Z22gt_pch_p_11dw_cfi_nodePvS_PFvS_S_S_ES_
00000000009a665b 000002b7 T _Z27gt_pch_nx_dw_loc_descr_nodePv
00000000009a6912 0000009c T _Z21gt_pch_nx_dw_cfi_nodePv
00000000009a69ae 0000003f T _Z31gt_pch_nx_vec_dw_cfi_ref_va_gc_Pv
00000000009a69ed 0000007a T _Z21gt_pch_nx_dw_fde_nodePv
00000000009a6a67 000000f3 T _Z18gt_pch_nx_functionPv
00000000009a6b5a 00000012 T _Z9gt_pch_nxRP11dw_cfi_node
00000000009a6b6c 00000009 T _Z9gt_pch_nxP9reg_attrsPFvPvS1_S1_ES1_
00000000009a6b75 00000009 T _Z9gt_pch_nxP15ipa_node_paramsPFvPvS1_S1_ES1_
00000000009a6b7e 00000009 T _Z9gt_pch_nxP20ipa_param_descriptorPFvPvS1_S1_ES1_
00000000009a6b87 00000009 T _Z9gt_pch_nxP16ipa_argagg_valuePFvPvS1_S1_ES1_
00000000009a6b90 00000009 T _Z9gt_pch_nxP17isra_func_summaryPFvPvS1_S1_ES1_
00000000009a6b99 00000009 T _Z9gt_pch_nxP15isra_param_descPFvPvS1_S1_ES1_
00000000009a6ba2 00000043 T _Z37gt_pch_p_26vec_constructor_elt_va_gc_PvS_PFvS_S_S_ES_
00000000009a6be5 00000009 T _Z9gt_pch_nxP15constructor_eltPFvPvS1_S1_ES1_
00000000009a6bee 00000043 T _Z32gt_pch_p_21vec_alias_pair_va_gc_PvS_PFvS_S_S_ES_
00000000009a6c31 00000009 T _Z9gt_pch_nxP10alias_pairPFvPvS1_S1_ES1_
00000000009a6c3a 00000009 T _Z9gt_pch_nxP24types_used_by_vars_entryPFvPvS1_S1_ES1_
00000000009a6c43 00000009 T _Z9gt_pch_nxP24constant_descriptor_treePFvPvS1_S1_ES1_
00000000009a6c4c 00000009 T _Z9gt_pch_nxP13ipa_edge_argsPFvPvS1_S1_ES1_
00000000009a6c55 00000043 T _Z40gt_pch_p_29vec_ipa_adjusted_param_va_gc_PvS_PFvS_S_S_ES_
00000000009a6c98 00000009 T _Z9gt_pch_nxP18ipa_adjusted_paramPFvPvS1_S1_ES1_
00000000009a6ca1 00000009 T _Z9gt_pch_nxP15dwarf_file_dataPFvPvS1_S1_ES1_
00000000009a6caa 00000009 T _Z9gt_pch_nxP9ctf_dvdefPFvPvS1_S1_ES1_
00000000009a6cb3 00000009 T _Z9gt_pch_nxP15tm_restart_nodePFvPvS1_S1_ES1_
00000000009a6cbc 00000043 T _Z28gt_pch_p_17vec_ipa_vr_va_gc_PvS_PFvS_S_S_ES_
00000000009a6cff 00000009 T _Z9gt_pch_nxP6ipa_vrPFvPvS1_S1_ES1_
00000000009a6d08 00000009 T _Z9gt_pch_nxP13libfunc_entryPFvPvS1_S1_ES1_
00000000009a6d11 0000003f T _Z27gt_pch_p_16vec_uchar_va_gc_PvS_PFvS_S_S_ES_
00000000009a6d50 00000009 T _Z9gt_pch_nxP15callinfo_calleePFvPvS1_S1_ES1_
00000000009a6d59 00000009 T _Z9gt_pch_nxP15callinfo_dallocPFvPvS1_S1_ES1_
00000000009a6d62 00000009 T _Z9gt_pch_nxP18section_hash_entryPFvPvS1_S1_ES1_
00000000009a7c50 000001bb T _Z20expand_FLOATTOBITINT11internal_fnP5gcall
00000000009a7f2e 0000008c T _Z16expand_MULBITINT11internal_fnP5gcall
00000000009a7fba 00000092 T _Z19expand_DIVMODBITINT11internal_fnP5gcall
00000000009a804c 000001a8 T _Z20expand_BITINTTOFLOAT11internal_fnP5gcall
00000000009a8420 00000143 T _Z16expand_SPACESHIP11internal_fnP5gcall
00000000009a9405 0000010d T _Z16expand_RAWMEMCHR11internal_fnP5gcall
00000000009a9aea 00000026 T _Z30direct_internal_fn_supported_pP5gcall17optimization_type
00000000009a9ef5 00000164 T _Z33can_interpret_as_conditional_op_pP6gimplePP9tree_nodeP9tree_codeRA3_S2_S3_S3_S3_
00000000009aa059 000000a9 T _Z34internal_check_ptrs_fn_supported_p11internal_fnP9tree_node8poly_intILj1EmEj
00000000009aa102 0000009f T _Z28internal_len_load_store_bias11internal_fn12machine_mode
00000000009aa1a1 00000272 T _Z15expand_POPCOUNT11internal_fnP5gcall
00000000009aa8bc 00000158 T _ZNK28ipa_polymorphic_call_context4dumpEP8_IO_FILEb
00000000009aaa14 00000015 T _ZNK28ipa_polymorphic_call_context5debugEv
00000000009aaa29 0000005c T _Z14ipa_dump_paramP8_IO_FILEP15ipa_node_paramsi
00000000009aac05 00000016 T _Z28ira_former_scratch_operand_pP8rtx_insni
00000000009ab008 0000018c T _Z21ipa_print_node_paramsP8_IO_FILEP11cgraph_node
00000000009ab194 00000056 T _Z20ipa_print_all_paramsP8_IO_FILE
00000000009ab1ea 00000012 T _Z9gt_ggc_mxRP12param_access
00000000009ab1fc 00000012 T _Z9gt_ggc_mxR17isra_func_summary
00000000009ab20e 00000012 T _Z9gt_ggc_mxRP17isra_func_summary
00000000009ab220 00000012 T _Z9gt_ggc_mxR15isra_param_desc
00000000009ab27b 0000003d T _Z19debug_tree_odr_nameP9tree_nodeb
00000000009ab2b8 00000502 T _Z19warn_types_mismatchP9tree_nodeS0_jj
00000000009aba36 0000003d T _Z29vtable_pointer_value_to_binfoPK9tree_node
00000000009aba74 00000177 T _ZN20final_warning_record18grow_type_warningsEj
00000000009abcf3 000001e0 T _Z38dump_possible_polymorphic_call_targetsP8_IO_FILEP9tree_nodelRK28ipa_polymorphic_call_contextb
00000000009abed3 00000012 T _Z9gt_ggc_mxRP10odr_type_d
00000000009abf01 00000010 T _Z25ipa_fnsummary_cc_finalizev
00000000009ac016 000001d9 T _Z29ipa_print_node_jump_functionsP8_IO_FILEP11cgraph_node
00000000009ac1ef 00000056 T _Z28ipa_print_all_jump_functionsP8_IO_FILE
00000000009ac380 00000012 T _Z9gt_ggc_mxRP14modref_summary
00000000009ac466 00000084 T _Z20ipa_prop_cc_finalizev
00000000009ac74a 00000081 T _ZNK18modref_access_nodeeqERS_
00000000009ac7cc 0000013c T _ZN18modref_access_node4dumpEP8_IO_FILE
00000000009acbbe 00000211 T _ZNK14modref_summary4dumpEP8_IO_FILE
00000000009acdd0 000001cb T _ZN18modref_summary_lto4dumpEP8_IO_FILE
00000000009acf9b 00000036 T _Z9gt_ggc_mxRP15modref_ref_nodeIP9tree_nodeE
00000000009acfd1 00000066 T _Z9gt_ggc_mxRP16modref_base_nodeIP9tree_nodeE
00000000009ad037 0000003b T _Z9gt_ggc_mxRKP11modref_treeIP9tree_nodeE
00000000009ad072 0000002b T _Z27gt_ggc_mx_modref_tree_tree_Pv
00000000009ad09d 00000033 T _Z28gt_ggc_mx_modref_summary_ltoPv
00000000009ad0d0 0000000f T _Z9gt_ggc_mxRP18modref_summary_lto
00000000009ad0df 00000328 T _Z14dump_conditionP8_IO_FILEP3vecI9condition5va_gc8vl_embedEi
00000000009ad48a 00000081 T _ZNK13ipa_predicate4dumpEP8_IO_FILEP3vecI9condition5va_gc8vl_embedEb
00000000009ad8e9 000003f4 T _Z19ipa_dump_fn_summaryP8_IO_FILEP11cgraph_node
00000000009adcdd 00000013 T _Z20ipa_debug_fn_summaryP11cgraph_node
00000000009adcf0 00000049 T _Z21ipa_dump_fn_summariesP8_IO_FILE
00000000009add3a 00000018 T _ZNK13ipa_predicate5debugEP3vecI9condition5va_gc8vl_embedE
00000000009add52 000000ce T _ZN24speculative_call_summary4dumpEP8_IO_FILE
00000000009ade20 00000089 T _Z28ipa_impossible_devirt_targetP11cgraph_edgeP9tree_node
00000000009adea9 00000012 T _Z9gt_ggc_mxRP24ipa_return_value_summary
00000000009adef1 00000193 T _Z28ipa_dump_adjusted_parametersP8_IO_FILEP3vecI18ipa_adjusted_param5va_gc8vl_embedE
00000000009ae084 0000004a T _ZN21ipa_param_adjustments4dumpEP8_IO_FILE
00000000009ae0ce 0000000d T _ZN21ipa_param_adjustments5debugEv
00000000009ae0dc 00000186 T _ZN26ipa_param_body_adjustmentsC2EP3vecI18ipa_adjusted_param5va_gc8vl_embedEP9tree_node
00000000009ae262 0000018a T _ZN26ipa_param_body_adjustmentsC1EP21ipa_param_adjustmentsP9tree_node
00000000009ae3ec 0000011b T _ZN26ipa_param_body_adjustments24modify_formal_parametersEv
00000000009ae508 00000015 T _ZN26ipa_param_body_adjustments18lookup_replacementEP9tree_nodej
00000000009ae51e 00000084 T _ZN26ipa_param_body_adjustments24get_replacement_ssa_baseEP9tree_node
00000000009ae5a2 000000fc T _ZN26ipa_param_body_adjustments32replace_removed_params_ssa_namesEP9tree_nodeP6gimple
00000000009ae69e 000001e9 T _ZN26ipa_param_body_adjustments16modify_cfun_bodyEv
00000000009ae9a0 00000057 T _Z15ipa_print_orderP8_IO_FILEPKcPP11cgraph_nodei
00000000009ae9f7 00000080 T _Z24scale_ipa_profile_for_fnP11cgraph_node13profile_count
00000000009af22a 0000006d T _Z20strub_watermark_parmP9tree_node
00000000009af3e7 0000001b T _Z18lhd_omp_assignmentP9tree_nodeS0_S0_
00000000009b0758 00000027 T _Z20ira_bad_reload_regnoiP7rtx_defS0_
00000000009b077f 000002ce T _Z20ira_reuse_stack_sloti8poly_intILj1EmES0_
00000000009b0a4d 000000d9 T _Z23ira_mark_new_stack_slotP7rtx_defi8poly_intILj1EmE
00000000009b0bed 000000de T _Z16mark_eliminationii
00000000009b0d55 00000087 T _Z20ira_nullify_asm_gotoP8rtx_insn
00000000009b0f80 00000ba5 T _Z14ira_flatteningii
00000000009b1bb6 00000010 T _Z21ira_costs_cc_finalizev
00000000009b1bc6 000001c1 T _Z30ira_reassign_conflict_allocnosi
00000000009b1d87 0000099c T _Z29ira_sort_regnos_for_alter_regPiiP12machine_mode
00000000009b2723 00000478 T _Z20ira_reassign_pseudosPii12HARD_REG_SETPS0_S1_P11bitmap_head
00000000009b2e26 000000d5 T _Z31ira_better_spill_reload_regno_pPiS_P7rtx_defS1_P8rtx_insn
00000000009b2efb 0000011c T _Z33ira_implicitly_set_insn_hard_regsP12HARD_REG_SETm
00000000009b3017 00000051 T _Z14condjump_labelPK8rtx_insn
00000000009b3068 00000201 T _Z20delete_related_insnsP7rtx_def
00000000009b3269 0000003f T _Z27lhd_warn_unused_global_declPK9tree_node
00000000009b32a8 00000091 T _Z22global_decl_processingv
00000000009b3339 00000174 T _Z22lhd_simulate_enum_decljPKcP3vecISt4pairIS0_iE7va_heap6vl_ptrE
00000000009b34ad 00000037 T _Z16add_builtin_typePKcP9tree_node
00000000009b34e4 0000008d T _Z24lhd_simulate_record_decljPKc11array_sliceIKP9tree_nodeE
00000000009b3571 000005cb T _Z16pre_edge_rev_lcmiPP17simple_bitmap_defS1_S1_S1_PS1_S2_
00000000009b3b3c 00000042 T _Z14copy_INSN_LISTP13rtx_insn_list
00000000009b3b7e 00000029 T _Z16concat_INSN_LISTP13rtx_insn_listS0_
00000000009b3ba7 00000026 T _Z26remove_free_INSN_LIST_nodePP13rtx_insn_list
00000000009b3e3a 00000145 T _Z12dump_iv_infoP8_IO_FILEP6rtx_iv
00000000009b3f7f 00000082 T _Z20lra_delete_dead_insnP8rtx_insn
00000000009b49e9 00000083 T _Z34possible_polymorphic_call_target_pP9tree_nodeP6gimpleP11cgraph_node
00000000009b4a6c 0000017b T _Z22do_estimate_edge_hintsP11cgraph_edge
00000000009b4be8 00000073 T _ZNK6ipa_vr4dumpEP8_IO_FILE
00000000009b4c5c 00000375 T _ZN26ipa_param_body_adjustments17reset_debug_stmtsEv
00000000009b4fd2 00000027 T _ZN26ipa_param_body_adjustments31perform_cfun_body_modificationsEv
00000000009b6bf7 00000014 T _Z23default_goacc_fork_joinP5gcallPKib
00000000009b6c0b 00000032 T _Z27default_goacc_validate_dimsP9tree_nodePiij
00000000009b6c3d 0000000a T _Z23default_goacc_dim_limiti
00000000009b6c47 000000a5 T _Z21find_combined_omp_forPP9tree_nodePiPv
00000000009b6cec 0000003f T _Z27hashtab_entry_note_pointersI26omp_declare_variant_hasherEvPvS1_PFvS1_S1_S1_ES1_
00000000009b6d2b 0000003f T _Z27hashtab_entry_note_pointersI30omp_declare_variant_alt_hasherEvPvS1_PFvS1_S1_S1_ES1_
00000000009b6db7 0000004b T _Z21omp_find_combined_forP20gimple_stmt_iteratorPbP14walk_stmt_info
00000000009b6ee0 0000001a T _Z8finalizeI10hash_tableI26omp_declare_variant_hasherLb0E11xcallocatorEEvPv
00000000009b6efa 0000001a T _Z8finalizeI10hash_tableI30omp_declare_variant_alt_hasherLb0E11xcallocatorEEvPv
00000000009b7110 00000009 T _Z41gt_pch_p_30omp_declare_variant_base_entryPvS_PFvS_S_S_ES_
00000000009b7119 00000009 T _Z49gt_pch_p_38hash_table_omp_declare_variant_hasher_PvS_PFvS_S_S_ES_
00000000009b7122 00000009 T _Z53gt_pch_p_42hash_table_omp_declare_variant_alt_hasher_PvS_PFvS_S_S_ES_
00000000009b7326 00000010 T _Z20lra_debug_elim_tablev
00000000009b7336 00000043 T _Z25lra_print_live_range_listP8_IO_FILEP14lra_live_range
00000000009b73cd 00000013 T _Z5debugR14lra_live_range
00000000009b73e0 00000025 T _Z5debugP14lra_live_range
00000000009b7405 00000013 T _Z25lra_debug_live_range_listP14lra_live_range
00000000009b7418 00000012 T _Z28lra_debug_pseudo_live_rangesi
00000000009b7459 0000000d T _Z21lra_debug_live_rangesv
00000000009b749a 0000002c T _Z20lto_input_data_blockP15lto_input_blockPvm
00000000009b74c6 00000009 T _Z29lto_output_decl_state_streamsP12output_blockP18lto_out_decl_state
00000000009b763f 00000018 T _Z15omp_find_clauseP9tree_node15omp_clause_code
00000000009b7685 0000000a T _Z25omp_is_allocatable_or_ptrP9tree_node
00000000009b768f 0000000e T _Z27omp_check_optional_argumentP9tree_nodeb
00000000009b769d 00000018 T _Z17omp_mappable_typeP9tree_node
00000000009b76b5 000000d0 T _Z10omp_max_vfv
00000000009b7785 00000057 T _Z15omp_max_simt_vfv
00000000009b77dc 00000033 T _Z24omp_get_context_selectorP9tree_node12omp_tss_code11omp_ts_code
00000000009b780f 00000021 T _Z29omp_get_context_selector_listP9tree_node12omp_tss_code
00000000009b7830 00000034 T _Z19omp_lookup_tss_codePKc
00000000009b7864 00000050 T _Z18omp_lookup_ts_code12omp_tss_codePKc
00000000009b78b4 000000bb T _ZN26omp_declare_variant_hasher5equalEP30omp_declare_variant_base_entryS1_
00000000009b7970 00000010 T _ZN30omp_declare_variant_alt_hasher4hashEP30omp_declare_variant_base_entry
00000000009b7980 00000010 T _ZN30omp_declare_variant_alt_hasher5equalEP30omp_declare_variant_base_entryS1_
00000000009b7990 00000012 T _Z18oacc_get_fn_attribP9tree_node
00000000009b79fb 0000000f T _Z20oacc_get_ifn_dim_argPK6gimple
00000000009b7a0a 0000009f T _Z24omp_runtime_api_procnamePKc
00000000009b7aa9 0000002e T _Z20omp_runtime_api_callPK9tree_node
00000000009b7ad8 0000000b T _ZN18omp_addr_tokenizer14omp_addr_tokenC1ENS_10token_typeEP9tree_node
00000000009b7ae4 00000012 T _ZN18omp_addr_tokenizer14omp_addr_tokenC1ENS_19access_method_kindsEP9tree_node
00000000009b7af6 0000000e T _ZN18omp_addr_tokenizer14omp_addr_tokenC2ENS_10token_typeENS_20structure_base_kindsEP9tree_node
00000000009b7b04 0000002a T _Z9gt_pch_nxP25omp_declare_variant_entryPFvPvS1_S1_ES1_
00000000009b7b2e 00000046 T _Z47gt_pch_p_36vec_omp_declare_variant_entry_va_gc_PvS_PFvS_S_S_ES_
00000000009b7b74 00000032 T _Z9gt_pch_nxP30omp_declare_variant_base_entryPFvPvS1_S1_ES1_
00000000009b7ba6 00000005 T _Z9gt_pch_nxP26omp_declare_variant_hasherPFvPvS1_S1_ES1_
00000000009b7bab 00000005 T _Z9gt_pch_nxP30omp_declare_variant_alt_hasherPFvPvS1_S1_ES1_
00000000009b7c15 00000067 T _Z18lra_asm_insn_errorP8rtx_insn
00000000009b7c7c 00000018 T _Z14lra_dump_insnsP8_IO_FILE
00000000009b7f0e 00000064 T _Z26lra_need_for_scratch_reg_pv
00000000009b7f72 00000315 T _Z16print_lto_reportPKc
00000000009b8287 000000b4 T _Z12lto_tag_name8LTO_tags
00000000009b8389 00000029 T _Z20oacc_get_default_dimi
00000000009b83b2 00000029 T _Z16oacc_get_min_dimi
00000000009b83db 00000062 T _Z29omp_construct_traits_to_codesP9tree_nodeiP9tree_code
00000000009b843d 00000047 T _Z20oacc_get_fn_dim_sizeP9tree_nodei
00000000009b85c5 000000c4 T _Z14omp_parse_exprR3vecIPN18omp_addr_tokenizer14omp_addr_tokenE7va_heap6vl_ptrEP9tree_node
00000000009b8689 00000048 T _ZN18omp_addr_tokenizer18omp_access_chain_pER3vecIPNS_14omp_addr_tokenE7va_heap6vl_ptrEj
00000000009b8712 000000ad T _ZN26omp_declare_variant_hasher4hashEP30omp_declare_variant_base_entry
00000000009b8946 00000024 T _Z12gate_lto_outv
00000000009b89b4 0000000e T _ZN18lto_location_cache14input_locationEPjP9bitpack_dP7data_in
00000000009b89c2 00000027 T _Z11lto_init_ehv
00000000009b89e9 0000001f T _Z19lto_section_overrunP15lto_input_block
00000000009b8a08 00000024 T _Z21lto_value_range_errorPKclll
00000000009b8a2c 0000049a T _Z20lto_input_mode_tableP18lto_file_decl_data
00000000009b8ec6 00000037 T _Z20oacc_fn_attrib_levelP9tree_node
00000000009b9299 0000002f T _ZN18omp_addr_tokenizer17omp_accessed_addrER3vecIPNS_14omp_addr_tokenE7va_heap6vl_ptrEjP9tree_node
00000000009b9433 00000009 T _Z19make_trait_propertyP9tree_nodeS0_S0_
00000000009b96bc 0000003c T _Z27oacc_replace_fn_attrib_attrP9tree_nodeS0_
00000000009b96f8 00000017 T _Z22oacc_replace_fn_attribP9tree_nodeS0_
00000000009b9974 000001ec T _Z36omp_discover_implicit_declare_targetv
00000000009b9bd2 0000002d T _Z23make_trait_set_selector12omp_tss_codeP9tree_nodeS1_
00000000009b9bff 00000046 T _Z19make_trait_selector11omp_ts_codeP9tree_nodeS1_S1_
00000000009b9c45 0000009c T _Z23oacc_build_routine_dimsP9tree_node
00000000009b9da0 00000071 T _Z16oacc_launch_packjP9tree_nodej
00000000009b9e11 000000fb T _Z18oacc_set_fn_attribP9tree_nodeS0_P3vecIS0_7va_heap6vl_ptrE
00000000009ba38c 00000015 T _Z15debug_oacc_loopP9oacc_loop
00000000009ba872 000000c9 T _Z23default_goacc_reductionP5gcall
00000000009bb3b1 000001ed T _Z24omp_adjust_for_conditionjP9tree_codePP9tree_nodeS2_S2_
00000000009bb59e 00000056 T _Z26omp_get_for_step_from_incrjP9tree_node
00000000009bb5f4 0000192b T _Z20omp_extract_for_dataP8gomp_forP12omp_for_dataP17omp_for_data_loop
00000000009bcf1f 0000003d T _Z17omp_build_barrierP9tree_node
00000000009bcfed 00000074 T _Z26omp_context_name_list_propP9tree_node
00000000009bd061 000006fe T _Z28omp_context_selector_matchesP9tree_node
00000000009be586 000002a8 T _Z26omp_check_context_selectorjP9tree_node
00000000009bec31 00000451 T _Z32omp_context_selector_set_compare12omp_tss_codeP9tree_nodeS1_
00000000009bf082 000000bd T _Z24omp_mark_declare_variantjP9tree_nodeS0_
00000000009bf859 000001ef T _Z34omp_lto_output_declare_variant_altP23lto_simple_output_blockP11cgraph_nodeP20lto_symtab_encoder_d
00000000009bfa48 0000027c T _Z33omp_lto_input_declare_variant_altP15lto_input_blockP11cgraph_node3vecIP11symtab_node7va_heap6vl_ptrE
00000000009bfcc4 00000264 T _Z27oacc_verify_routine_clausesP9tree_nodePS0_jPKc
00000000009bff28 00000035 T _Z23omp_build_component_refP9tree_nodeS0_
00000000009bff5d 00000236 T _Z24debug_omp_tokenized_addrR3vecIPN18omp_addr_tokenizer14omp_addr_tokenE7va_heap6vl_ptrEb
00000000009c0193 00000029 T _Z9gt_ggc_mxR25omp_declare_variant_entry
00000000009c01bc 0000003c T _Z46gt_ggc_mx_vec_omp_declare_variant_entry_va_gc_Pv
00000000009c01f8 00000041 T _Z40gt_ggc_mx_omp_declare_variant_base_entryPv
00000000009c0239 0000000f T _Z9gt_ggc_mxRP30omp_declare_variant_base_entry
00000000009c0248 00000034 T _Z9gt_ggc_mxR30omp_declare_variant_base_entry
00000000009c027c 00000029 T _Z9gt_pch_nxR25omp_declare_variant_entry
00000000009c02a5 00000041 T _Z46gt_pch_nx_vec_omp_declare_variant_entry_va_gc_Pv
00000000009c02e6 00000049 T _Z40gt_pch_nx_omp_declare_variant_base_entryPv
00000000009c032f 0000000f T _Z9gt_pch_nxRP30omp_declare_variant_base_entry
00000000009c033e 00000056 T _Z48gt_pch_nx_hash_table_omp_declare_variant_hasher_Pv
00000000009c0394 00000056 T _Z52gt_pch_nx_hash_table_omp_declare_variant_alt_hasher_Pv
00000000009c03ea 00000034 T _Z9gt_pch_nxR30omp_declare_variant_base_entry
00000000009c0474 00000e49 T _Z27omp_resolve_declare_variantP9tree_node
00000000009c12bd 000000ad T _Z27omp_member_access_dummy_varP9tree_node
00000000009c5ee9 00000281 T _Z21omp_reduction_init_opj9tree_codeP9tree_node
00000000009c616a 00000012 T _Z18omp_reduction_initP9tree_nodeS0_
00000000009c88c1 000000cf T _Z17expand_ternary_op12machine_mode9optab_tagP7rtx_defS2_S2_S2_i
00000000009c8990 0000011c T _Z23expand_vector_broadcast12machine_modeP7rtx_def
00000000009ca4a0 000001e1 T _Z18expand_twoval_unop9optab_tagP7rtx_defS1_S1_i
00000000009ca793 00000158 T _Z27expand_twoval_binop_libfunc9optab_tagP7rtx_defS1_S1_S1_8rtx_code
00000000009cb696 000000fe T _Z26expand_one_cmpl_abs_nojump12machine_modeP7rtx_defS1_
00000000009dccd2 00000009 T _Z8finalizeI8hash_mapIP9tree_nodeS2_21simple_hashmap_traitsI19default_hash_traitsIS2_ES2_EEEvPv
00000000009dcdf6 0000003f T _Z27hashtab_entry_note_pointersI19libfunc_decl_hasherEvPvS1_PFvS1_S1_S1_ES1_
00000000009dce77 00000044 T _Z18rtl_predicted_by_pPK15basic_block_def12br_predictor
00000000009dcfcc 00000026 T _Z24gen_signed_fixed_libfunc9optab_tagPKcc12machine_mode
00000000009dcff2 00000026 T _Z26gen_unsigned_fixed_libfunc9optab_tagPKcc12machine_mode
00000000009dd018 000000cc T _Z14gen_fp_libfunc9optab_tagPKcc12machine_mode
00000000009dd0e4 000000d9 T _Z19gen_intv_fp_libfunc9optab_tagPKcc12machine_mode
00000000009dd1bd 0000006e T _Z28gen_int_signed_fixed_libfunc9optab_tagPKcc12machine_mode
00000000009dd22b 00000009 T _Z42gt_pch_p_31hash_table_libfunc_decl_hasher_PvS_PFvS_S_S_ES_
00000000009dd234 0000001a T _Z8finalizeI10hash_tableI19libfunc_decl_hasherLb0E11xcallocatorEEvPv
00000000009dd24e 0000001a T _Z8finalizeI10hash_tableI14libfunc_hasherLb0E11xcallocatorEEvPv
00000000009dd5aa 0000000c T _Z18emit_libcall_blockP8rtx_insnP7rtx_defS2_S2_
00000000009dd5b6 00000012 T _Z23expand_mem_signal_fence8memmodel
00000000009dd5c8 00000011 T _ZN14libfunc_hasher4hashEP13libfunc_entry
00000000009dd5da 00000018 T _ZN14libfunc_hasher5equalEP13libfunc_entryS1_
00000000009dd5f2 000000b6 T _Z21convert_optab_libfunc9optab_tag12machine_modeS0_
00000000009dd6a8 00000027 T _Z17gen_fixed_libfunc9optab_tagPKcc12machine_mode
00000000009dd6cf 0000006f T _Z21gen_int_fixed_libfunc9optab_tagPKcc12machine_mode
00000000009dd73e 00000005 T _Z9gt_pch_nxP19libfunc_decl_hasherPFvPvS1_S1_ES1_
00000000009dd743 00000044 T _Z21convert_optab_handler9optab_tag12machine_modeS0_17optimization_type
00000000009dd81c 0000000e T _ZN12optinfo_itemC1E17optinfo_item_kindjPc
00000000009dd82a 0000000d T _ZN12optinfo_itemD1Ev
00000000009dd838 0000005d T _ZN7optinfoD1Ev
00000000009dd895 00000014 T _Z29optinfo_wants_inlining_info_pv
00000000009dd8aa 00000034 T _ZN21optrecord_json_writerD1Ev
00000000009dd8de 00000010 T _Z25profile_quality_as_string15profile_quality
00000000009dd8ee 00006719 T _Z21cl_optimization_printP8_IO_FILEiP15cl_optimization
00000000009e4007 00007676 T _Z26cl_optimization_print_diffP8_IO_FILEiP15cl_optimizationS2_
00000000009eb67d 00000331 T _Z22cl_target_option_printP8_IO_FILEiP16cl_target_option
00000000009eb9ae 00000414 T _Z27cl_target_option_print_diffP8_IO_FILEiP16cl_target_optionS2_
00000000009ebdc8 0000001b T _ZN3gcc12pass_manager27execute_pass_mode_switchingEv
00000000009ebde3 00000036 T _Z18print_current_passP8_IO_FILE
00000000009ebe19 0000000d T _Z10debug_passv
00000000009ebe26 00000017 T _ZNK3gcc12pass_manager15get_pass_for_idEi
00000000009ebe3e 00000036 T _ZN3gcc12pass_manager16get_pass_by_nameEPKc
00000000009ebe74 000000aa T _ZN3gcc12pass_managerD1Ev
00000000009ebf1e 00000110 T _Z15dump_propertiesP8_IO_FILEj
00000000009ec02e 00000012 T _Z16debug_propertiesj
00000000009ec07b 0000005a T unregister_callback
00000000009ec0d5 0000002b T _Z16plugins_active_pv
00000000009ec100 000000d7 T _Z19dump_active_pluginsP8_IO_FILE
00000000009ec1d7 00000010 T _Z20debug_active_pluginsv
00000000009ec1e7 00000082 T plugin_default_version_check
00000000009ec269 0000000b T get_event_last
00000000009ec274 00000017 T _ZN16ssa_name_limit_t4nextEv
00000000009ec2c9 0000006e T _Z20get_hot_bb_thresholdv
00000000009ec337 0000000c T _Z20set_hot_bb_thresholdl
00000000009ec343 00000032 T _Z27edge_probability_reliable_pPK8edge_def
00000000009ec375 00000013 T _Z14predictor_name12br_predictor
00000000009ec39a 0000001c T _ZN10rtx_writerC1EP8_IO_FILEibbP17rtx_reuse_manager
00000000009ec3b6 00000039 T _ZN17rtx_reuse_manager12has_reuse_idEPK7rtx_defPi
00000000009ec3f0 0000004a T _ZN10rtx_writer27operand_has_default_value_pEPK7rtx_defi
00000000009ec43a 0000001b T _ZN10rtx_writer16finish_directiveEv
00000000009ec455 0000003a T _Z9dump_addrP8_IO_FILEPKcPKv
00000000009ec48f 0000003e T _Z9indent_toP8_IO_FILEi
00000000009ec4cd 00000009 T _Z5debugRK9tree_node
00000000009ec4d6 0000001f T _Z5debugPK9tree_node
00000000009ec4f5 00000006 T _Z10debug_headRK9tree_node
00000000009ec4fb 00000006 T _Z10debug_headPK9tree_node
00000000009ec563 0000004e T _Z16init_branch_probv
00000000009ec5b1 000001a0 T _Z15end_branch_probv
00000000009ec751 0000003b T _Z21parse_profile_qualityPKcP15profile_quality
00000000009ec78c 000000cf T _ZNK19profile_probability4dumpEPc
00000000009ec85c 00000027 T _ZNK19profile_probability4dumpEP8_IO_FILE
00000000009ec884 00000023 T _ZNK19profile_probability5debugEv
00000000009ec8a8 00000060 T _ZNK19profile_probability14differs_from_pES_
00000000009ec943 00000029 T _Z22optinfo_kind_to_string12optinfo_kind
00000000009ec96c 00000102 T _ZN7optinfo8add_itemEP12optinfo_item
00000000009eca6e 00000047 T _ZN7optinfo21handle_dump_file_kindE9dump_flag
00000000009ecab6 00000023 T _ZN21optrecord_json_writer9pop_scopeEv
00000000009ecad9 00000050 T _Z20passes_pass_traverseRKPKcRKP8opt_passPv
00000000009ecb2a 000000d4 T _ZNK3gcc12pass_manager15create_pass_tabEv
00000000009ecc24 000000bd T _Z28invoke_plugin_callbacks_fulliPv
00000000009ecd0f 0000004f T _Z23br_prob_note_reliable_pPK7rtx_def
00000000009ecd5e 00000022 T _Z15assert_is_emptyRKPK15basic_block_defRKP15edge_predictionPv
00000000009ece02 000003fc T _Z15expand_copysignP7rtx_defS0_S0_
00000000009ed1fe 00000198 T _Z21can_vec_set_var_idx_p12machine_mode
00000000009ed396 0000019f T _Z25can_vec_extract_var_idx_p12machine_modeS_
00000000009ed535 000000ab T _Z13gen_add2_insnP7rtx_defS0_
00000000009ed5e0 00000087 T _Z13gen_add3_insnP7rtx_defS0_S0_
00000000009ed667 000000b5 T _Z16gen_addptr3_insnP7rtx_defS0_S0_
00000000009ed71c 000000ab T _Z13gen_sub2_insnP7rtx_defS0_
00000000009ed7c7 00000078 T _Z14have_sub2_insnP7rtx_defS0_
00000000009ed83f 0000019a T _Z20expand_fixed_convertP7rtx_defS0_ii
00000000009ed9d9 00000138 T _Z20debug_optab_libfuncsv
00000000009edb11 00000092 T _Z23expand_mem_thread_fence8memmodel
00000000009edba3 000000cc T _Z13gen_cond_trap8rtx_codeP7rtx_defS1_S1_
00000000009eddb9 000000a7 T _Z18can_vec_perm_var_p12machine_mode
00000000009ede60 000000b9 T _Z22expand_vec_series_expr12machine_modeP7rtx_defS1_S1_
00000000009edf19 000002fc T _Z20expand_mult_highpart12machine_modeP7rtx_defS1_S1_b
00000000009ee4ae 0000002f T _Z21can_atomic_exchange_p12machine_modeb
00000000009ee5a8 00000127 T _Z26expand_atomic_test_and_setP7rtx_defS0_8memmodel
00000000009ee6cf 00000060 T _Z22expand_atomic_exchangeP7rtx_defS0_S0_8memmodel
00000000009ee72f 0000016f T _Z35expand_asm_reg_clobber_mem_blockage12HARD_REG_SET
00000000009ee89e 00000059 T _Z24valid_multiword_target_pP7rtx_def
00000000009ee8f7 0000001d T _Z22maybe_expand_jump_insn9insn_codejP14expand_operand
00000000009ee914 00000024 T _Z16expand_jump_insn9insn_codejP14expand_operand
00000000009ee938 0000006f T _Z18emit_indirect_jumpP7rtx_def
00000000009ee9a7 0000000b T _Z22build_libfunc_functionPKc
00000000009ee9b2 0000000b T _Z16init_one_libfuncPKc
00000000009ee9bd 00000074 T _Z26set_user_assembler_libfuncPKcS0_
00000000009eeae7 00000104 T _Z18init_sync_libfuncsi
00000000009eebeb 00000056 T _Z41gt_pch_nx_hash_table_libfunc_decl_hasher_Pv
00000000009eec41 000000a5 T _Z15can_vec_extract12machine_modeS_
00000000009eece6 00000082 T _Z23get_len_load_store_mode12machine_modebP11internal_fn
00000000009eed68 0000007e T _ZNK7optinfo20emit_for_opt_problemEv
00000000009ef0a4 00000234 T get_named_event_id
00000000009ef40e 000000bb T _ZN17rtx_reuse_managerC1Ev
00000000009ef6fa 00000032 T _ZN21optrecord_json_writer10add_recordEPN4json6objectE
00000000009ef72c 00000061 T _ZN21optrecord_json_writer21impl_location_to_jsonE20dump_impl_location_t
00000000009ef78e 00000059 T _ZN21optrecord_json_writer21profile_count_to_jsonE13profile_count
00000000009ef7e8 00000092 T _ZN21optrecord_json_writer16location_to_jsonEj
00000000009ef87a 0000015f T _ZN21optrecord_json_writer22inlining_chain_to_jsonEj
00000000009ef9d9 000064df T _Z23cl_optimization_compareP11gcc_optionsS0_
00000000009f5eb8 00000017 T _ZN8opt_pass5cloneEv
00000000009f5ed0 00000017 T _ZN8opt_pass14set_pass_paramEjb
00000000009f5ee7 00000024 T _Z22register_one_dump_fileP8opt_pass
00000000009f5f0c 00000080 T _ZNK3gcc12pass_manager11dump_passesEv
00000000009f5f8c 0000001e T _Z11dump_passesv
00000000009f65b5 0000000e T _Z11enable_passPKc
00000000009f65c3 0000000b T _Z12disable_passPKc
00000000009f666a 0000013d T _ZN3gcc12pass_manager13register_passEP18register_pass_info
00000000009f67a7 00000024 T _Z13register_passP18register_pass_info
00000000009f67cb 00000039 T _Z13register_passP8opt_pass20pass_positioning_opsPKci
00000000009f6804 00000022 T default_plugin_dir_name
00000000009f6826 0000001d T _Z10debug_bodyRK9tree_node
00000000009f6843 0000001c T _Z10debug_bodyPK9tree_node
00000000009f691b 000000f1 T _Z23emergency_dump_functionv
00000000009f6a0c 00000030 T _Z15warn_if_pluginsv
00000000009f6b9e 00000448 T _ZNK3gcc12pass_manager19dump_profile_reportEv
00000000009f6fe6 0000001e T _Z19dump_profile_reportv
00000000009f7004 0000020f T _Z20parse_plugin_arg_optPKc
00000000009f7213 00000153 T _Z14add_new_pluginPKc
00000000009f7366 0000014e T register_callback
00000000009f75c1 00000033 T _Z15for_each_pluginPFvPK16plugin_name_argsPvES2_
00000000009f75f4 00000054 T _Z22print_plugins_versionsP8_IO_FILEPKc
00000000009f7648 00000054 T _Z18print_plugins_helpP8_IO_FILEPKc
00000000009f769c 00000250 T _ZNK10access_ref4dumpEP8_IO_FILE
00000000009f78ec 000001a6 T _ZN13pointer_query4dumpEP8_IO_FILEb
00000000009f7a92 00000031 T _Z14print_mem_exprP8_IO_FILEPK9tree_node
00000000009f7ac4 0000020b T _ZN10rtx_writer24print_rtx_operand_code_rEPK7rtx_def
00000000009f7cd0 0000000f T _ZN16ssa_name_limit_t9leave_phiEP9tree_node
00000000009f85ce 00000036 T _Z19compute_expr_transpPP4exprP8_IO_FILE
00000000009f8604 0000008e T _Z29optimize_loop_nest_for_size_pP4loop
00000000009f8692 0000000d T _Z14maybe_hot_bb_pP8functionPK15basic_block_def
00000000009f869f 00000016 T _Z26function_optimization_typeP8function
00000000009f86b5 00000016 T _Z22insn_optimization_typev
00000000009f86cb 000000f0 T _Z17expand_sfix_optabP7rtx_defS0_9optab_tag
00000000009f87bb 00000012 T _Z20rtl_profile_for_edgeP8edge_def
00000000009f87cd 00000055 T _Z16rtl_predict_edgeP8edge_def12br_predictori
00000000009f8a50 000002aa T _Z23handle_missing_profilesv
00000000009f8cfa 00000078 T _Z25report_predictor_hitratesv
00000000009f8d72 00000113 T _ZN17rtx_reuse_manager10preprocessEPK7rtx_def
00000000009f8e86 0000000d T _ZN17rtx_reuse_manager10seen_def_pEi
00000000009f8e94 0000000d T _ZN17rtx_reuse_manager12set_seen_defEi
00000000009f8ea2 00000261 T _ZN10rtx_writer24print_rtx_operand_code_iEPK7rtx_defi
00000000009f934e 000000a6 T _Z21print_insn_with_notesP14pretty_printerPK8rtx_insn
00000000009f93f4 00000388 T _Z13print_patternP14pretty_printerPK7rtx_defi
00000000009f9e54 000003a4 T _Z11print_valueP14pretty_printerPK7rtx_defi
00000000009fa1f8 0000027f T _Z10print_insnP14pretty_printerPK8rtx_insni
00000000009fa477 00000065 T _Z21rtl_dump_bb_for_graphP14pretty_printerP15basic_block_def
00000000009fa4dc 0000000e T _Z13debug_bb_slimP15basic_block_def
00000000009fa4ea 00000024 T _Z15debug_bb_n_slimi
00000000009fa50e 000002ab T _Z16print_node_briefP8_IO_FILEPKcPK9tree_nodei
00000000009fa7ba 000002f4 T _ZN10rtx_writer24print_rtx_operand_code_0EPK7rtx_defi
00000000009faaae 00000227 T _ZN10rtx_writer17print_rtx_operandEPK7rtx_defi
00000000009facd6 00000755 T _ZN10rtx_writer9print_rtxEPK7rtx_def
00000000009fb42c 0000009c T _ZN10rtx_writer24print_rtx_operand_code_eEPK7rtx_defi
00000000009fb4c8 00000109 T _ZN10rtx_writer24print_rtx_operand_code_uEPK7rtx_defi
00000000009fb5d2 000001f9 T _ZN10rtx_writer31print_rtx_operand_codes_E_and_VEPK7rtx_defi
00000000009fb7cb 0000002d T _Z16print_inline_rtxP8_IO_FILEPK7rtx_defi
00000000009fb7f8 00000043 T _Z9debug_rtxPK7rtx_def
00000000009fb83b 00000006 T _Z5debugRK7rtx_def
00000000009fb841 0000001c T _Z5debugPK7rtx_def
00000000009fb85d 00000062 T _Z14debug_rtx_listPK8rtx_insni
00000000009fb8bf 00000047 T _Z14debug_rtx_findPK8rtx_insni
00000000009fb906 0000003a T _Z15debug_rtx_rangePK8rtx_insnS1_
00000000009fb96e 0000005d T _Z12debug_helperIP7rtx_defEvR3vecIT_7va_heap6vl_ptrE
00000000009fb9cb 00000006 T _Z5debugR3vecIP7rtx_def7va_heap6vl_ptrE
00000000009fb9d1 0000001c T _Z5debugP3vecIP7rtx_def7va_heap6vl_ptrE
00000000009fb9ed 00000050 T _Z12debug_helperIP7rtx_defEvR3vecIT_5va_gc8vl_embedE
00000000009fba3d 00000006 T _Z5debugR3vecIP7rtx_def5va_gc8vl_embedE
00000000009fba43 0000001c T _Z5debugP3vecIP7rtx_def5va_gc8vl_embedE
00000000009fba5f 0000005d T _Z12debug_helperIP8rtx_insnEvR3vecIT_7va_heap6vl_ptrE
00000000009fbabc 00000006 T _Z5debugR3vecIP8rtx_insn7va_heap6vl_ptrE
00000000009fbac2 0000001c T _Z5debugP3vecIP8rtx_insn7va_heap6vl_ptrE
00000000009fbade 00000050 T _Z12debug_helperIP8rtx_insnEvR3vecIT_5va_gc8vl_embedE
00000000009fbb2e 00000006 T _Z5debugR3vecIP8rtx_insn5va_gc8vl_embedE
00000000009fbb34 0000001c T _Z5debugP3vecIP8rtx_insn5va_gc8vl_embedE
00000000009fbb50 00000075 T _Z12debug_helperIP7rtx_defEvR8hash_setIT_Lb0E19default_hash_traitsIS3_EE
00000000009fbbc5 00000006 T _Z5debugR8hash_setIP7rtx_defLb0E19default_hash_traitsIS1_EE
00000000009fbbcb 0000001f T _Z5debugP8hash_setIP7rtx_defLb0E19default_hash_traitsIS1_EE
00000000009fbbea 00000064 T _Z12debug_helperIP8rtx_insnEvR8hash_setIT_Lb0E19default_hash_traitsIS3_EE
00000000009fbc4e 00000006 T _Z5debugR8hash_setIP8rtx_insnLb0E19default_hash_traitsIS1_EE
00000000009fbc54 0000001c T _Z5debugP8hash_setIP8rtx_insnLb0E19default_hash_traitsIS1_EE
00000000009fbc70 00000095 T _ZN10rtx_writer9print_rtlEPK7rtx_def
00000000009fbd05 00000028 T _Z9print_rtlP8_IO_FILEPK7rtx_def
00000000009fbd2d 00000031 T _Z16print_simple_rtlP8_IO_FILEPK7rtx_def
00000000009fbd5e 000000cb T _ZN10rtx_writer28print_rtl_single_with_indentEPK7rtx_defi
00000000009fbe29 0000002a T _Z16print_rtl_singleP8_IO_FILEPK7rtx_def
00000000009fbe53 00000085 T _Z26dump_expr_hash_table_entryPP4exprP8_IO_FILE
00000000009fbed8 00000077 T _Z24delete_redundant_insns_1PP4exprPv
00000000009fd374 0000008a T _Z18print_rtx_insn_vecP8_IO_FILERK3vecIP8rtx_insn7va_heap6vl_ptrE
00000000009fd414 0000005d T _Z12debug_helperIP9tree_nodeEvR3vecIT_7va_heap6vl_ptrE
00000000009fd471 00000006 T _Z5debugR3vecIP9tree_node7va_heap6vl_ptrE
00000000009fd477 0000001c T _Z5debugP3vecIP9tree_node7va_heap6vl_ptrE
00000000009fd493 00000050 T _Z12debug_helperIP9tree_nodeEvR3vecIT_5va_gc8vl_embedE
00000000009fd4e3 00000006 T _Z5debugR3vecIP9tree_node5va_gc8vl_embedE
00000000009fd4e9 0000001c T _Z5debugP3vecIP9tree_node5va_gc8vl_embedE
00000000009fd505 0000006a T _Z12debug_helperIP9tree_nodeEvR8hash_setIT_Lb0E19default_hash_traitsIS3_EE
00000000009fd56f 00000006 T _Z5debugR8hash_setIP9tree_nodeLb0E19default_hash_traitsIS1_EE
00000000009fd575 0000001c T _Z5debugP8hash_setIP9tree_nodeLb0E19default_hash_traitsIS1_EE
00000000009fd591 000001f7 T _Z21print_decl_identifierP8_IO_FILEP9tree_nodei
00000000009fdd74 00000064 T _Z18read_thunk_profileP11cgraph_node
00000000009fddd8 000000dd T _ZNK13profile_count4dumpEP8_IO_FILEP8function
00000000009fdeb6 0000002a T _ZNK13profile_count5debugEv
00000000009fdee0 00000034 T _ZN19profile_probability10stream_outEP17lto_output_stream
00000000009fdf14 000002fb T _Z19expand_vec_perm_var12machine_modeP7rtx_defS1_S1_S1_
00000000009fe20f 0000008a T _Z16set_conv_libfunc9optab_tag12machine_modeS0_PKc
00000000009fe299 0000024a T _Z27gen_interclass_conv_libfunc9optab_tagPKc12machine_modeS2_
00000000009fe4e3 00000026 T _Z26gen_int_to_fp_conv_libfunc9optab_tagPKc12machine_modeS2_
00000000009fe509 0000001e T _Z23gen_ufloat_conv_libfunc9optab_tagPKc12machine_modeS2_
00000000009fe527 00000022 T _Z37gen_int_to_fp_nondecimal_conv_libfunc9optab_tagPKc12machine_modeS2_
00000000009fe549 00000026 T _Z26gen_fp_to_int_conv_libfunc9optab_tagPKc12machine_modeS2_
00000000009fe56f 00000050 T _Z25gen_fractuns_conv_libfunc9optab_tagPKc12machine_modeS2_
00000000009fe5bf 00000034 T _Z28gen_satfractuns_conv_libfunc9optab_tagPKc12machine_modeS2_
00000000009fe5f3 0000023b T _Z27gen_intraclass_conv_libfunc9optab_tagPKc12machine_modeS2_
00000000009fe82e 000000dd T _Z22gen_trunc_conv_libfunc9optab_tagPKc12machine_modeS2_
00000000009fe90b 00000053 T _Z23gen_extend_conv_libfunc9optab_tagPKc12machine_modeS2_
00000000009fe95e 00000051 T _Z22gen_fract_conv_libfunc9optab_tagPKc12machine_modeS2_
00000000009fe9af 0000003c T _Z25gen_satfract_conv_libfunc9optab_tagPKc12machine_modeS2_
00000000009fe9ec 000000ea T _ZNK21optrecord_json_writer5writeEv
00000000009fead6 00000056 T _Z15dump_value_slimP8_IO_FILEPK7rtx_defi
00000000009feb2c 0000004c T _Z14dump_insn_slimP8_IO_FILEPK8rtx_insn
00000000009feb78 00000010 T _Z15debug_insn_slimPK8rtx_insn
00000000009feb88 00000089 T _Z13dump_rtl_slimP8_IO_FILEPK8rtx_insnS3_ii
00000000009fec11 0000001b T _Z14debug_rtl_slimPK8rtx_insnS1_ii
00000000009fec2c 0000004e T _Z16str_pattern_slimPK7rtx_def
00000000009fec7a 00001fe1 T _Z10print_nodeP8_IO_FILEPKcP9tree_nodeib
0000000000a00c5c 00000084 T _ZN21optrecord_json_writer21get_id_value_for_passEP8opt_pass
0000000000a00ce0 00000118 T _ZN21optrecord_json_writer12pass_to_jsonEP8opt_pass
0000000000a00df8 00000080 T _ZN21optrecord_json_writer13add_pass_listEPN4json5arrayEP8opt_pass
0000000000a00e78 000001ee T _ZN21optrecord_json_writerC1Ev
0000000000a01066 000002e6 T _ZN21optrecord_json_writer15optinfo_to_jsonEPK7optinfo
0000000000a0134c 00000070 T _ZN21optrecord_json_writer10add_recordEPK7optinfo
0000000000a013bc 0000072d T _ZNK10access_ref13inform_accessE11access_modei
0000000000a01aea 0000009d T _ZN11access_dataC2EP11range_queryP9tree_node11access_modeS3_bS3_b
0000000000a01b87 000000d3 T _Z15compute_objsizeP9tree_nodeP6gimpleiPS0_S3_P11range_query
0000000000a01c5a 00000087 T _Z10debug_treeP9tree_node
0000000000a01ce1 00000009 T _Z9debug_rawRK9tree_node
0000000000a01cea 0000001f T _Z9debug_rawPK9tree_node
0000000000a01d09 0000006a T _Z9debug_rawR3vecIP9tree_node5va_gc8vl_embedE
0000000000a01d73 0000001c T _Z9debug_rawP3vecIP9tree_node5va_gc8vl_embedE
0000000000a01d8f 00002ad5 T _Z11branch_probb
0000000000a04864 00000007 T _ZNK14range_operator15overflow_free_pERK6irangeS2_13relation_trio
0000000000a0486c 0000000f T _ZNK20operator_logical_not9op1_rangeER6irangeP9tree_nodeRKS0_S5_13relation_trio
0000000000a0487c 0000003c T _ZNK19pointer_or_operator9op1_rangeER6irangeP9tree_nodeRKS0_S5_13relation_trio
0000000000a048b8 00000009 T _ZNK19pointer_or_operator9op2_rangeER6irangeP9tree_nodeRKS0_S5_13relation_trio
0000000000a050ac 000001a3 T _ZNK26operator_widen_mult_signed7wi_foldER6irangeP9tree_nodeRK16generic_wide_intI16wide_int_storageES8_S8_S8_
0000000000a05250 00000039 T _ZNK11operator_le16op1_op2_relationERK6irangeRK6frangeS5_
0000000000a0528a 00000011 T _ZNK20operator_logical_and9op2_rangeER6irangeP9tree_nodeRKS0_S5_13relation_trio
0000000000a0529c 00000011 T _ZNK19operator_logical_or9op2_rangeER6irangeP9tree_nodeRKS0_S5_13relation_trio
0000000000a053d8 0000000e T _ZNK15operator_negate9op1_rangeER6frangeP9tree_nodeRKS0_S5_13relation_trio
0000000000a053e6 0000000c T _ZNK13operator_mult9op2_rangeER6frangeP9tree_nodeRKS0_S5_13relation_trio
0000000000a06368 000000b1 T _ZNK19profile_probability4sqrtEv
0000000000a0641a 000000fa T _ZNK19profile_probability3powEi
0000000000a06514 00000021 T _ZNK16range_op_handler13dispatch_kindERK6vrangeS2_S2_
0000000000a06536 0000006d T _ZN15function_reader18add_fixup_insn_uidE13file_locationP7rtx_defii
0000000000a065a4 0000006d T _ZN15function_reader31add_fixup_note_insn_basic_blockE13file_locationP7rtx_defii
0000000000a06612 00000005 T _ZN15function_reader25add_fixup_source_locationE13file_locationP8rtx_insnPKcii
0000000000a06618 00000036 T _ZN15function_reader12apply_fixupsEv
0000000000a0664e 00000022 T _ZN15function_reader15get_insn_by_uidEi
0000000000a06670 0000002b T _Z13real_exponentPK10real_value
0000000000a0669b 0000001a T _Z20real_issignaling_nanPK10real_value
0000000000a066b5 0000001b T _Z11real_iszeroPK10real_valueb
0000000000a06762 00000013 T _Z13real_copysignP10real_valuePKS_
0000000000a06775 00000067 T _Z26validate_replace_rtx_groupP7rtx_defS0_P8rtx_insn
0000000000a067dc 0000001c T _Z22pmode_register_operandP7rtx_def12machine_mode
0000000000a067f8 0000001c T _Z20const_double_operandP7rtx_def12machine_mode
0000000000a06814 00000096 T _Z23get_referenced_operandsPKcPbj
0000000000a06977 000001c7 T _Z16debug_value_dataP10value_data
0000000000a06b43 00000037 T _Z19reginfo_cc_finalizev
0000000000a06b7a 00000036 T _ZN16target_hard_regs8finalizeEv
0000000000a06bb5 0000002b T _Z23regrename_chain_from_idj
0000000000a06be0 0000009b T _Z25regrename_find_superclassP7du_headPiP12HARD_REG_SET
0000000000a06c7b 000000a1 T _Z14regrename_initb
0000000000a06d21 00000016 T _Z19clear_secondary_memv
0000000000a06d37 00000026 T _Z21transfer_replacementsii
0000000000a06d5d 00000026 T _Z22earlyclobber_operand_pP7rtx_def
0000000000a06d83 00000029 T _Z17copy_replacementsP7rtx_defS0_
0000000000a06dac 00000026 T _Z17move_replacementsPP7rtx_defS1_
0000000000a06dd2 0000002d T _Z24elimination_target_reg_pP7rtx_def
0000000000a06e0b 00000015 T _Z19dump_rtx_statisticsv
0000000000a06e72 00000024 T _ZN23generic_subrtx_iteratorI18const_rtx_accessorEC1ERNS1_10array_typeEPK7rtx_defPK21rtx_subrtx_bound_info
0000000000a06e96 00000009 T _ZNK23generic_subrtx_iteratorI18const_rtx_accessorEdeEv
0000000000a06ea0 00000008 T _ZNK23generic_subrtx_iteratorI18const_rtx_accessorE6at_endEv
0000000000a06ea8 00000009 T _ZN23generic_subrtx_iteratorI18const_rtx_accessorE13skip_subrtxesEv
0000000000a06eb2 0000000d T _ZN23generic_subrtx_iteratorI18const_rtx_accessorE10substituteEPK7rtx_def
0000000000a06ec0 0000000e T _ZN23generic_subrtx_iteratorI18const_rtx_accessorE10array_typeC1Ev
0000000000a06ece 00000016 T _ZN23generic_subrtx_iteratorI18const_rtx_accessorE10array_typeD1Ev
0000000000a06ee4 00000009 T _ZN23generic_subrtx_iteratorI16rtx_var_accessorE13skip_subrtxesEv
0000000000a06eee 0000000d T _ZN23generic_subrtx_iteratorI16rtx_var_accessorE10substituteEP7rtx_def
0000000000a06efc 00000024 T _ZN23generic_subrtx_iteratorI16rtx_ptr_accessorEC2ERNS1_10array_typeEPP7rtx_defPK21rtx_subrtx_bound_info
0000000000a06f20 00000009 T _ZNK23generic_subrtx_iteratorI16rtx_ptr_accessorEdeEv
0000000000a06f2a 00000008 T _ZNK23generic_subrtx_iteratorI16rtx_ptr_accessorE6at_endEv
0000000000a06f32 00000009 T _ZN23generic_subrtx_iteratorI16rtx_ptr_accessorE13skip_subrtxesEv
0000000000a06f3c 0000000d T _ZN23generic_subrtx_iteratorI16rtx_ptr_accessorE10substituteEPP7rtx_def
0000000000a06f4a 0000000e T _ZN23generic_subrtx_iteratorI16rtx_ptr_accessorE10array_typeC1Ev
0000000000a06f58 00000016 T _ZN23generic_subrtx_iteratorI16rtx_ptr_accessorE10array_typeD1Ev
0000000000a06f6e 000000ee T _Z14rtx_unstable_pPK7rtx_def
0000000000a0705c 00000039 T _Z11split_constP7rtx_defPS0_S1_
0000000000a07095 0000003d T _Z14unsigned_reg_pP7rtx_def
0000000000a070d2 00000026 T _Z19no_labels_between_pPK8rtx_insnS1_
0000000000a070f8 0000001b T _Z14in_insn_list_pPK13rtx_insn_listPK8rtx_insn
0000000000a071d4 0000009b T _Z12regno_use_injP7rtx_def
0000000000a0726f 00000026 T _Z10auto_inc_pPK7rtx_def
0000000000a07295 00000060 T _Z15get_index_scalePK12address_info
0000000000a072f5 000000cf T _Z13debug_regionsv
0000000000a073c4 00000137 T _Z15dump_region_dotP8_IO_FILEi
0000000000a074fb 0000002b T _Z20dump_region_dot_filePKci
0000000000a07576 00000127 T _Z15debug_candidatei
0000000000a0769d 00000052 T _Z16debug_candidatesi
0000000000a0775c 0000000b T _Z32get_rgn_sched_max_insns_priorityv
0000000000a07767 00000042 T _Z20sched_rgn_local_freev
0000000000a077a9 0000007e T _Z36rgn_make_new_region_out_of_new_blockP15basic_block_def
0000000000a0789e 00000054 T _Z10ilist_copyP10_list_node
0000000000a078f2 0000003c T _Z12ilist_invertP10_list_node
0000000000a0792e 0000004b T _Z9blist_addPP10_list_nodeP8rtx_insnS0_P9deps_desc
0000000000a07979 0000000e T _Z15flist_tail_initP14flist_tail_def
0000000000a07987 0000001d T _Z12flist_lookupP10_list_nodeP8rtx_insn
0000000000a079a4 00000035 T _Z12def_list_addPP10_list_nodeP8rtx_insnj
0000000000a079d9 0000003b T _Z21create_target_contextb
0000000000a07a14 00000013 T _Z18set_target_contextPv
0000000000a07a27 00000035 T _Z20reset_target_contextPvb
0000000000a07a5c 00000025 T _Z13free_nop_poolv
0000000000a07ab9 0000003c T _Z14sel_vinsn_costP9vinsn_def
0000000000a07b7a 00000011 T _ZNK14operator_equal14update_bitmaskER6irangeRKS0_S3_
0000000000a07b8c 00000011 T _ZNK18operator_not_equal14update_bitmaskER6irangeRKS0_S3_
0000000000a07b9e 00000011 T _ZNK11operator_lt14update_bitmaskER6irangeRKS0_S3_
0000000000a07bb0 00000011 T _ZNK11operator_le14update_bitmaskER6irangeRKS0_S3_
0000000000a07bc2 00000011 T _ZNK11operator_gt14update_bitmaskER6irangeRKS0_S3_
0000000000a07bd4 00000011 T _ZNK11operator_ge14update_bitmaskER6irangeRKS0_S3_
0000000000a07be6 00000011 T _ZNK13operator_cast14update_bitmaskER6irangeRKS0_S3_
0000000000a07bf8 00000011 T _ZNK20operator_bitwise_not14update_bitmaskER6irangeRKS0_S3_
0000000000a07c0a 00000267 T _ZNK20operator_logical_and10fold_rangeER6irangeP9tree_nodeRKS0_S5_13relation_trio
0000000000a07e72 00000045 T _ZNK19operator_logical_or10fold_rangeER6irangeP9tree_nodeRKS0_S5_13relation_trio
0000000000a07eb8 0000008c T _ZNK18operator_addr_expr10fold_rangeER6irangeP9tree_nodeRKS0_S5_13relation_trio
0000000000a07f62 0000003e T _ZNK27fixup_note_insn_basic_block5applyEP15function_reader
0000000000a07fa0 000001a2 T _Z27real_can_shorten_arithmetic12machine_modeS_
0000000000a08142 0000006a T _Z16check_bool_attrsP8rtx_insn
0000000000a08362 000000c8 T _Z17regno_clobbered_pjP8rtx_insn12machine_modei
0000000000a08ca4 00000084 T _Z14cwi_output_hexP8_IO_FILEPK7rtx_def
0000000000a08fc8 00000074 T _Z21return_regset_to_poolP11bitmap_head
0000000000a0906e 00000023 T _Z12vinsn_attachP9vinsn_def
0000000000a09091 00000060 T _Z12vinsn_detachP9vinsn_def
0000000000a09152 00000014 T _ZNK12operator_cst10fold_rangeER6frangeP9tree_nodeRKS0_S5_13relation_trio
0000000000a09166 0000008c T _ZNK11operator_le9op1_rangeER6frangeP9tree_nodeRK6irangeRKS0_13relation_trio
0000000000a091f2 000000ad T _ZNK19foperator_unordered9op1_rangeER6frangeP9tree_nodeRK6irangeRKS0_13relation_trio
0000000000a092f4 0000008e T _ZNK22foperator_unordered_gt9op2_rangeER6frangeP9tree_nodeRK6irangeRKS0_13relation_trio
0000000000a09382 0000008e T _ZNK22foperator_unordered_lt9op2_rangeER6frangeP9tree_nodeRK6irangeRKS0_13relation_trio
0000000000a09410 00000092 T _ZNK22foperator_unordered_le9op2_rangeER6frangeP9tree_nodeRK6irangeRKS0_13relation_trio
0000000000a094a2 00000092 T _ZNK22foperator_unordered_ge9op2_rangeER6frangeP9tree_nodeRK6irangeRKS0_13relation_trio
0000000000a09534 00000083 T _ZNK25foperator_unordered_equal9op1_rangeER6frangeP9tree_nodeRK6irangeRKS0_13relation_trio
0000000000a0960c 00000083 T _ZNK14foperator_ltgt9op1_rangeER6frangeP9tree_nodeRK6irangeRKS0_13relation_trio
0000000000a09e64 000000cb T _ZNK14fixup_insn_uid5applyEP15function_reader
0000000000a09f30 0000009d T _ZN15function_readerC1Ev
0000000000a09fce 000000b7 T _ZN15function_readerD1Ev
0000000000a0a086 0000001b T _ZN15function_readerD0Ev
0000000000a0a0a2 000002b4 T _ZN15function_reader16handle_insn_uidsEv
0000000000a0a356 0000005f T _ZN15function_reader12parse_bb_idxEv
0000000000a0a3b6 0000007a T _ZN15function_reader18read_rtx_operand_uEP7rtx_defi
0000000000a0a430 0000006f T _ZN15function_reader16parse_enum_valueEiPKPKc
0000000000a0a4a0 000000ad T _ZN15function_reader14add_fixup_exprE13file_locationP7rtx_defPKc
0000000000a0a54e 000001aa T _ZN15function_reader15create_functionEv
0000000000a0a6f8 000000d7 T _ZN15function_reader14parse_mem_exprEPKc
0000000000a0a7d0 00000051 T _ZNK10fixup_expr5applyEP15function_reader
0000000000a0a822 00000415 T _ZN15function_reader10parse_edgeEP15basic_block_defb
0000000000a0ac38 000000bc T _ZN15function_reader10parse_insnE13file_locationPKc
0000000000a0acf4 000001a2 T _ZN15function_reader11parse_blockEv
0000000000a0ae96 0000008f T _ZN15function_reader12create_edgesEv
0000000000a0af26 000000a0 T _ZN15function_reader16parse_insn_chainEv
0000000000a0afc6 000000a5 T _ZN15function_reader19maybe_read_locationEP8rtx_insn
0000000000a0b06c 0000011f T _ZN15function_reader23read_rtx_operand_i_or_nEP7rtx_defic
0000000000a0b18c 000001d4 T _ZN15function_reader32extra_parsing_for_operand_code_0EP7rtx_defi
0000000000a0b360 0000019b T _ZN15function_reader22consolidate_singletonsEP7rtx_def
0000000000a0b4fc 000002b7 T _ZN15function_reader18read_rtx_operand_rEP7rtx_def
0000000000a0b7b4 00000161 T _ZN15function_reader16read_rtx_operandEP7rtx_defi
0000000000a0b916 00000235 T _ZN15function_reader31handle_any_trailing_informationEP7rtx_def
0000000000a0bb4c 0000005a T _ZN15function_reader9parse_rtxEv
0000000000a0bba6 000000d5 T _ZN15function_reader11parse_paramEv
0000000000a0bc7c 00000065 T _ZN15function_reader10parse_crtlE13file_location
0000000000a0bce2 00000124 T _ZN15function_reader14parse_functionEv
0000000000a0be06 00000056 T _ZN15function_reader24handle_unknown_directiveE13file_locationPKc
0000000000a0be5c 00000009 T _ZN15function_reader11postprocessEP7rtx_def
0000000000a0be66 0000000f T _ZN15function_reader15finalize_stringEPc
0000000000a0be75 0000005b T _Z22read_rtl_function_bodyPKc
0000000000a0bed0 000000d7 T _Z38read_rtl_function_body_from_file_rangejj
0000000000a0bfa7 00000068 T _Z15real_to_integerPK10real_value
0000000000a0c00f 0000000c T _Z15real_to_decimalPcPK10real_valuemmi
0000000000a0c01b 00000047 T _Z5debugRK10real_value
0000000000a0c062 0000010f T _Z9real_powiP10real_value13format_helperPKS_l
0000000000a0c171 00000048 T _Z10real_roundP10real_value13format_helperPKS_
0000000000a0c1b9 00000187 T _Z14real_roundevenP10real_value13format_helperPKS_
0000000000a0c340 0000002c T _Z17real_from_string2PKc13format_helper
0000000000a0c36c 00000065 T _Z12dconst_e_ptrv
0000000000a0c3d1 00000064 T _Z13dconst_pi_ptrv
0000000000a0c435 00000058 T _Z16dconst_sqrt2_ptrv
0000000000a0c48d 0000003c T _Z16dconst_third_ptrv
0000000000a0c4c9 0000003c T _Z18dconst_quarter_ptrv
0000000000a0c505 0000003c T _Z16dconst_sixth_ptrv
0000000000a0c541 0000003c T _Z16dconst_ninth_ptrv
0000000000a0c5b3 0000007d T _Z10real_floorP10real_value13format_helperPKS_
0000000000a0c630 0000002a T _Z14real_isintegerPK10real_value13format_helper
0000000000a0c65a 00000081 T _Z14real_isintegerPK10real_valuePl
0000000000a0c6db 0000000c T _Z16HONOR_INFINITIESPK7rtx_def
0000000000a0c6e7 0000000c T _Z29HONOR_SIGN_DEPENDENT_ROUNDINGPK7rtx_def
0000000000a0c6f3 00000100 T _Z18build_sinatan_realP10real_valueP9tree_node
0000000000a0c7f3 00000025 T _Z27validate_replace_rtx_subexpP7rtx_defS0_P8rtx_insnPS0_
0000000000a0c818 00000022 T _Z25validate_replace_rtx_partP7rtx_defS0_PS0_P8rtx_insn
0000000000a0c83a 0000001f T _Z36validate_replace_rtx_part_nosimplifyP7rtx_defS0_PS0_P8rtx_insn
0000000000a0c9cb 00000089 T _Z13vinsn_equal_pP9vinsn_defS0_
0000000000a0cad5 000000c8 T _Z20find_in_history_vect3vecI18expr_history_def_17va_heap6vl_ptrEP7rtx_defP9vinsn_defb
0000000000a0cb9d 00000172 T _Z22validate_simplify_insnP8rtx_insn
0000000000a0cd0f 00000037 T _Z12valid_insn_pP8rtx_insn
0000000000a0cd46 0000009b T _Z16indirect_operandP7rtx_def12machine_mode
0000000000a0cde1 0000005e T _Z22split_all_insns_noflowv
0000000000a0cee4 00000089 T _Z19store_data_bypass_pP8rtx_insnS0_
0000000000a0cf6d 000000e9 T _Z16if_test_bypass_pP8rtx_insnS0_
0000000000a0d0c2 00000054 T _Z28add_shallow_copy_of_reg_noteP8rtx_insnP7rtx_def
0000000000a0d6dd 0000009e T _Z17get_nop_from_poolP8rtx_insn
0000000000a0d896 00000032 T _Z11reinit_regsv
0000000000a0d8c8 00000156 T _Z12fix_registerPKcii
0000000000a0da1e 00000176 T _Z13globalize_regP9tree_nodei
0000000000a0db94 000000d8 T _Z14new_insn_chainv
0000000000a0e133 0000024e T _Z15find_rename_regP7du_head9reg_classP12HARD_REG_SETib
0000000000a0e622 0000013b T _Z20regrename_do_replaceP7du_headi
0000000000a0f0d1 000012d6 T _Z17regrename_analyzeP11bitmap_headb
0000000000a103a7 0000007e T _Z16regrename_finishv
0000000000a106fd 00000026 T _Z14mark_home_livei
0000000000a107ff 00000337 T _Z13dump_reg_infoP8_IO_FILE
0000000000a10ba0 000000bd T _Z18add_auto_inc_notesP8rtx_insnP7rtx_def
0000000000a10c5d 0000008d T _Z20scratch_reload_class9insn_code
0000000000a10cea 00000044 T _Z22secondary_reload_classbi12machine_modeP7rtx_def
0000000000a10d2e 00000088 T _Z26memory_move_secondary_cost12machine_modeib
0000000000a1104a 00000019 T _Z26reload_adjust_reg_for_modeP7rtx_def12machine_mode
0000000000a1183c 00000058 T _Z21deallocate_reload_regi
0000000000a11894 000000d9 T _Z27remove_address_replacementsP7rtx_def
0000000000a11d70 000000db T _Z13subst_reloadsP8rtx_insn
0000000000a11e4b 00000058 T _Z27sel_gen_insn_from_rtx_afterP7rtx_defP5_expriP8rtx_insn
0000000000a11ea3 00000055 T _Z36sel_gen_recovery_insn_from_rtx_afterP7rtx_defP5_expriP8rtx_insn
0000000000a11ef8 0000002b T _Z20lowpart_subreg_regnoj12machine_modeS_
0000000000a11f23 00000132 T _Z16find_replacementPP7rtx_def
0000000000a12055 000000e2 T _Z17rtx_addr_varies_pPK7rtx_defb
0000000000a12137 00000173 T _Z8form_sum12machine_modeP7rtx_defS1_
0000000000a123c3 000001d0 T _Z34reg_overlap_mentioned_for_reload_pP7rtx_defS0_
0000000000a12b61 00000a9c T _Z14find_equiv_regP7rtx_defP8rtx_insn9reg_classiPsi12machine_mode
0000000000a135fd 000002ce T _Z22debug_reload_to_streamP8_IO_FILE
0000000000a138cb 00000010 T _Z12debug_reloadv
0000000000a138db 00000317 T _Z11init_reloadv
0000000000a13e8c 00000027 T _Z20default_address_costP7rtx_def12machine_modehb
0000000000a143f2 00000095 T _Z32contains_constant_pool_address_pPK7rtx_def
0000000000a14487 0000009d T _Z16tls_referenced_pPK7rtx_def
0000000000a151c3 0000003a T _Z14eliminate_regsP7rtx_def12machine_modeS0_
0000000000a166b7 000002dc T _Z30calculate_elim_costs_all_insnsv
0000000000a17792 00000049 T _Z11_fatal_insnPKcPK7rtx_defS0_iS0_
0000000000a177db 0000002c T _Z21_fatal_insn_not_foundPK7rtx_defPKciS3_
0000000000a17807 0000007c T _Z21offset_within_block_pPK7rtx_defl
0000000000a17883 00000101 T _Z25find_first_parameter_loadP8rtx_insnS0_
0000000000a17984 00000064 T _Z17truncated_to_mode12machine_modePK7rtx_def
0000000000a179e8 00000013 T _Z24constant_pool_constant_pP7rtx_def
0000000000a179fb 00000183 T _Z12split_doubleP7rtx_defPS0_S1_
0000000000a17b7e 00000042 T _Z21vec_series_highpart_p12machine_modeS_P7rtx_def
0000000000a17bc0 00000130 T _Z14run_rtl_passesPc
0000000000a17fa1 0000012e T _Z12debug_regioni
0000000000a180cf 000006f3 T _Z11extend_rgnsPiS_P17simple_bitmap_defS_
0000000000a18821 0000019c T _Z9deps_joinP9deps_descS0_
0000000000a189bd 000002d5 T _Z18debug_dependenciesP8rtx_insnS0_
0000000000a18c92 000000d6 T _Z22debug_rgn_dependenciesi
0000000000a18d68 00000098 T _Z13free_rgn_depsv
0000000000a1933a 00000196 T _Z26_eligible_successor_edge_pP8edge_defP13succ_iterator
0000000000a194d0 0000003e T _Z12blist_removePP10_list_node
0000000000a1950e 000000e0 T _Z11flist_clearPP10_list_node
0000000000a195ee 00000014 T _Z20advance_deps_contextP9deps_descP8rtx_insn
0000000000a19627 000001b4 T _Z11init_fencesP8rtx_insn
0000000000a19e38 000000b6 T _Z25add_clean_fence_to_fencesP14flist_tail_defP8rtx_insnP6_fence
0000000000a19eee 000001e1 T _Z25add_dirty_fence_to_fencesP14flist_tail_defP8rtx_insnP6_fence
0000000000a1a0cf 000000ab T _Z20move_fence_to_fencesP10_list_nodeP14flist_tail_def
0000000000a1a17a 00000089 T _Z20get_regset_from_poolv
0000000000a1a203 0000001a T _Z26get_clear_regset_from_poolv
0000000000a1a21d 0000012f T _Z16free_regset_poolv
0000000000a1a34c 00000086 T _Z18return_nop_to_poolP8rtx_insnb
0000000000a1a769 0000004f T _Z10vinsn_copyP9vinsn_defb
0000000000a1a7b8 00000027 T _Z19vinsn_cond_branch_pP9vinsn_def
0000000000a1a7df 0000005e T _Z28sel_gen_insn_from_expr_afterP5_exprP9vinsn_defiP8rtx_insn
0000000000a1a83d 0000009d T _Z13sel_move_insnP5_expriP8rtx_insn
0000000000a1a8da 00000170 T _Z22insert_in_history_vectP3vecI18expr_history_def_17va_heap6vl_ptrEj16local_trans_typeP9vinsn_defS7_j
0000000000a1aa94 00000239 T _ZNK26operator_widen_plus_signed7wi_foldER6irangeP9tree_nodeRK16generic_wide_intI16wide_int_storageES8_S8_S8_
0000000000a1acce 0000023f T _ZNK28operator_widen_plus_unsigned7wi_foldER6irangeP9tree_nodeRK16generic_wide_intI16wide_int_storageES8_S8_S8_
0000000000a1b016 00000098 T _Z13error_for_asmPK8rtx_insnPKcz
0000000000a1bd0d 00001943 T _Z11push_reloadP7rtx_defS0_PS0_S1_9reg_class12machine_modeS3_iii11reload_type
0000000000a1e0ff 0000013a T _Z17get_secondary_memP7rtx_def12machine_modei11reload_type
0000000000a1ed08 00002f35 T _Z12find_reloadsP8rtx_insniiiPs
0000000000a24cdc 00002592 T _Z6reloadP8rtx_insni
0000000000a2726e 00000098 T _Z15warning_for_asmPK8rtx_insnPKcz
0000000000a27306 000002ef T _Z25dump_rgn_dependencies_dotP8_IO_FILE
0000000000a275f5 00000033 T _Z25dump_rgn_dependencies_dotPKc
0000000000a27844 000000b8 T _Z27gt_pch_p_16string_pool_dataPvS_PFvS_S_S_ES_
0000000000a278fc 00000091 T _Z33gt_pch_p_22string_pool_data_extraPvS_PFvS_S_S_ES_
0000000000a2798d 00000007 T _Z39default_legitimize_address_displacementPP7rtx_defS1_8poly_intILj1ElE12machine_mode
0000000000a27994 00000005 T _Z30default_setup_incoming_varargs17cumulative_args_tRK17function_arg_infoPii
0000000000a27999 00000010 T _Z34default_builtin_setjmp_frame_valuev
0000000000a279a9 00000013 T _Z38default_pretend_outgoing_varargs_named17cumulative_args_t
0000000000a279bc 0000000b T _Z31default_libgcc_shift_count_modev
0000000000a279c7 00000007 T _Z29default_shift_truncation_mask12machine_mode
0000000000a279ce 00000007 T _Z25targhook_words_big_endianv
0000000000a279d5 00000007 T _Z40hook_bool_CUMULATIVE_ARGS_arg_info_false17cumulative_args_tRK17function_arg_info
0000000000a279dc 0000000b T _Z31default_empty_mask_is_expensivej
0000000000a279e7 0000000b T _Z27default_addr_space_subset_phh
0000000000a279f2 00000009 T _Z24default_addr_space_debugh
0000000000a279fb 00000005 T _Z33default_addr_space_diagnose_usagehj
0000000000a27a00 00000008 T _Z28default_estimated_poly_value8poly_intILj1ElE24poly_value_estimate_kind
0000000000a27a08 00000007 T _Z30default_preferred_rename_classi
0000000000a27a0f 00000016 T _Z24default_get_reg_raw_modei
0000000000a27a25 00000007 T _Z27default_memtag_granule_sizev
0000000000a27c70 0000003f T _Z27hashtab_entry_note_pointersI17tm_wrapper_hasherEvPvS1_PFvS1_S1_S1_ES1_
0000000000a27f12 000000b1 T _Z14sel_print_insnPK8rtx_insni
0000000000a28178 00000021 T _Z8finalizeI12symbol_tableEvPv
0000000000a28199 0000001a T _Z8finalizeI10hash_tableI17tm_wrapper_hasherLb0E11xcallocatorEEvPv
0000000000a281b3 0000001a T _Z8finalizeI10hash_tableI17tm_restart_hasherLb0E11xcallocatorEEvPv
0000000000a281f5 00000009 T _Z29gt_pch_p_18cpp_hashnode_extraPvS_PFvS_S_S_ES_
0000000000a284c9 00000009 T _Z40gt_pch_p_29hash_table_tm_wrapper_hasher_PvS_PFvS_S_S_ES_
0000000000a284d2 00000019 T _Z13expr_dest_regP5_expr
0000000000a284eb 0000002d T _Z23av_set_split_usefulnessP10_list_nodeii
0000000000a28518 00000039 T _Z24sel_init_global_and_expr3vecIP15basic_block_def7va_heap6vl_ptrE
0000000000a28551 00000016 T _Z24sel_clear_has_dependencev
0000000000a28567 0000002f T _Z8insn_sidP8rtx_insn
0000000000a28596 00000033 T _Z29sel_insn_is_speculation_checkP7rtx_def
0000000000a285c9 0000012c T _Z25sel_extend_global_bb_infov
0000000000a28705 0000002e T _Z25sel_finish_global_bb_infov
0000000000a28733 0000007e T _Z18exchange_data_setsP15basic_block_defS0_
0000000000a287b1 00000037 T _Z19in_current_region_pP15basic_block_def
0000000000a287e8 00000033 T _Z12sel_init_bbs3vecIP15basic_block_def7va_heap6vl_ptrE
0000000000a2881b 00000079 T _Z26sel_insn_has_single_succ_pP8rtx_insni
0000000000a28894 0000002e T _Z17free_bb_note_poolv
0000000000a288c2 00000035 T _Z17alloc_sched_poolsv
0000000000a288f7 00000015 T _Z23free_nop_and_exit_insnsv
0000000000a2890c 0000001f T _Z19sel_set_sched_flagsv
0000000000a2892b 00000020 T _Z21get_loop_nest_for_rgnj
0000000000a289a2 00000072 T _Z17dump_hard_reg_setPKc12HARD_REG_SET
0000000000a28a14 00000236 T _Z9sel_printPKcz
0000000000a28c4a 000000d5 T _Z11dump_lv_setP11bitmap_head
0000000000a28d67 00000017 T _Z21setup_dump_cfg_paramsv
0000000000a28d7e 0000005b T _Z24sel_add_to_insn_priorityP7rtx_defi
0000000000a28e22 00000062 T _Z17sparseset_equal_pP13sparseset_defS0_
0000000000a28e84 00000022 T _ZNK5sreal4dumpEP8_IO_FILE
0000000000a28ea6 0000000d T _Z5debugRK5sreal
0000000000a28eb3 0000001c T _Z5debugPK5sreal
0000000000a28ed0 0000001b T _ZN5sreal11shift_rightEi
0000000000a28eec 00000015 T _ZNK5sreal9to_doubleEv
0000000000a28f07 0000005c T _Z22statistics_fini_pass_1PP18statistics_counterPv
0000000000a28f63 00000015 T _Z22statistics_fini_pass_3PP18statistics_counterPv
0000000000a28f78 00000068 T _Z17statistics_fini_1PP18statistics_counterP8opt_pass
0000000000a28fe5 0000000b T _Z9gt_pch_nxPhPFvPvS0_S0_ES0_
0000000000a28ff0 000000a1 T _Z22gt_pch_save_stringpoolv
0000000000a29091 0000000d T _Z27default_cc_modes_compatible12machine_modeS_
0000000000a2909e 00000008 T _Z26default_legitimize_addressP7rtx_defS0_12machine_mode
0000000000a290a6 0000000c T _Z32default_const_not_ok_for_debug_pP7rtx_def
0000000000a290b2 00000007 T _Z31hook_bool_CUMULATIVE_ARGS_false17cumulative_args_t
0000000000a290b9 00000007 T _Z23default_mode_for_suffixc
0000000000a290c0 0000000d T _Z41hook_pass_by_reference_must_pass_in_stack17cumulative_args_tRK17function_arg_info
0000000000a290cd 0000000b T _Z24hook_callee_copies_named17cumulative_args_tRK17function_arg_info
0000000000a290d8 00000007 T _Z35default_print_operand_punct_valid_ph
0000000000a290df 00000039 T _Z45default_float_exceptions_rounding_supported_pv
0000000000a29118 00000007 T _Z35default_builtin_vectorized_functionjP9tree_nodeS0_
0000000000a2911f 00000005 T _Z27default_emit_support_tinfosPFvP9tree_nodeE
0000000000a29124 00000007 T _Z39hook_bool_CUMULATIVE_ARGS_arg_info_true17cumulative_args_tRK17function_arg_info
0000000000a2912b 00000005 T _Z30hook_void_CUMULATIVE_ARGS_tree17cumulative_args_tP9tree_node
0000000000a29136 00000007 T _Z24default_return_pops_argsP9tree_nodeS0_8poly_intILj1ElE
0000000000a2913d 00000007 T _Z25default_register_priorityi
0000000000a29144 0000001a T _Z24default_secondary_reloadbP7rtx_defi12machine_modeP21secondary_reload_info
0000000000a2915e 00000014 T _Z21default_reloc_rw_maskv
0000000000a29172 00000008 T _Z34default_mangle_decl_assembler_nameP9tree_nodeS0_
0000000000a2917a 00000008 T _Z26default_constant_alignmentPK9tree_nodel
0000000000a29182 00000028 T _Z31constant_alignment_word_stringsPK9tree_nodel
0000000000a291aa 0000000b T _Z27default_preferred_simd_mode11scalar_mode
0000000000a291b5 00000007 T _Z34default_autovectorize_vector_modesP3vecI12machine_mode7va_heap6vl_ptrEb
0000000000a291bc 00000037 T _Z30default_vectorize_create_costsP8vec_infob
0000000000a291f3 00000007 T _Z37default_addr_space_zero_address_validh
0000000000a291fa 00000031 T _Z27default_target_can_inline_pP9tree_nodeS0_
0000000000a2922b 0000000b T _Z25default_libc_has_function14function_classP9tree_node
0000000000a29236 00000007 T _Z24no_c99_libc_has_function14function_classP9tree_node
0000000000a2923d 00000013 T _Z21bsd_libc_has_function14function_classP9tree_node
0000000000a29250 0000000a T _Z36default_fortify_source_default_levelv
0000000000a2925a 00000008 T _Z31default_libm_function_max_errorj12machine_modeb
0000000000a29262 0000000a T _Z26default_register_move_cost12machine_modeii
0000000000a2926c 00000007 T _Z30default_preferred_reload_classP7rtx_defi
0000000000a29273 00000007 T _Z37default_preferred_output_reload_classP7rtx_defi
0000000000a2927a 0000001a T _Z30default_class_likely_spilled_pi
0000000000a29294 00000007 T _Z30default_member_type_forces_blkPK9tree_node12machine_mode
0000000000a2929c 00000005 T _ZN8jt_state14register_equivEP9tree_nodeS1_b
0000000000a292a1 00000005 T _Z33default_atomic_assign_expand_fenvPP9tree_nodeS1_S1_
0000000000a292a6 0000000a T _Z27can_use_doloop_if_innermostRK16generic_wide_intI18widest_int_storageILi131072EEES4_jb
0000000000a292b0 00000007 T _Z25default_optab_supported_pi12machine_modeS_17optimization_type
0000000000a292b7 00000007 T _Z24default_excess_precision21excess_precision_type
0000000000a292be 00000007 T _Z24default_bitint_type_infoiP11bitint_info
0000000000a292c5 0000000a T _Z33speculation_safe_value_not_neededb
0000000000a292cf 00000007 T _Z23default_memtag_tag_sizev
0000000000a292d6 00000027 T _ZN5timer11named_itemsD1Ev
0000000000a292fe 00000cb2 T _ZN5timerC1Ev
0000000000a29fb0 000000be T _ZN5timerD1Ev
0000000000a2a06e 0000002e T _Z12timevar_initv
0000000000a2a09c 0000003c T _ZN5timer10cond_startE12timevar_id_t
0000000000a2a0d8 00000017 T _Z18timevar_cond_start12timevar_id_t
0000000000a2a0f0 0000024e T _ZN5timer9print_rowEP8_IO_FILEPK16timevar_time_defPKcRS3_
0000000000a2a33e 0000002f T _ZN5timer8all_zeroERK16timevar_time_def
0000000000a2a36e 00000018 T _ZNK5timer21get_topmost_item_nameEv
0000000000a2a38b 0000004d T _Z10is_tm_safePK9tree_node
0000000000a2a42f 00000026 T _Z22is_tm_may_cancel_outerP9tree_node
0000000000a2a455 00000026 T _Z19is_tm_ending_fndeclP9tree_node
0000000000a2a47b 00000005 T _Z9gt_pch_nxP17tm_wrapper_hasherPFvPvS1_S1_ES1_
0000000000a2a4cf 00000056 T _Z22set_asan_shadow_offsetPKc
0000000000a2a525 00000026 T _Z21asan_instrument_readsv
0000000000a2a54b 00000026 T _Z22asan_instrument_writesv
0000000000a2a571 00000026 T _Z14asan_memintrinv
0000000000a2a597 0000000b T _Z24asan_shadow_offset_set_pv
0000000000a2a5a2 00000024 T _Z19asan_function_startv
0000000000a2a5c6 00000026 T _Z23hwasan_instrument_readsv
0000000000a2a5ec 00000026 T _Z24hwasan_instrument_writesv
0000000000a2a612 00000026 T _Z16hwasan_memintrinv
0000000000a2a638 00000195 T _Z9copy_exprP5_exprS0_
0000000000a2a7cd 0000008e T _Z16copy_expr_onsideP5_exprS0_
0000000000a2a85b 00000023 T _Z15setup_nop_vinsnv
0000000000a2a9e7 0000002f T _Z15expr_dest_regnoP5_expr
0000000000a2aa16 00000058 T _Z10av_set_addPP10_list_nodeP5_expr
0000000000a2aa6e 00000045 T _Z11av_set_copyP10_list_node
0000000000a2aada 0000002e T _Z14av_set_elementP10_list_nodei
0000000000a2ad52 0000007f T _Z18sel_mark_hard_insnP7rtx_def
0000000000a2add1 00000089 T _Z17get_dest_and_modeP7rtx_defPS0_P12machine_mode
0000000000a2ae81 0000007b T _Z15free_succs_infoP10succs_info
0000000000a2aefc 000001e4 T _Z18compute_succs_infoP8rtx_insns
0000000000a2b0e0 0000006f T _Z16free_sched_poolsv
0000000000a2b14f 0000003a T _Z26create_vinsn_from_insn_rtxP8rtx_insnb
0000000000a2b1d6 00000069 T _Z31make_region_from_loop_preheaderRP3vecIP15basic_block_def7va_heap6vl_ptrE
0000000000a2b23f 00000057 T _Z27considered_for_pipelining_pP4loop
0000000000a2b296 000000d7 T _Z23sel_is_loop_preheader_pP15basic_block_def
0000000000a2b3a2 00000041 T _Z12debug_lv_setP11bitmap_head
0000000000a2b5b7 0000001b T _Z10gt_pch_p_SPvS_PFvS_S_S_ES_
0000000000a2b5d2 00000024 T _ZNK13substring_loc12get_locationEPj
0000000000a2b5f6 0000001b T _Z28default_legitimate_address_p12machine_modeP7rtx_defb11code_helper
0000000000a2b611 0000001b T _Z21default_print_operandP8_IO_FILEP7rtx_defi
0000000000a2b62c 0000001b T _Z29default_print_operand_addressP8_IO_FILE12machine_modeP7rtx_def
0000000000a2b647 00000049 T _Z34default_builtin_vectorization_cost18vect_cost_for_stmtP9tree_nodei
0000000000a2b690 0000001b T _Z28default_function_arg_advance17cumulative_args_tRK17function_arg_info
0000000000a2b6ab 0000001b T _Z20default_function_arg17cumulative_args_tRK17function_arg_info
0000000000a2b6c6 0000001b T _Z29default_function_incoming_arg17cumulative_args_tRK17function_arg_info
0000000000a2b6e1 0000001b T _Z22default_function_valuePK9tree_nodeS1_b
0000000000a2b6fc 0000001b T _Z30default_function_value_regno_pj
0000000000a2b717 0000001b T _Z26default_addr_space_convertP7rtx_defP9tree_nodeS2_
0000000000a2b732 0000002a T _Z24default_hard_regno_nregsj12machine_mode
0000000000a2b75c 0000018a T _Z35glibc_linux_libm_function_max_errorj12machine_modeb
0000000000a2b8e6 0000002b T _Z23default_class_max_nregsi12machine_mode
0000000000a2b911 0000001b T _Z38default_dwarf_poly_indeterminate_valuejPjPi
0000000000a2b92c 0000009c T _ZN5timer11named_items5printEP8_IO_FILEPK16timevar_time_def
0000000000a2b9c8 000000db T _ZN5timer13push_internalEPNS_11timevar_defE
0000000000a2baa4 00000013 T _ZN5timer4pushE12timevar_id_t
0000000000a2bab8 00000045 T _ZN5timer5startE12timevar_id_t
0000000000a2bafe 0000005d T _ZN5timer4stopE12timevar_id_t
0000000000a2bb5c 0000005d T _ZN5timer9cond_stopE12timevar_id_t
0000000000a2bbb9 0000001d T _Z17timevar_cond_stop12timevar_id_tb
0000000000a2bbd6 00000159 T _ZNK5timer15validate_phasesEP8_IO_FILE
0000000000a2bd30 00000374 T _ZN5timer5printEP8_IO_FILE
0000000000a2c16f 0000001f T _Z10clear_exprP5_expr
0000000000a2c18e 00000053 T _Z18av_set_iter_removeP14_list_iterator
0000000000a2c1e1 00000069 T _Z12av_set_clearPP10_list_node
0000000000a2c27f 00000055 T _Z24av_set_leave_one_nonspecPP10_list_node
0000000000a2c4b3 00000024 T _Z20change_vinsn_in_exprP5_exprP9vinsn_def
0000000000a2c4d7 00000036 T _Z14free_nop_vinsnv
0000000000a2c56f 00000048 T _Z13av_set_lookupP10_list_nodeP9vinsn_def
0000000000a2c5b7 00000012 T _Z14av_set_is_in_pP10_list_nodeP9vinsn_def
0000000000a2c5c9 0000006e T _Z25av_set_code_motion_filterPP10_list_nodeS0_
0000000000a2c637 00000050 T _Z22register_unavailable_pP11bitmap_headP7rtx_def
0000000000a2c785 00000055 T _Z24mark_unavailable_targetsP10_list_nodeS0_P11bitmap_head
0000000000a2c7da 00000090 T _Z13bb_ends_ebb_pP15basic_block_def
0000000000a2c86a 00000037 T _Z13in_same_ebb_pP8rtx_insnS0_
0000000000a2c8a1 00000054 T _Z30av_set_substract_cond_branchesPP10_list_node
0000000000a2cb3e 0000003c T _Z28lhs_of_insn_equals_to_dest_pP8rtx_insnP7rtx_def
0000000000a2cea1 00000145 T _Z28free_data_for_scheduled_insnP8rtx_insn
0000000000a2d656 0000015b T _Z26sel_finish_global_and_exprv
0000000000a2d803 00000061 T _Z12free_lv_setsv
0000000000a2d864 00000016 T _Z14free_data_setsP15basic_block_def
0000000000a2db6a 00000081 T _Z12tick_check_pP5_exprP9deps_descP6_fence
0000000000a2dbeb 00000183 T _Z16has_dependence_pP5_exprP8rtx_insnPPj
0000000000a2e05c 00000047 T _Z19fallthru_bb_of_jumpPK8rtx_insn
0000000000a2e126 0000003c T _Z12init_lv_setsv
0000000000a2e162 00000102 T _Z14copy_data_setsP15basic_block_defS0_
0000000000a2e264 0000005b T _Z11sel_bb_headP15basic_block_def
0000000000a2e2e8 0000006f T _Z12get_av_levelP8rtx_insn
0000000000a2e357 00000057 T _Z10get_av_setP8rtx_insn
0000000000a2e3ae 00000019 T _Z13sel_bb_head_pP8rtx_insn
0000000000a2e402 00000040 T _Z10sel_bb_endP15basic_block_def
0000000000a2e442 00000019 T _Z12sel_bb_end_pP8rtx_insn
0000000000a2e49a 00000012 T _Z14sel_bb_empty_pP15basic_block_def
0000000000a2e602 000000b2 T _Z18get_seqno_by_predsP8rtx_insn
0000000000a2ebdc 00000077 T _Z22sel_num_cfg_preds_gt_1P8rtx_insn
0000000000a2ec53 00000074 T _Z45bookkeeping_can_be_created_if_moved_through_pP8rtx_insn
0000000000a2ed05 000000a4 T _Z23clear_outdated_rtx_infoP15basic_block_def
0000000000a2f380 00000089 T _Z23sel_add_loop_preheadersP3vecIP15basic_block_def7va_heap6vl_ptrE
0000000000a2f889 00000177 T _Z25sel_create_recovery_blockP8rtx_insn
0000000000a2fa00 0000003e T _Z24sel_unregister_cfg_hooksv
0000000000a2fa3e 0000007c T _Z22sel_register_cfg_hooksv
0000000000a2faba 00000086 T _Z28create_insn_rtx_from_patternP7rtx_defS0_
0000000000a2fb40 000000de T _Z14speculate_exprP5_exprj
0000000000a2fc1e 000001fb T _Z15merge_expr_dataP5_exprS0_P8rtx_insn
0000000000a2fe19 0000009d T _Z10merge_exprP5_exprS0_P8rtx_insn
0000000000a2feb6 00000083 T _Z22merge_with_other_exprsPP10_list_nodeP14_list_iteratorP5_expr
0000000000a2ff39 0000007d T _Z22av_set_union_and_clearPP10_list_nodeS1_P8rtx_insn
0000000000a2ffb6 000001ab T _Z21av_set_union_and_livePP10_list_nodeS1_P11bitmap_headS3_P8rtx_insn
0000000000a301b8 0000007b T _Z24setup_nop_and_exit_insnsv
0000000000a30233 000000b0 T _Z23create_copy_of_insn_rtxP7rtx_def
0000000000a302e3 0000006c T _Z21sel_setup_sched_infosv
0000000000a3034f 00000040 T _Z19sel_init_pipeliningv
0000000000a303e7 00000401 T _Z14sel_finish_bbsv
0000000000a307e8 00000013 T _Z13sel_print_rtlP7rtx_def
0000000000a307fb 00000082 T _Z15dump_insn_rtx_1P7rtx_defi
0000000000a3087d 0000000e T _Z13dump_insn_rtxP7rtx_def
0000000000a3088b 00000046 T _Z14debug_insn_rtxP7rtx_def
0000000000a308d1 00000096 T _Z12dump_vinsn_1P9vinsn_defi
0000000000a30967 0000000e T _Z10dump_vinsnP9vinsn_def
0000000000a30975 00000046 T _Z5debugR9vinsn_def
0000000000a309bb 0000001c T _Z13debug_verboseP9vinsn_def
0000000000a309d7 00000006 T _Z5debugP9vinsn_def
0000000000a309dd 00000046 T _Z13debug_verboseR9vinsn_def
0000000000a30a23 00000046 T _Z11debug_vinsnP9vinsn_def
0000000000a30a69 000000f4 T _Z11dump_expr_1P5_expri
0000000000a30b5d 0000000e T _Z9dump_exprP5_expr
0000000000a30b6b 00000046 T _Z10debug_exprP5_expr
0000000000a30bb1 00000043 T _Z5debugR5_expr
0000000000a30bf4 0000001c T _Z5debugP5_expr
0000000000a30c10 00000046 T _Z13debug_verboseR5_expr
0000000000a30c56 0000001c T _Z13debug_verboseP5_expr
0000000000a30c72 00000083 T _Z11dump_av_setP10_list_node
0000000000a30cf5 00000041 T _Z12debug_av_setP10_list_node
0000000000a30d36 0000012b T _Z11dump_insn_1P8rtx_insni
0000000000a30e61 0000000e T _Z9dump_insnP8rtx_insn
0000000000a30e6f 00000046 T _Z10debug_insnP8rtx_insn
0000000000a30eb5 00000054 T _Z10dump_blistP10_list_node
0000000000a30f09 00000041 T _Z11debug_blistP10_list_node
0000000000a30f4a 0000002e T _Z10dump_flistP10_list_node
0000000000a30f78 0000004b T _Z16dump_insn_vector3vecIP8rtx_insn7va_heap6vl_ptrE
0000000000a30ff3 00000051 T _Z11debug_ilistP10_list_node
0000000000a31118 00000633 T _Z15sel_debug_cfg_1i
0000000000a3174b 0000000e T _Z13sel_debug_cfgv
0000000000a31759 00000089 T _Z20debug_mem_addr_valueP7rtx_def
0000000000a3366f 00000374 T _Z12compute_liveP8rtx_insn
0000000000a339e3 00000100 T _Z14sel_split_edgeP8edge_def
0000000000a33ae3 00000184 T _Z34sel_redirect_edge_and_branch_forceP8edge_defP15basic_block_def
0000000000a33c67 000001d8 T _Z28sel_redirect_edge_and_branchP8edge_defP15basic_block_def
0000000000a34394 000003f7 T _Z17tidy_control_flowP15basic_block_defb
0000000000a3478b 000000fa T _Z15sel_remove_insnP8rtx_insnbb
0000000000a34885 0000004c T _Z18purge_empty_blocksv
0000000000a37090 00000014 T _Z31maybe_skip_selective_schedulingv
0000000000a39f9d 00000bbc T _Z16sel_sched_regioni
0000000000a3b045 000000e2 T _Z13sparseset_andP13sparseset_defS0_S0_
0000000000a3b127 00000034 T _Z17get_edit_distancePKcS0_
0000000000a3b15b 0000004d T _Z17get_edit_distanceP9tree_nodeS0_
0000000000a3b1a8 000000d7 T _Z23find_closest_identifierP9tree_nodePK8auto_vecIS0_Lm0EE
0000000000a3b2b9 000000b1 T _Z22statistics_fini_pass_2PP18statistics_counterPv
0000000000a3b36a 00000033 T _Z11set_src_pwdPKc
0000000000a3b638 0000005a T _ZN5timer11named_itemsC2EPS_
0000000000a3b692 00000273 T _ZN5timer11named_items4pushEPKc
0000000000a3b906 00000061 T _ZN5timer16push_client_itemEPKc
0000000000a3b968 00000366 T _ZN5timer12pop_internalEv
0000000000a3bcce 0000000c T _ZN5timer11named_items3popEv
0000000000a3bcda 00000034 T _ZN5timer3popE12timevar_id_t
0000000000a3bd0e 0000002d T _ZN5timer15pop_client_itemEv
0000000000a3be62 00000054 T _Z15force_label_rtxP9tree_node
0000000000a3beb6 0000001a T _Z31default_expand_builtin_saveregsv
0000000000a3c06e 00000030 T _Z19expand_naked_returnv
0000000000a3c09e 0000023a T _Z26expand_sjlj_dispatch_tableP7rtx_def3vecIP9tree_node7va_heap6vl_ptrE
0000000000a3c2d8 00000021 T _Z24default_return_in_memoryPK9tree_nodeS1_
0000000000a3c2f9 000000da T _Z9debug_rliP20record_layout_info_s
0000000000a3dddc 00000010 T _Z21stringpool_statisticsv
0000000000a3ddec 00000015 T _Z10gt_pch_n_SPKv
0000000000a3de01 00000014 T _Z11gt_pch_n_S2PKvm
0000000000a3de15 00000018 T _Z9gt_pch_nxRPKc
0000000000a3de2d 00000006 T _Z9gt_pch_nxRPc
0000000000a3de33 00000006 T _Z9gt_pch_nxRPh
0000000000a3de39 00000036 T _Z28gt_pch_nx_cpp_hashnode_extraPv
0000000000a3de6f 00000065 T _Z26gt_pch_nx_string_pool_dataPv
0000000000a3ded4 00000061 T _Z32gt_pch_nx_string_pool_data_extraPv
0000000000a3df35 00000055 T _Z25gt_pch_restore_stringpoolv
0000000000a3df8a 00000096 T _ZNK26format_string_diagnostic_t12emit_warningEiPKcz
0000000000a3e020 00000084 T _ZNK26format_string_diagnostic_t14emit_warning_nEimPKcS1_z
0000000000a3e0a4 00000009 T _Z44default_promote_function_mode_always_promotePK9tree_node12machine_modePiS1_i
0000000000a3e0ad 00000019 T _Z35default_min_divisions_for_recip_mul12machine_mode
0000000000a3e0c6 0000003c T _Z29default_invalid_within_doloopPK8rtx_insn
0000000000a3e102 00000066 T _Z21default_push_argumentj
0000000000a3e168 00000074 T _Z27default_stack_protect_guardv
0000000000a3e1dc 00000093 T _Z35default_external_stack_protect_failv
0000000000a3e26f 000000a1 T _Z33default_hidden_stack_protect_failv
0000000000a3e3ef 0000004f T _Z28default_dwarf_frame_reg_modei
0000000000a3e43e 00000010 T _Z23default_trampoline_initP7rtx_defP9tree_nodeS0_
0000000000a3e44e 00000010 T _Z27default_asm_out_constructorP7rtx_defi
0000000000a3e45e 00000010 T _Z26default_asm_out_destructorP7rtx_defi
0000000000a3e46e 0000031a T _Z27default_zero_call_used_regs12HARD_REG_SET
0000000000a3e788 00000025 T _Z30default_speculation_safe_value12machine_modeP7rtx_defS1_S1_
0000000000a3e7ad 00000025 T _Z28default_internal_arg_pointerv
0000000000a3e7d2 00000044 T _Z20default_static_chainPK9tree_nodeb
0000000000a3e816 0000005f T _Z36default_secondary_memory_needed_mode12machine_mode
0000000000a3e875 0000000e T _Z28default_static_rtx_alignment12machine_mode
0000000000a3e883 00000009 T _Z21default_get_mask_mode12machine_mode
0000000000a3e88c 0000001a T _Z39default_target_option_valid_attribute_pP9tree_nodeS0_S0_i
0000000000a3e8a6 0000001a T _Z47default_target_option_valid_version_attribute_pP9tree_nodeS0_S0_i
0000000000a3e8c0 00000022 T _Z34default_target_option_pragma_parseP9tree_nodeS0_
0000000000a3e8e2 00000012 T _Z24default_memory_move_cost12machine_modeib
0000000000a3e8f4 000001bf T _Z38default_print_patchable_function_entryP8_IO_FILEmb
0000000000a3eb0c 00000131 T _Z24default_get_pch_validityPm
0000000000a3ec3d 000000d6 T _Z19default_pch_valid_pPKvm
0000000000a3ed13 000002c3 T _Z24std_gimplify_va_arg_exprP9tree_nodeS0_PP6gimpleS3_
0000000000a3efd6 00000039 T _Z31default_max_noce_ifcvt_seq_costP8edge_def
0000000000a3f00f 0000000c T _Z28default_preferred_else_valuejP9tree_nodejPS0_
0000000000a3f01b 00000077 T _Z32default_memtag_insert_random_tagP7rtx_defS0_
0000000000a3f092 0000003b T _Z22default_memtag_add_tagP7rtx_def8poly_intILj1ElEh
0000000000a3f0cd 000000da T _Z22default_memtag_set_tagP7rtx_defS0_S0_
0000000000a3f1a7 0000008e T _Z26default_memtag_extract_tagP7rtx_defS0_
0000000000a3f235 0000008e T _Z31default_memtag_untagged_pointerP7rtx_defS0_
0000000000a3f2c3 00000074 T _Z10print_timePKcl
0000000000a3f37b 0000027b T _Z13print_versionP8_IO_FILEPKcb
0000000000a3f818 000002a4 T _Z18output_stack_usagev
0000000000a3fb39 000000c3 T _Z18dump_memory_reportPKc
0000000000a3fbfc 00000012 T _ZN6toplev14run_self_testsEv
0000000000a3fc0e 00000050 T _Z11ignore_bb_pPK15basic_block_def
0000000000a3fe47 00000057 T _Z19transform_duplicateP15basic_block_defS0_
0000000000a3fe9e 0000003c T _Z19build_tm_abort_calljb
0000000000a402e5 00000053 T _Z11asan_mark_pP6gimple15asan_mark_flags
0000000000a413d3 000000b8 T _Z24compute_transaction_bitsv
0000000000a43179 00000115 T _Z14asan_memfn_rtlP9tree_node
0000000000a444ef 00000056 T _Z39gt_pch_nx_hash_table_tm_wrapper_hasher_Pv
0000000000a46479 0000008a T _Z22set_sanitized_sectionsPKc
0000000000a46503 00000059 T _Z20asan_mem_ref_get_endP9tree_nodeS0_
0000000000a4655c 00000009 T _Z20asan_mem_ref_get_endPK12asan_mem_refP9tree_node
0000000000a47064 00000166 T _ZN19asan_redzone_buffer21flush_redzone_payloadEv
0000000000a471ca 00000019 T _ZN19asan_redzone_buffer13flush_if_fullEv
0000000000a471e4 00000160 T _ZN19asan_redzone_buffer17emit_redzone_byteElh
0000000000a47344 000000a8 T _Z26asan_emit_allocas_unpoisonP7rtx_defS0_P8rtx_insn
0000000000a473ec 00000219 T _Z19asan_protect_globalP9tree_nodeb
0000000000a47605 00000038 T _Z17count_string_cstsPP24constant_descriptor_treePm
0000000000a4763d 0000019f T _Z24create_cond_insert_pointP20gimple_stmt_iteratorbbbPP15basic_block_defS3_
0000000000a47996 00000092 T _Z21maybe_cast_to_ptrmodejP9tree_nodeP20gimple_stmt_iteratorb
0000000000a48557 00004422 T _Z29initialize_sanitizer_builtinsv
0000000000a4c9ee 0000046d T _Z20asan_expand_mark_ifnP20gimple_stmt_iterator
0000000000a4ce5b 000000bf T _Z21sel_finish_pipeliningv
0000000000a4cf1a 00000168 T _Z24run_selective_schedulingv
0000000000a4d082 0000048f T _Z13sel_find_rgnsv
0000000000a4d511 000000f1 T _Z30make_json_for_timevar_time_defRK16timevar_time_def
0000000000a4d602 0000018f T _ZNK5timer11timevar_def9make_jsonEv
0000000000a4d792 000000a8 T _ZNK5timer11named_items9make_jsonEv
0000000000a4d83a 000001ee T _ZNK5timer9make_jsonEv
0000000000a4da28 000000e5 T _ZN6toplev8finalizeEv
0000000000a4db0d 00000009 T _Z8finalizeI9line_mapsEvPv
0000000000a4e31a 000002bd T _Z21record_tm_replacementP9tree_nodeS0_
0000000000a4e5d7 0000007e T _Z21tm_malloc_replacementP9tree_node
0000000000a4e655 00000eed T _Z26asan_emit_stack_protectionP7rtx_defS0_jPlPP9tree_nodei
0000000000a4f542 0000009e T _Z22asan_dynamic_init_callb
0000000000a4fb73 00000053 T _Z15add_string_cstsPP24constant_descriptor_treeP25asan_add_string_csts_data
0000000000a4fbc6 000004a1 T _Z16asan_finish_filev
0000000000a50068 0000003f T _Z27hashtab_entry_note_pointersI26tree_type_map_cache_hasherEvPvS1_PFvS1_S1_S1_ES1_
0000000000a501b0 00000028 T _ZN21compiler_version_info12on_plugin_cbEPK16plugin_name_argsPv
0000000000a5029d 0000003c T _Z29gt_pch_p_18vec_gimple__va_gc_PvS_PFvS_S_S_ES_
0000000000a506ca 0000000d T _Z8finalizeIN8hash_mapIP9tree_node8auto_vecIP6gimpleLm0EE21simple_hashmap_traitsI19default_hash_traitsIS2_ES6_EE10hash_entryEEvPv
0000000000a506d7 0000000d T _Z8finalizeIN8hash_mapI23sanopt_tree_couple_hash8auto_vecIP6gimpleLm0EE21simple_hashmap_traitsI19default_hash_traitsIS1_ES5_EE10hash_entryEEvPv
0000000000a506e4 0000000d T _Z8finalizeIN8hash_mapI24sanopt_tree_triplet_hash8auto_vecIP6gimpleLm0EE21simple_hashmap_traitsI19default_hash_traitsIS1_ES5_EE10hash_entryEEvPv
0000000000a506f1 0000000d T _Z8finalizeIN8hash_mapI17tree_operand_hash8auto_vecIP6gimpleLm0EE21simple_hashmap_traitsI19default_hash_traitsIS1_ES5_EE10hash_entryEEvPv
0000000000a507af 0000001a T _Z8finalizeI10hash_tableI26tree_type_map_cache_hasherLb0E11xcallocatorEEvPv
0000000000a507c9 0000001a T _Z8finalizeI8hash_mapIP6gimplei21simple_hashmap_traitsI19default_hash_traitsIS2_EiEEEvPv
0000000000a507e3 00000009 T _Z24gt_pch_p_13tree_type_mapPvS_PFvS_S_S_ES_
0000000000a507ec 00000009 T _Z49gt_pch_p_38hash_table_tree_type_map_cache_hasher_PvS_PFvS_S_S_ES_
0000000000a509a8 0000000d T _Z8finalizeIN8hash_mapI17tree_operand_hash8auto_vecIiLm0EE21simple_hashmap_traitsI19default_hash_traitsIS1_ES3_EE10hash_entryEEvPv
0000000000a50a3e 00000034 T _ZN16function_summaryIP20nested_function_infoE16symtab_insertionEP11cgraph_nodePv
0000000000a50a72 00000067 T _ZN16function_summaryIP20nested_function_infoE18symtab_duplicationEP11cgraph_nodeS4_Pv
0000000000a50ad9 0000000b T _Z24hwasan_current_frame_tagv
0000000000a50ae4 00000137 T _Z23hwasan_record_stack_varP7rtx_defS0_8poly_intILj1ElES2_
0000000000a50d68 00000026 T _Z9gt_ggc_mxR13tree_type_map
0000000000a50d8e 00000026 T _Z9gt_pch_nxR13tree_type_map
0000000000a50db4 00000005 T _Z9gt_pch_nxP26tree_type_map_cache_hasherPFvPvS1_S1_ES1_
0000000000a50dd7 0000001e T _Z21edge_to_cases_cleanupRKP8edge_defRKP9tree_nodePv
0000000000a50df5 00000034 T _Z22single_noncomplex_succP15basic_block_def
0000000000a50fad 00000039 T _Z12dump_pointerP9dump_infoPKcPv
0000000000a50fe6 00000039 T _Z8dump_intP9dump_infoPKci
0000000000a5101f 00000048 T _Z11dump_stringP9dump_infoPKc
0000000000a51067 00000050 T _Z17dump_string_fieldP9dump_infoPKcS2_
0000000000a510b7 00000016 T _Z9dump_flagP9dump_info9dump_flagPK9tree_node
0000000000a510eb 0000000d T _Z12reset_accessRKP12varpool_nodeP12tls_var_dataPv
0000000000a511b9 00000013 T _Z15set_current_defP9tree_nodeS0_
0000000000a511cc 0000007d T _Z19dump_tree_ssa_statsP8_IO_FILE
0000000000a51249 00000010 T _Z20debug_tree_ssa_statsv
0000000000a51260 0000002d T _ZN25compiler_logical_location17get_kind_for_treeEP9tree_node
0000000000a51293 00000016 T _Z16debug_rdg_vertexP5graphi
0000000000a512f0 00000010 T _Z9debug_rdgP5graph
0000000000a51300 0000001e T _ZN17loop_distribution20bb_top_order_destroyEv
0000000000a5137b 00000046 T _Z31parloops_force_simple_reductionP14_loop_vec_infoP14_stmt_vec_infoPbb
0000000000a513c1 00000017 T _Z18set_reduc_phi_uidsPP14reduction_infoPv
0000000000a513dd 000000c1 T _Z25phinodes_print_statisticsv
0000000000a51589 0000001d T _Z12op_code_prio9tree_code
0000000000a515a6 000001c8 T _Z14op_symbol_code9tree_code9dump_flag
0000000000a51902 00000019 T _Z10cov_lengthPK7condcov
0000000000a5191b 0000005a T _Z10cov_blocksP7condcovm
0000000000a51975 00000065 T _Z9cov_masksP7condcovm
0000000000a519da 0000004c T _Z8cov_mapsP7condcovm
0000000000a51a26 00000096 T _Z8cov_freeP7condcov
0000000000a51b17 00000089 T _Z26hwasan_increment_frame_tagv
0000000000a51ba0 0000001b T _Z22hwasan_expand_mark_ifnP20gimple_stmt_iterator
0000000000a51cbe 0000008a T _ZN17complex_propagate9visit_phiEP4gphi
0000000000a51d48 00000027 T _ZNK21tree_logical_location8get_kindEv
0000000000a51d70 0000002a T _ZNK31current_fndecl_logical_location8get_kindEv
0000000000a51e97 00000034 T _Z23parallelized_function_pP9tree_node
0000000000a51f40 00000970 T _Z21asan_expand_check_ifnP20gimple_stmt_iteratorb
0000000000a52a5a 0000006d T _Z17hwasan_frame_basev
0000000000a52ac7 0000002e T _Z33hwasan_maybe_emit_frame_base_initv
0000000000a52af5 0000003d T _Z23hwasan_get_frame_extentv
0000000000a52b32 000000c5 T _Z23hwasan_emit_untag_frameP7rtx_defS0_
0000000000a52bf7 000000b4 T _Z27hwasan_truncate_to_tag_sizeP7rtx_defS0_
0000000000a52cab 000001a1 T _Z20hwasan_emit_prologuev
0000000000a52e4c 00000067 T _Z18hwasan_finish_filev
0000000000a52f26 00000303 T _Z23hwasan_expand_check_ifnP20gimple_stmt_iteratorb
0000000000a536df 00000054 T _Z16tsan_finish_filev
0000000000a53733 000000b1 T _Z26replace_abnormal_ssa_namesP6gimple
0000000000a5452e 00000293 T _Z18ubsan_encode_valueP9tree_node24ubsan_encode_value_phase
0000000000a547c1 00000116 T _Z25default_emutls_var_fieldsP9tree_nodePS0_
0000000000a549eb 0000010a T _Z30ubsan_get_source_location_typev
0000000000a54bca 000000b9 T _Z28dump_omp_atomic_memory_orderP14pretty_printer16omp_memory_order
0000000000a54c83 0000015c T _Z19pretty_print_stringP14pretty_printerPKcm
0000000000a5547b 00000115 T _Z23default_emutls_var_initP9tree_nodeS0_S0_
0000000000a55590 00000510 T _Z17ubsan_create_dataPKciPKjz
0000000000a55aa0 00000024 T _Z28ubsan_instrument_unreachableP20gimple_stmt_iterator
0000000000a55b2a 00000141 T _Z14insert_cond_bbP15basic_block_defP6gimpleS2_19profile_probability
0000000000a55c6b 00000675 T _Z20ubsan_expand_ptr_ifnP20gimple_stmt_iterator
0000000000a56d14 00000095 T _Z27create_stores_for_reductionPP14reduction_infoP9clsn_data
0000000000a56ecc 00000036 T _Z23gt_ggc_mx_tree_type_mapPv
0000000000a56f02 0000000f T _Z9gt_ggc_mxRP13tree_type_map
0000000000a56f11 0000003b T _Z23gt_pch_nx_tree_type_mapPv
0000000000a56f4c 0000000f T _Z9gt_pch_nxRP13tree_type_map
0000000000a56f5b 00000056 T _Z48gt_pch_nx_hash_table_tree_type_map_cache_hasher_Pv
0000000000a56fb1 00000009 T _Z9gt_pch_nxP13tree_type_mapPFvPvS1_S1_ES1_
0000000000a57485 0000006e T _Z28gather_blocks_in_sese_regionP15basic_block_defS0_P3vecIS0_7va_heap6vl_ptrE
0000000000a588a2 00000520 T _Z14dump_dfa_statsP8_IO_FILE
0000000000a58dc2 00000010 T _Z15debug_dfa_statsv
0000000000a58dd2 00000021 T _Z29gather_ssa_name_hash_map_fromRKP9tree_nodeS2_Pv
0000000000a59801 000000c7 T _Z27create_phi_for_local_resultPP14reduction_infoP4loop
0000000000a599b7 0000001a T _Z15gimple_debug_bbP15basic_block_def
0000000000a599d1 00000037 T _Z17gimple_debug_bb_ni
0000000000a59a08 000001d5 T _Z14print_loops_bbP8_IO_FILEP15basic_block_defii
0000000000a59bdd 00000241 T _Z14dump_cfg_statsP8_IO_FILE
0000000000a59e1e 00000010 T _Z15debug_cfg_statsv
0000000000a59ed0 00000034 T _Z25verify_eh_throw_stmt_nodeRKP6gimpleRKiP8hash_setIS0_Lb0E19default_hash_traitsIS0_EE
0000000000a5a15e 00000145 T _Z15verify_eh_edgesP6gimple
0000000000a5a2a3 00000416 T _Z26gimple_duplicate_sese_tailP8edge_defS0_PP15basic_block_defjS3_
0000000000a5ac19 000001fc T _Z23verify_eh_dispatch_edgeP12geh_dispatch
0000000000a5b029 00000299 T _Z11verify_seseP15basic_block_defS0_P3vecIS0_7va_heap6vl_ptrE
0000000000a5b66c 0000008b T _Z21estimate_num_insns_fnP9tree_nodeP11eni_weights
0000000000a5b6f7 0000003a T _Z28gt_pch_nx_vec_gimple__va_gc_Pv
0000000000a5b731 0000006a T _Z9gt_pch_nxP8edge_defPFvPvS1_S1_ES1_
0000000000a5b79b 00000069 T _Z9gt_pch_nxP8edge_def
0000000000a5bd4a 0000002f T _ZN25compiler_logical_location23get_short_name_for_treeEP9tree_node
0000000000a5bd7a 00000024 T _ZNK21tree_logical_location14get_short_nameEv
0000000000a5bd9e 00000027 T _ZNK31current_fndecl_logical_location14get_short_nameEv
0000000000a5bdc6 00000032 T _ZN25compiler_logical_location28get_name_with_scope_for_treeEP9tree_node
0000000000a5bdf8 00000024 T _ZNK21tree_logical_location19get_name_with_scopeEv
0000000000a5be1c 00000027 T _ZNK31current_fndecl_logical_location19get_name_with_scopeEv
0000000000a5bed9 00000090 T _Z20queue_and_dump_indexP9dump_infoPKcPK9tree_nodei
0000000000a5bf69 00000014 T _Z19queue_and_dump_typeP9dump_infoPK9tree_node
0000000000a5bf7e 00000042 T _ZN25compiler_logical_location26get_internal_name_for_treeEP9tree_node
0000000000a5bfc0 00000024 T _ZNK21tree_logical_location17get_internal_nameEv
0000000000a5bfe4 0000002a T _ZNK31current_fndecl_logical_location17get_internal_nameEv
0000000000a5c00e 00000129 T _Z20dump_function_headerP8_IO_FILEP9tree_node9dump_flag
0000000000a5c137 00000dfc T _Z9dump_nodePK9tree_node9dump_flagP8_IO_FILE
0000000000a5cfa4 000000cb T _Z25redirect_eh_dispatch_edgeP12geh_dispatchP8edge_defP15basic_block_def
0000000000a5d21f 0000002f T _Z16unsplit_eh_edgesv
0000000000a5ea15 0000002c T _Z15debug_find_treeP9tree_nodeS0_
0000000000a5ea41 00000026 T _Z14debug_decl_setP11bitmap_head
0000000000a5eaa1 00000010 T _Z20debug_rdg_partitionsRK3vecIP9partition7va_heap6vl_ptrE
0000000000a5ec58 0000007d T _Z23add_field_for_reductionPP14reduction_infoP9tree_node
0000000000a5ecd5 00000078 T _Z18add_field_for_namePP16name_to_copy_eltP9tree_node
0000000000a5f35a 0000011a T _Z27create_loads_for_reductionsPP14reduction_infoP9clsn_data
0000000000a5f474 00000114 T _Z32create_loads_and_stores_for_namePP16name_to_copy_eltP9clsn_data
0000000000a5ff75 00000017 T _Z13fold_mem_refsRKPP9tree_nodePv
0000000000a605a9 00000062 T _Z21initialize_reductionsPP14reduction_infoP4loop
0000000000a6090e 0000020e T _Z27create_call_for_reduction_1PP14reduction_infoP9clsn_data
0000000000a61cec 00000035 T _Z28gt_ggc_mx_vec_gimple__va_gc_Pv
0000000000a61d22 00000027 T _ZN11pcom_worker15determine_rootsEP9component
0000000000a61d4a 00000137 T _ZN11pcom_worker11remove_stmtEP6gimple
0000000000a61f02 000000f6 T _ZN11pcom_worker31find_associative_operation_rootEP6gimplePj
0000000000a61ff8 000002a8 T _ZN11pcom_worker28reassociate_to_the_same_stmtEP9tree_nodeS1_
0000000000a622a0 0000006a T _ZN11pcom_worker19stmt_combining_refsEP6dref_dS1_
0000000000a6230a 00000139 T _ZN11pcom_worker24prepare_finalizers_chainEP5chain
0000000000a6260d 00001533 T _Z16dump_omp_clausesP14pretty_printerP9tree_nodei9dump_flagb
0000000000a63b40 000002c8 T _Z17print_declarationP14pretty_printerP9tree_nodei9dump_flag
0000000000a64053 0000012c T _Z13dump_locationP14pretty_printerj
0000000000a6417f 00000110 T _Z27dump_omp_loop_non_rect_exprP14pretty_printerP9tree_nodei9dump_flag
0000000000a6428f 000000e6 T _Z13pp_double_intP14pretty_printer10double_intb
0000000000a64375 000003df T _Z22asan_expand_poison_ifnP20gimple_stmt_iteratorPbR8hash_mapIP9tree_nodeS4_21simple_hashmap_traitsI19default_hash_traitsIS4_ES4_EE
0000000000a65963 0000008b T _Z24hwasan_record_frame_initv
0000000000a659ee 00000a63 T _Z21ubsan_type_descriptorP9tree_node17ubsan_print_style
0000000000a66451 0000026a T _Z23ubsan_expand_bounds_ifnP20gimple_stmt_iterator
0000000000a666bb 00000601 T _Z21ubsan_expand_null_ifnP20gimple_stmt_iterator
0000000000a66cbc 00000491 T _Z24ubsan_expand_objsize_ifnP20gimple_stmt_iterator
0000000000a6714d 00000840 T _Z21ubsan_expand_vptr_ifnP20gimple_stmt_iterator
0000000000a6798d 0000017a T _Z28ubsan_build_overflow_builtin9tree_codejP9tree_nodeS1_S1_PS1_
0000000000a67b07 000005ea T _Z27ubsan_instrument_float_castjP9tree_nodeS0_
0000000000a695f7 00001238 T _Z36default_tree_diagnostic_path_printerP18diagnostic_contextPK15diagnostic_path
0000000000a6a82f 000001e6 T _Z7dot_rdgP5graph
0000000000a6aa5a 00000036 T _Z18print_generic_declP8_IO_FILEP9tree_node9dump_flag
0000000000a6aa90 000001b6 T _Z21dump_enumerated_declsP8_IO_FILE9dump_flag
0000000000a6ac46 00000039 T _Z18print_generic_stmtP8_IO_FILEP9tree_node9dump_flag
0000000000a6ac7f 0000002b T _Z18debug_generic_stmtP9tree_node
0000000000a6b309 0000005d T _Z27print_generic_stmt_indentedP8_IO_FILEP9tree_node9dump_flagi
0000000000a6b366 00000036 T _Z18print_generic_exprP8_IO_FILEP9tree_node9dump_flag
0000000000a6bd15 00000279 T _Z15print_loop_infoP8_IO_FILEPK4loopPKc
0000000000a6c172 00000064 T _Z11print_loopsP8_IO_FILEi
0000000000a6c1d6 0000000f T _Z11debug_loopsi
0000000000a6c1e5 00000017 T _Z5debugR4loop
0000000000a6c1fc 0000001c T _Z5debugP4loop
0000000000a6c218 00000006 T _Z13debug_verboseP4loop
0000000000a6c21e 0000001a T _Z13debug_verboseR4loop
0000000000a6c238 00000017 T _Z10debug_loopP4loopi
0000000000a6c24f 0000002a T _Z14debug_loop_numji
0000000000a6c279 00000171 T _Z13dump_variableP8_IO_FILEP9tree_node
0000000000a6c3ea 00000013 T _Z14debug_variableP9tree_node
0000000000a6c3fd 00000188 T _Z15dump_defs_stackP8_IO_FILEi
0000000000a6c585 00000012 T _Z16debug_defs_stacki
0000000000a6c597 000000cc T _Z13dump_currdefsP8_IO_FILE
0000000000a6c663 00000010 T _Z14debug_currdefsv
0000000000a6c673 00000074 T _Z17debug_var_infos_rPP8var_infoP8_IO_FILE
0000000000a6c6e7 00000079 T _Z14dump_var_infosP8_IO_FILE
0000000000a6c760 00000055 T _Z13dump_tree_ssaP8_IO_FILE
0000000000a6c7b5 0000000d T _Z14debug_tree_ssav
0000000000a6c7c2 00000010 T _Z15debug_var_infosv
0000000000a6c7d2 000000b0 T _Z22dump_names_replaced_byP8_IO_FILEP9tree_node
0000000000a6c882 00000013 T _Z23debug_names_replaced_byP9tree_node
0000000000a6c895 000001ba T _Z15dump_update_ssaP8_IO_FILE
0000000000a6ca4f 00000010 T _Z16debug_update_ssav
0000000000a6ca5f 0000010f T _Z9dump_drefP8_IO_FILEP6dref_d
0000000000a6cb6e 00000066 T _Z14dump_componentP8_IO_FILEP9component
0000000000a6cbd4 00000027 T _Z15dump_componentsP8_IO_FILEP9component
0000000000a6cbfb 000001dd T _Z10dump_chainP8_IO_FILEP5chain
0000000000a6cdd8 00000036 T _Z11dump_chainsP8_IO_FILERK3vecIP5chain7va_heap6vl_ptrE
0000000000a6ce0e 0000002b T _Z18debug_generic_exprP9tree_node
0000000000a6f09b 00000045 T _Z20verify_gimple_in_seqP6gimpleb
0000000000a6f0e0 000000c9 T _Z16debug_tree_chainP9tree_node
0000000000a6ff71 000000d5 T _Z20build_duplicate_typeP9tree_node
0000000000a7035f 00000601 T _Z20verify_gimple_in_cfgP8functionbb
0000000000a70960 00001610 T _Z22move_sese_region_to_fnP8functionP15basic_block_defS2_P9tree_node
0000000000a71fda 00000156 T _Z31default_tree_make_json_for_pathP18diagnostic_contextPK15diagnostic_path
0000000000a74caa 0000020c T _ZN11pcom_worker19valid_initializer_pEP14data_referencejS1_
0000000000a74f63 00000164 T _Z15print_call_nameP14pretty_printerP9tree_node9dump_flag
0000000000a750c7 00000247 T _Z26print_omp_context_selectorP8_IO_FILEP9tree_node9dump_flag
0000000000a7530e 000007e4 T _Z21dump_function_to_fileP9tree_nodeP8_IO_FILE9dump_flag
0000000000a75af2 00000084 T _Z15gimple_dump_cfgP8_IO_FILE9dump_flag
0000000000a75b76 00000012 T _Z16gimple_debug_cfg9dump_flag
0000000000a75b88 00000012 T _Z14debug_functionP9tree_node9dump_flag
0000000000a75f0a 0000003f T _Z27hashtab_entry_note_pointersI16scev_info_hasherEvPvS1_PFvS1_S1_S1_ES1_
0000000000a75f49 00000040 T _Z39gt_pch_p_28vec_mem_addr_template_va_gc_PvS_PFvS_S_S_ES_
0000000000a76060 00000007 T _ZN26substitute_and_fold_engine13range_of_exprER6vrangeP9tree_nodeP6gimple
0000000000a760da 00000014 T _ZN13back_threader5debugEv
0000000000a76161 00000011 T _Z16tree_map_base_eqPKvS0_
0000000000a76172 00000008 T _Z13tree_map_hashPKv
0000000000a7617a 0000003f T _Z27hashtab_entry_note_pointersI17type_cache_hasherEvPvS1_PFvS1_S1_S1_ES1_
0000000000a761b9 0000003f T _Z27hashtab_entry_note_pointersI14int_cst_hasherEvPvS1_PFvS1_S1_S1_ES1_
0000000000a761f8 0000003f T _Z27hashtab_entry_note_pointersI19poly_int_cst_hasherEvPvS1_PFvS1_S1_S1_ES1_
0000000000a76237 0000003f T _Z27hashtab_entry_note_pointersI16cl_option_hasherEvPvS1_PFvS1_S1_S1_ES1_
0000000000a76276 0000003f T _Z27hashtab_entry_note_pointersI26tree_decl_map_cache_hasherEvPvS1_PFvS1_S1_S1_ES1_
0000000000a762b5 0000003f T _Z27hashtab_entry_note_pointersI25tree_vec_map_cache_hasherEvPvS1_PFvS1_S1_S1_ES1_
0000000000a762f4 00000015 T _ZNK6irange6acceptERK14vrange_visitor
0000000000a7630a 00000016 T _ZNK17unsupported_range6acceptERK14vrange_visitor
0000000000a76320 0000000c T _ZNK6vrange10contains_pEP9tree_node
0000000000a7632c 0000000e T _ZN6vrange3setEP9tree_nodeS1_16value_range_kind
0000000000a7633a 0000000c T _ZNK6vrange4typeEv
0000000000a76346 00000009 T _ZN6vrange13set_undefinedEv
0000000000a7639b 0000001f T _Z8finalizeIN8hash_mapIP8edge_def8auto_vecI12edge_var_mapLm0EE21simple_hashmap_traitsI19default_hash_traitsIS2_ES5_EE10hash_entryEEvPv
0000000000a763ba 0000001a T _Z8finalizeI10hash_tableI17type_cache_hasherLb0E11xcallocatorEEvPv
0000000000a763d4 0000001a T _Z8finalizeI10hash_tableI26tree_decl_map_cache_hasherLb0E11xcallocatorEEvPv
0000000000a763ee 0000001a T _Z8finalizeI10hash_tableI14int_cst_hasherLb0E11xcallocatorEEvPv
0000000000a76408 0000001a T _Z8finalizeI10hash_tableI19poly_int_cst_hasherLb0E11xcallocatorEEvPv
0000000000a76422 0000001a T _Z8finalizeI10hash_tableI16cl_option_hasherLb0E11xcallocatorEEvPv
0000000000a7643c 0000001a T _Z8finalizeI10hash_tableI25tree_vec_map_cache_hasherLb0E11xcallocatorEEvPv
0000000000a7694d 00000009 T _Z24gt_pch_p_13scev_info_strPvS_PFvS_S_S_ES_
0000000000a76956 00000009 T _Z19gt_pch_p_9type_hashPvS_PFvS_S_S_ES_
0000000000a7695f 00000009 T _Z39gt_pch_p_28hash_table_scev_info_hasher_PvS_PFvS_S_S_ES_
0000000000a76968 00000009 T _Z40gt_pch_p_29hash_table_type_cache_hasher_PvS_PFvS_S_S_ES_
0000000000a76971 00000009 T _Z37gt_pch_p_26hash_table_int_cst_hasher_PvS_PFvS_S_S_ES_
0000000000a7697a 00000009 T _Z42gt_pch_p_31hash_table_poly_int_cst_hasher_PvS_PFvS_S_S_ES_
0000000000a76983 00000009 T _Z39gt_pch_p_28hash_table_cl_option_hasher_PvS_PFvS_S_S_ES_
0000000000a7698c 00000009 T _Z49gt_pch_p_38hash_table_tree_decl_map_cache_hasher_PvS_PFvS_S_S_ES_
0000000000a76995 00000009 T _Z48gt_pch_p_37hash_table_tree_vec_map_cache_hasher_PvS_PFvS_S_S_ES_
0000000000a7699e 0000000d T _Z8finalizeIN8hash_mapIP9tree_node8auto_vecIP6accessLm0EE21simple_hashmap_traitsI19default_hash_traitsIS2_ES6_EE10hash_entryEEvPv
0000000000a769cb 0000000d T _Z8finalizeIN8hash_mapI17tree_operand_hash8auto_vecIP9tree_nodeLm0EE21simple_hashmap_traitsI19default_hash_traitsIS1_ES5_EE10hash_entryEEvPv
0000000000a76eaa 0000000a T _ZN16scev_info_hasher4hashEP13scev_info_str
0000000000a76eb4 0000000e T _ZN16scev_info_hasher5equalEPK13scev_info_strS2_
0000000000a76ec2 00000013 T _Z9gt_ggc_mxR13scev_info_str
0000000000a76ed5 00000013 T _Z9gt_pch_nxR13scev_info_str
0000000000a76ee8 00000005 T _Z9gt_pch_nxP16scev_info_hasherPFvPvS1_S1_ES1_
0000000000a76f30 00000049 T _ZN22tree_switch_conversion17switch_conversionC1Ev
0000000000a76f8b 00000012 T _Z9gt_ggc_mxR17mem_addr_template
0000000000a76f9d 00000012 T _Z9gt_pch_nxR17mem_addr_template
0000000000a77172 0000002c T _ZN9edge_infoD1Ev
0000000000a77205 00000005 T _Z5debugR16tree_live_info_d
0000000000a7720a 0000001b T _Z5debugP16tree_live_info_d
0000000000a77232 0000001b T _ZN19rewrite_mem_ref_locclEP11mem_ref_loc
0000000000a7724e 0000000d T _ZN19first_mem_ref_loc_1clEP11mem_ref_loc
0000000000a77274 0000000f T _ZN9comp_cost15infinite_cost_pEv
0000000000a77283 00000020 T _Zlt9comp_costS_
0000000000a772a3 0000001e T _Zeq9comp_costS_
0000000000a772c1 00000032 T _Zle9comp_costS_
0000000000a77359 0000007d T _Z18free_stmt_operandsP8functionP6gimple
0000000000a773d6 00000014 T _ZN16path_range_query5debugEv
0000000000a773ea 0000001e T _ZN16path_range_query17ssa_defined_in_bbEP9tree_nodeP15basic_block_def
0000000000a77408 0000000e T _ZN16path_range_query28relations_may_be_invalidatedEP8edge_def
0000000000a7746d 0000004d T _Z21get_constant_value_idP9tree_node
0000000000a774ba 00000014 T _Z26get_next_constant_value_idv
0000000000a7766f 00000026 T _Z16debug_constraintP10constraint
0000000000a776db 0000000f T _Z17debug_constraintsv
0000000000a779e0 00000010 T _Z22debug_constraint_graphv
0000000000a779f0 00000012 T _Z22debug_solution_for_varj
0000000000a77a02 0000007e T _Z14dump_pta_statsP8_IO_FILE
0000000000a77a80 0000004b T _Z19pt_solution_empty_pPK11pt_solution
0000000000a77bfd 0000000d T _Z23debug_sa_points_to_infov
0000000000a77c1c 000000ad T _ZN13back_threader24maybe_register_path_dumpEP8edge_def
0000000000a77cc9 00000026 T _Z5debugRK3vecIP15basic_block_def7va_heap6vl_ptrE
0000000000a77d10 00000020 T _ZN8jt_state11append_pathEP15basic_block_def
0000000000a77d36 00000071 T _ZN16jt_path_registry10debug_pathEP8_IO_FILEi
0000000000a77da8 00000033 T _ZN16jt_path_registry5debugEv
0000000000a77e3c 000000c1 T _Z25ssanames_print_statisticsv
0000000000a77efd 00000016 T _Z28adjust_ptr_info_misalignmentP12ptr_info_def8poly_intILj1EmE
0000000000a77f13 00000047 T _Z23replace_ssa_name_symbolP9tree_nodeS0_
0000000000a77f5a 00000009 T _ZN27flow_sensitive_info_storage13clear_storageEv
0000000000a77f99 0000005b T _Z20check_reduction_path20dump_user_location_tP4loopP4gphiP9tree_node9tree_code
0000000000a780e6 00000026 T _ZNK16slpg_layout_costeqERKS_
0000000000a7810c 0000000d T _ZNK16slpg_layout_costneERKS_
0000000000a7816a 0000000a T _ZN26complex_operations_pattern7matchesE18_complex_operationP8hash_mapIP9_slp_tree19_complex_perm_kinds21simple_hashmap_traitsI19default_hash_traitsIS3_ES4_EEPS1_I9pair_hashI15nofree_ptr_hashIS2_ESD_EbS5_IS6_ISE_EbEEPS3_P3vecIS3_7va_heap6vl_ptrE
0000000000a781a0 00000016 T _ZN24auto_purge_vect_locationD1Ev
0000000000a781b6 0000001e T _ZNK12vector_costs25compare_outside_loop_costEPKS_
0000000000a781ec 000000e8 T _ZNK19tree_vector_builder10apply_stepEP9tree_nodejRK16generic_wide_intI16wide_int_storageE
0000000000a782df 000000c8 T _Z25user_omp_clause_code_nameP9tree_nodeb
0000000000a783a7 000000ab T _Z18double_int_to_treeP9tree_node10double_int
0000000000a78452 00000053 T _ZN19poly_int_cst_hasher5equalEP9tree_nodeRKSt4pairIS1_PK8poly_intILj1E16generic_wide_intI16wide_int_storageEEE
0000000000a784a5 0000001d T _Z11first_fieldPK9tree_node
0000000000a784c2 00000065 T _Z11ctor_to_vecP9tree_node
0000000000a78527 0000000d T _Z18tree_map_base_hashPKv
0000000000a78534 0000000b T _Z18tree_decl_map_hashPKv
0000000000a7853f 000000ef T _Z20dump_tree_statisticsv
0000000000a7862e 0000002b T _Z18get_tree_code_name9tree_code
0000000000a78659 00000034 T _Z16combined_fn_name11combined_fn
0000000000a7868d 0000002c T _Z30expr_type_first_operand_type_p9tree_code
0000000000a786b9 00000068 T _Z25get_target_clone_attr_lenP9tree_node
0000000000a78721 0000003c T _Z16tree_cc_finalizev
0000000000a7875d 00000013 T _Z9gt_ggc_mxR9type_hash
0000000000a78770 00000013 T _Z9gt_pch_nxR9type_hash
0000000000a78783 00000005 T _Z9gt_pch_nxP17type_cache_hasherPFvPvS1_S1_ES1_
0000000000a78788 00000005 T _Z9gt_pch_nxP14int_cst_hasherPFvPvS1_S1_ES1_
0000000000a7878d 00000005 T _Z9gt_pch_nxP19poly_int_cst_hasherPFvPvS1_S1_ES1_
0000000000a78792 00000005 T _Z9gt_pch_nxP16cl_option_hasherPFvPvS1_S1_ES1_
0000000000a78797 00000005 T _Z9gt_pch_nxP26tree_decl_map_cache_hasherPFvPvS1_S1_ES1_
0000000000a7879c 00000005 T _Z9gt_pch_nxP25tree_vec_map_cache_hasherPFvPvS1_S1_ES1_
0000000000a787ac 0000000d T _ZN15ssa_equiv_stack5enterEP15basic_block_def
0000000000a787ba 0000000e T _ZN11range_queryD0Ev
0000000000a787e4 00000046 T _ZN9comp_costdVEl
0000000000a7882a 0000004a T _ZN9comp_costmLEl
0000000000a78949 0000002b T _ZN10occurrencenwEm
0000000000a78974 0000002e T _ZN10occurrencedlEPvm
0000000000a789a2 0000002e T _Z18invert_minmax_code9tree_code
0000000000a78cc4 00000018 T _Z5debugRK3vecIP16jump_thread_edge7va_heap6vl_ptrE
0000000000a78cdc 00000018 T _Z5debugPK3vecIP16jump_thread_edge7va_heap6vl_ptrE
0000000000a78cf4 00000037 T _Z18verify_jump_threadPP15basic_block_defj
0000000000a78d2b 0000005a T _Z36streamer_check_handled_ts_structuresv
0000000000a78d85 000000b6 T _Z20vect_record_loop_lenP14_loop_vec_infoP8auto_vecI15rgroup_controlsLm0EEjP9tree_nodej
0000000000a78e3b 0000002e T _ZN9_slp_treenwEm
0000000000a78e69 00000031 T _ZN9_slp_treedlEPvm
0000000000a78e9a 0000001b T _ZN26complex_operations_pattern5buildEP8vec_info
0000000000a78eb5 0000010c T _Z24build_replicated_int_cstP9tree_nodejl
0000000000a78fc1 00000160 T _Z22get_typenode_from_namePKc
0000000000a797e2 00001155 T _Z15find_conditionsP8function
0000000000a7a937 00000094 T _Z25vect_get_main_loop_resultP14_loop_vec_infoP9tree_nodeS2_
0000000000a7ab42 000006e7 T _Z20instrument_decisions11array_sliceIP15basic_block_defEmS_IP17simple_bitmap_defES_ImE
0000000000a7b229 00000039 T _Z11build_blockP9tree_nodeS0_S0_S0_
0000000000a7b5b0 00000050 T _Z24gimple_gen_edge_profileriP8edge_def
0000000000a7b600 000000c9 T _Z28gimple_gen_interval_profilerP17histogram_value_tj
0000000000a7b6c9 0000008c T _Z24gimple_gen_pow2_profilerP17histogram_value_tj
0000000000a7b755 0000008c T _Z31gimple_gen_topn_values_profilerP17histogram_value_tj
0000000000a7b7e1 0000008c T _Z27gimple_gen_average_profilerP17histogram_value_tj
0000000000a7b86d 0000008c T _Z23gimple_gen_ior_profilerP17histogram_value_tj
0000000000a7b8f9 0000011f T _Z22gimple_gen_ic_profilerP17histogram_value_tj
0000000000a7ba18 0000017a T _Z24gimple_gen_time_profilerj
0000000000a7bd3c 00000013 T _Z23get_loop_exit_conditionPK4loop
0000000000a7bd4f 0000030e T _Z29gather_stats_on_scev_databasev
0000000000a7c2da 00000164 T _ZN22tree_switch_conversion13group_cluster4dumpEP8_IO_FILEb
0000000000a7c450 00000111 T _Z16dump_mem_addressP8_IO_FILEP11mem_address
0000000000a7c561 000001ee T _Z17dump_part_var_mapP8_IO_FILEP13partition_defP8_var_map
0000000000a7c80c 0000015e T _Z12dump_var_mapP8_IO_FILEP8_var_map
0000000000a7c96a 00000013 T _Z5debugR8_var_map
0000000000a7c97d 00000025 T _Z5debugP8_var_map
0000000000a7c9a2 000001ec T _Z14dump_live_infoP8_IO_FILEP16tree_live_info_di
0000000000a7cb8e 000001d0 T _Z7dump_ivP8_IO_FILEP2ivbj
0000000000a7cda4 00000082 T _Z16dump_range_entryP8_IO_FILEP11range_entryb
0000000000a7ce26 00000028 T _Z17debug_range_entryP11range_entry
0000000000a7ce4e 00000065 T _Z15dump_ops_vectorP8_IO_FILE3vecIP13operand_entry7va_heap6vl_ptrE
0000000000a7ceb3 00000010 T _Z16debug_ops_vector3vecIP13operand_entry7va_heap6vl_ptrE
0000000000a7cec3 0000014f T _Z22print_vn_reference_opsP8_IO_FILE3vecI22vn_reference_op_struct7va_heap6vl_ptrE
0000000000a7d101 00000026 T _Z14debug_pre_exprP10pre_expr_d
0000000000a7d1fe 0000001a T _Z16debug_bitmap_setP10bitmap_set
0000000000a7d218 000000d5 T _Z21debug_bitmap_sets_forP15basic_block_def
0000000000a7d2ed 00000088 T _Z23debug_value_expressionsj
0000000000a7d375 00000026 T _Z22debug_vn_reference_ops3vecI22vn_reference_op_struct7va_heap6vl_ptrE
0000000000a7d39c 0000026e T _ZN13expr_hash_elt5printEP8_IO_FILE
0000000000a7d60a 000000a1 T _ZN13back_threader4dumpEP8_IO_FILE
0000000000a7d6ab 00000029 T _Z23gt_ggc_mx_scev_info_strPv
0000000000a7d6d4 0000000f T _Z9gt_ggc_mxRP13scev_info_str
0000000000a7d6e3 0000002e T _Z23gt_pch_nx_scev_info_strPv
0000000000a7d711 0000000f T _Z9gt_pch_nxRP13scev_info_str
0000000000a7d720 00000056 T _Z38gt_pch_nx_hash_table_scev_info_hasher_Pv
0000000000a7d776 00000043 T _Z38gt_pch_nx_vec_mem_addr_template_va_gc_Pv
0000000000a7d7b9 0000002e T _Z19gt_pch_nx_type_hashPv
0000000000a7d7e7 0000000f T _Z9gt_pch_nxRP9type_hash
0000000000a7d7f6 00000056 T _Z39gt_pch_nx_hash_table_type_cache_hasher_Pv
0000000000a7d84c 00000009 T _Z9gt_pch_nxP13scev_info_strPFvPvS1_S1_ES1_
0000000000a7d855 00000009 T _Z9gt_pch_nxP9type_hashPFvPvS1_S1_ES1_
0000000000a7d85e 00000226 T _Z24verify_sra_access_forestP6access
0000000000a7da84 00000090 T _Z29verify_all_sra_access_forestsv
0000000000a7dcd2 000000e4 T _ZN22tree_switch_conversion20switch_decision_tree15dump_case_nodesEP8_IO_FILEPNS_14case_tree_nodeEii
0000000000a7ddb6 00000011 T _ZN22tree_switch_conversion20switch_decision_tree9emit_jumpEP15basic_block_defS2_
0000000000a7ddc8 0000001b T _ZN22tree_switch_conversion13group_clusterD0Ev
0000000000a7de70 00000035 T _Z30make_pass_update_address_takenPN3gcc7contextE
0000000000a7dea5 00000043 T _Z18make_pass_fast_vrpPN3gcc7contextE
0000000000a7df38 00000009 T _Z9gt_pch_nxP17mem_addr_templatePFvPvS1_S1_ES1_
0000000000a7df41 000002b3 T _Z16dump_alias_statsP8_IO_FILE
0000000000a7e1f4 00000150 T _Z23dump_points_to_solutionP8_IO_FILEP11pt_solution
0000000000a7e344 00000013 T _Z5debugR11pt_solution
0000000000a7e357 00000025 T _Z5debugP11pt_solution
0000000000a7e37c 00000048 T _Z23dump_points_to_info_forP8_IO_FILEP9tree_node
0000000000a7e3c4 0000014c T _Z15dump_alias_infoP8_IO_FILE
0000000000a7e510 00000010 T _Z16debug_alias_infov
0000000000a7e520 00000013 T _Z24debug_points_to_info_forP9tree_node
0000000000a7e534 0000015a T _ZN11attr_fnspec6verifyEv
0000000000a7e813 00000060 T _Z19debug_lattice_value16ccp_prop_value_t
0000000000a7f1d3 0000009e T _Z17is_truth_type_forP9tree_nodeS0_
0000000000a7f7f4 00000023 T _ZN9edge_infoC2EP8edge_def
0000000000a7fa4a 00000017 T _Z17debug_scope_blockP9tree_node9dump_flag
0000000000a7fa61 00000018 T _Z17dump_scope_blocksP8_IO_FILE9dump_flag
0000000000a7fa79 0000000f T _Z18debug_scope_blocks9dump_flag
0000000000a7fa88 00000066 T _ZN9comp_costpLES_
0000000000a7faee 00000066 T _ZN9comp_costmIES_
0000000000a7fb54 0000008a T _Z8dump_useP8_IO_FILEP6iv_use
0000000000a7fbde 000000e4 T _Z11dump_groupsP8_IO_FILEP11ivopts_data
0000000000a7fcc2 000001d7 T _Z16verify_imm_linksP8_IO_FILEP9tree_node
0000000000a7fe99 00000148 T _Z23dump_immediate_uses_forP8_IO_FILEP9tree_node
0000000000a7ffe1 0000004b T _Z19dump_immediate_usesP8_IO_FILE
0000000000a8002c 0000000d T _Z20debug_immediate_usesv
0000000000a80039 00000013 T _Z24debug_immediate_uses_forP9tree_node
0000000000a8004c 00000168 T _Z9dump_candP8_IO_FILEP7iv_cand
0000000000a8041a 0000006b T _Z15debug_same_succv
0000000000a80485 00000046 T _Z13debug_clusterP10bb_cluster
0000000000a80c9f 00000490 T _Z21canonicalize_loop_ivsP4loopPP9tree_nodeb
0000000000a81241 00000054 T _Z30likely_max_loop_iterations_intP4loop
0000000000a81aa8 00000095 T _ZNK12vector_costs24compare_inside_loop_costEPKS_
0000000000a81b3e 00000036 T _ZNK12vector_costs23better_main_loop_than_pEPKS_
0000000000a81b74 0000010c T _ZNK12vector_costs27better_epilogue_loop_than_pEPKS_P14_loop_vec_info
0000000000a81e17 000002c6 T _Z11verify_vssaP15basic_block_defP9tree_nodeP17simple_bitmap_def
0000000000a82d4a 00000077 T _Z19tree_num_loop_insnsP4loopP11eni_weights
0000000000a82dc1 000000aa T _Z17can_unroll_loop_pP4loopjP15tree_niter_desc
0000000000a83023 000000a6 T _Z22dump_replaceable_exprsP8_IO_FILEP11bitmap_head
0000000000a830c9 00000264 T _Z9debug_terP8_IO_FILEP15temp_expr_table
0000000000a83aab 00000052 T _Z22internal_fn_reciprocalP5gcall
0000000000a83afe 00000042 T _ZN8vec_info12replace_stmtEP20gimple_stmt_iteratorP14_stmt_vec_infoP6gimple
0000000000a83ba2 000000f1 T _Z30representable_as_half_series_p10real_valuejP19pow_synth_sqrt_info
0000000000a83c93 00000085 T _Z20build_real_from_wideP9tree_nodeRK16generic_wide_intI20wide_int_ref_storageILb0ELb1EEE6signop
0000000000a84d54 00000264 T _ZN16operands_scanner19verify_ssa_operandsEv
0000000000a84fb8 00000059 T _Z19verify_ssa_operandsP8functionP6gimple
0000000000a85012 00000102 T _ZN16path_range_query4dumpEP8_IO_FILE
0000000000a85114 0000011b T _Z14dump_stmt_costP8_IO_FILEi18vect_cost_for_stmtP14_stmt_vec_infoP9_slp_treeP9tree_nodeij24vect_cost_model_location
0000000000a85230 0000001c T _ZNK11Value_Range4dumpEP8_IO_FILE
0000000000a8524c 00000023 T _Z5debugRK11Value_Range
0000000000a85270 0000000e T _ZN11strlen_pass22handle_builtin_strncatE17built_in_function
0000000000a856b1 00000013 T _Z13debug_varinfoP13variable_info
0000000000a856c4 00000064 T _Z12debug_varmapv
0000000000a85728 0000000b T _ZN26jump_thread_path_allocatorD1Ev
0000000000a87438 0000001b T _ZN16jt_path_registryD0Ev
0000000000a874b8 0000004b T _ZN8jt_state4dumpEP8_IO_FILE
0000000000a87504 00000042 T _ZN8jt_state5debugEv
0000000000a87546 0000004d T _Z22gimple_replace_ssa_lhsP6gimpleP9tree_node
0000000000a87593 00000ac8 T _Z10verify_ssabb
0000000000a8805b 00000104 T _Z22verify_loop_closed_ssabP4loop
0000000000a8815f 00000c58 T _Z30tree_transform_and_unroll_loopP4loopjP15tree_niter_descPFvS0_PvES3_
0000000000a88db7 0000000e T _Z16tree_unroll_loopP4loopjP15tree_niter_desc
0000000000a88e27 000003a3 T _Z24verify_ssaname_freelistsP8function
0000000000a89251 000000ff T _Z16tree_vec_extractP20gimple_stmt_iteratorP9tree_nodeS2_S2_S2_
0000000000a89826 00000072 T _Z26build_constructor_from_vecP9tree_nodePK3vecIS0_5va_gc8vl_embedE
0000000000a8a2c8 0000043e T _Z27vect_peel_nonlinear_iv_initPP6gimpleP9tree_nodeS3_S3_22vect_induction_op_type
0000000000a8a77d 00000078 T _Z21vect_record_loop_maskP14_loop_vec_infoP14vec_loop_masksjP9tree_nodeS4_
0000000000a8a7f5 00000398 T _Z18vect_get_loop_maskP14_loop_vec_infoP20gimple_stmt_iteratorP14vec_loop_masksjP9tree_nodej
0000000000a8ab8d 000001d9 T _Z17vect_get_loop_lenP14_loop_vec_infoP20gimple_stmt_iteratorP8auto_vecI15rgroup_controlsLm0EEjP9tree_nodejj
0000000000a8ad66 0000071c T _Z20optimize_mask_storesP4loop
0000000000a8b482 000001a9 T _Z33vect_iv_limit_for_partial_vectorsP14_loop_vec_info
0000000000a8bd20 000000ae T _Z27vect_rgroup_iv_might_wrap_pP14_loop_vec_infoP15rgroup_controls
0000000000a8bf3a 0000019a T _Z24vect_update_inits_of_drsP14_loop_vec_infoP9tree_node9tree_code
0000000000a8c0d4 00000158 T _Z29vect_prepare_for_masked_peelsP14_loop_vec_info
0000000000a8c22c 0000008a T _Z33vect_create_cond_for_alias_checksP14_loop_vec_infoPP9tree_node
0000000000a8c2b6 00001215 T _Z20vect_loop_versioningP14_loop_vec_infoP6gimple
0000000000a8d86a 0000073a T _ZN22vect_optimize_slp_pass4dumpEv
0000000000a8e08a 0000002b T _Z19tree_to_poly_uint64PK9tree_node
0000000000a8e0b5 00000076 T _Z17vect_get_slp_defsP8vec_infoP9_slp_treeP3vecIS3_IP9tree_node7va_heap6vl_ptrES6_S7_Ej
0000000000a8e12b 00001730 T _Z24vect_transform_reductionP14_loop_vec_infoP14_stmt_vec_infoP20gimple_stmt_iteratorPP6gimpleP9_slp_tree
0000000000a8f974 0000008f T _ZN19complex_add_pattern9recognizeEP8hash_mapIP9_slp_tree19_complex_perm_kinds21simple_hashmap_traitsI19default_hash_traitsIS2_ES3_EEPS0_I9pair_hashI15nofree_ptr_hashIS1_ESC_EbS4_IS5_ISD_EbEEPS2_
0000000000a8ffc0 0000008f T _ZN19complex_mul_pattern9recognizeEP8hash_mapIP9_slp_tree19_complex_perm_kinds21simple_hashmap_traitsI19default_hash_traitsIS2_ES3_EEPS0_I9pair_hashI15nofree_ptr_hashIS1_ESC_EbS4_IS5_ISD_EbEEPS2_
0000000000a90050 0000008f T _ZN19complex_fms_pattern9recognizeEP8hash_mapIP9_slp_tree19_complex_perm_kinds21simple_hashmap_traitsI19default_hash_traitsIS2_ES3_EEPS0_I9pair_hashI15nofree_ptr_hashIS1_ESC_EbS4_IS5_ISD_EbEEPS2_
0000000000a90420 0000003e T _ZN8vec_info16add_pattern_stmtEP6gimpleP14_stmt_vec_info
0000000000a9045e 0000019f T _ZN15complex_pattern5buildEP8vec_info
0000000000a905fe 00000134 T _ZN19complex_add_pattern5buildEP8vec_info
0000000000a90732 0000018b T _ZN19complex_mul_pattern5buildEP8vec_info
0000000000a908be 000000e6 T _ZN19complex_fms_pattern5buildEP8vec_info
0000000000a909a4 000002da T _ZN14addsub_pattern5buildEP8vec_info
0000000000a90c7e 00000036 T _ZN8vec_info17lookup_single_useEP9tree_node
0000000000a90e96 0000001c T _ZN12vector_costs16record_stmt_costEP14_stmt_vec_info24vect_cost_model_locationj
0000000000a90eb2 0000003f T _ZN12vector_costs13add_stmt_costEi18vect_cost_for_stmtP14_stmt_vec_infoP9_slp_treeP9tree_nodei24vect_cost_model_location
0000000000a90f63 00000083 T _Z17build_complex_infP9tree_nodeb
0000000000a90fe6 00000129 T _Z13sign_mask_forP9tree_node
0000000000a9110f 0000004f T _Z13grow_tree_vecP9tree_nodei
0000000000a9115e 00000052 T _Z17build_nt_call_vecP9tree_nodeP3vecIS0_5va_gc8vl_embedE
0000000000a911b0 00000046 T _Z13build_fn_declPKcP9tree_node
0000000000a911f6 000004ed T _Z25gimple_init_gcov_profilerv
0000000000a916e3 00000268 T _Z27gimple_gen_ic_func_profilerv
0000000000a91eff 0000000c T _Z22tree_map_base_marked_pPKv
0000000000a91f0b 000000b8 T _Z17build_bitint_typemi
0000000000a91fc3 0000002f T _Z17build_method_typeP9tree_nodeS0_
0000000000a91ff2 00000079 T _Z22single_nonzero_elementPK9tree_node
0000000000a9206b 00000052 T _Z16build_omp_clausej15omp_clause_code
0000000000a920bd 0000008e T _Z15build_call_naryP9tree_nodeS0_iz
0000000000a9214b 00000074 T _Z21tree_inlined_locationP9tree_nodeb
0000000000a921bf 00000025 T _Z19lhd_gcc_personalityv
0000000000a9224e 0000018f T _Z21error_unavailable_useP9tree_nodeS0_
0000000000a923dd 00000d24 T _Z11verify_typePK9tree_node
0000000000a93101 00000012 T _Z9gt_ggc_mxRP9type_hash
0000000000a93113 00000056 T _Z36gt_pch_nx_hash_table_int_cst_hasher_Pv
0000000000a93169 00000056 T _Z41gt_pch_nx_hash_table_poly_int_cst_hasher_Pv
0000000000a931bf 00000056 T _Z38gt_pch_nx_hash_table_cl_option_hasher_Pv
0000000000a93215 00000056 T _Z48gt_pch_nx_hash_table_tree_decl_map_cache_hasher_Pv
0000000000a9326b 00000056 T _Z47gt_pch_nx_hash_table_tree_vec_map_cache_hasher_Pv
0000000000a932c2 0000000d T _ZN22pointer_equiv_analyzer14set_cond_equivEP9tree_nodeS1_
0000000000a932cf 00000023 T _Z5debugRK14irange_bitmask
0000000000a932f2 00000042 T _ZN6vrange6union_ERKS_
0000000000a95b94 00001852 T _Z24tree_ssa_prefetch_arraysv
0000000000a9942e 0000048f T _Z16dump_strlen_infoP8_IO_FILEP6gimpleP11range_query
0000000000a99b65 0000006a T _Z16set_nonzero_bitsP9tree_nodeRK16generic_wide_intI16wide_int_storageE
0000000000a9a6d6 0000240c T _Z23tree_ssa_unswitch_loopsP8function
0000000000a9df6e 00000267 T _Z16build_vec_seriesP9tree_nodeS0_S0_
0000000000a9e1d5 000000df T _Z18build_index_vectorP9tree_node8poly_intILj1EmES2_
0000000000a9e2b4 000000b4 T _Z21build_vector_a_then_bP9tree_nodejS0_S0_
0000000000a9e731 0000054c T _Z30can_duplicate_and_interleave_pP8vec_infojP9tree_nodePjPS2_S4_
0000000000a9ec7d 0000036f T _Z24duplicate_and_interleaveP8vec_infoPP6gimpleP9tree_nodeRK3vecIS5_7va_heap6vl_ptrEjRS9_
0000000000a9efec 00000075 T _Z5debugP9_slp_tree
0000000000a9f061 00000096 T _Z12dot_slp_treePKcP9_slp_tree
0000000000a9f337 0000009f T _Z16execute_fast_vrpP8function
0000000000a9f5c8 000000cc T _ZN19poly_int_cst_hasher4hashEP9tree_node
0000000000a9f694 0000035c T _Z18build_poly_int_cstP9tree_nodeRK8poly_intILj1E16generic_wide_intI20wide_int_ref_storageILb0ELb1EEEE
0000000000a9f9f0 0000003c T _Z11build_fixedP9tree_node11fixed_value
0000000000a9fa2c 00000071 T _Z35prepare_target_option_nodes_for_pchv
0000000000a9fa9e 0000000a T _ZN6vrange15set_nonnegativeEP9tree_node
0000000000a9faa8 00000007 T _ZNK6vrange6fits_pERKS_
0000000000a9fab0 0000000e T _ZNK6irange6fits_pERK6vrange
0000000000a9fabe 00000016 T _ZNK6frange6acceptERK14vrange_visitor
0000000000a9fad4 0000000a T _ZN6frange11set_nonzeroEP9tree_node
0000000000a9fb11 00000005 T _Z25default_emit_unwind_labelP8_IO_FILEP9tree_nodeii
0000000000a9fb16 0000003f T _Z27hashtab_entry_note_pointersI14section_hasherEvPvS1_PFvS1_S1_S1_ES1_
0000000000a9fb55 0000003f T _Z27hashtab_entry_note_pointersI19object_block_hasherEvPvS1_PFvS1_S1_S1_ES1_
0000000000a9fb94 0000003f T _Z27hashtab_entry_note_pointersI22tree_descriptor_hasherEvPvS1_PFvS1_S1_S1_ES1_
0000000000a9fbd3 0000003f T _Z27hashtab_entry_note_pointersI21const_rtx_desc_hasherEvPvS1_PFvS1_S1_S1_ES1_
0000000000a9fc12 0000003f T _Z27hashtab_entry_note_pointersI15tm_clone_hasherEvPvS1_PFvS1_S1_S1_ES1_
0000000000a9fcf9 0000004d T _Z15unionfind_unionP14web_entry_baseS0_
0000000000a9fe7e 0000001b T _Z20ix86_memtag_tag_sizev
0000000000a9fe99 0000003f T _Z27hashtab_entry_note_pointersI16dllimport_hasherEvPvS1_PFvS1_S1_S1_ES1_
0000000000a9ffb4 00000009 T _ZN3ana25impl_region_model_context15get_uncertaintyEv
0000000000a9ffbe 00000014 T _ZN3ana25impl_region_model_context14terminate_pathEv
0000000000a9ffd2 00000016 T _ZNK3ana13setjmp_svalue6acceptEPNS_7visitorE
0000000000aa0064 0000004a T _ZN3ana25impl_region_model_context12on_pop_frameEPKNS_12frame_regionE
0000000000aa00ae 00000011 T _ZN3ana25impl_region_model_context14maybe_did_workEv
0000000000aa00fe 00000019 T _ZN3ana17supernode_cluster11cmp_ptr_ptrEPKvS2_
0000000000aa0a20 00000095 T _ZNK12equiv_oracle4dumpEP8_IO_FILE
0000000000aa11a8 0000001a T _Z8finalizeI10hash_tableI15tm_clone_hasherLb0E11xcallocatorEEvPv
0000000000aa11c2 0000001a T _Z8finalizeI10hash_tableI14section_hasherLb0E11xcallocatorEEvPv
0000000000aa11dc 0000001a T _Z8finalizeI10hash_tableI19object_block_hasherLb0E11xcallocatorEEvPv
0000000000aa11f6 0000001a T _Z8finalizeI10hash_tableI22tree_descriptor_hasherLb0E11xcallocatorEEvPv
0000000000aa17fe 00000009 T _Z34gt_pch_p_23constant_descriptor_rtxPvS_PFvS_S_S_ES_
0000000000aa1807 00000009 T _Z28gt_pch_p_17rtx_constant_poolPvS_PFvS_S_S_ES_
0000000000aa1810 00000009 T _Z37gt_pch_p_26hash_table_section_hasher_PvS_PFvS_S_S_ES_
0000000000aa1819 00000009 T _Z42gt_pch_p_31hash_table_object_block_hasher_PvS_PFvS_S_S_ES_
0000000000aa1822 00000009 T _Z45gt_pch_p_34hash_table_tree_descriptor_hasher_PvS_PFvS_S_S_ES_
0000000000aa182b 00000009 T _Z44gt_pch_p_33hash_table_const_rtx_desc_hasher_PvS_PFvS_S_S_ES_
0000000000aa1834 00000009 T _Z38gt_pch_p_27hash_table_tm_clone_hasher_PvS_PFvS_S_S_ES_
0000000000aa183d 00000009 T _Z39gt_pch_p_28hash_table_dllimport_hasher_PvS_PFvS_S_S_ES_
0000000000aa1a71 00000009 T _Z28gt_pch_p_17stack_local_entryPvS_PFvS_S_S_ES_
0000000000aa1cea 0000001b T _ZN12equiv_oracleD0Ev
0000000000aa1d05 0000005a T _Z9gt_pch_nxP6irangePFvPvS1_S1_ES1_
0000000000aa1d60 0000004e T _ZN9int_rangeILj3ELb0EEC2EP9tree_node
0000000000aa1dae 0000004e T _ZN9int_rangeILj255ELb0EEC1EP9tree_node
0000000000aa1e02 0000000d T _ZN16vrange_allocator4freeEPv
0000000000aa1e10 00000021 T _ZN14irange_storage21write_lengths_addressEv
0000000000aa1e32 00000006 T _ZNK14irange_storage15lengths_addressEv
0000000000aa1e38 0000000e T _ZNK14irange_storage6fits_pERK6irange
0000000000aa1e46 0000018b T _ZNK14irange_storage4dumpEv
0000000000aa1fd1 0000001c T _Z5debugRK14irange_storage
0000000000aa1fee 00000033 T _ZN14frange_storage10set_frangeERK6frange
0000000000aa2022 00000007 T _ZNK14frange_storage6fits_pERK6frange
0000000000aa2029 00000020 T _Z14print_relationP8_IO_FILE15relation_kind_t
0000000000aa2049 0000000f T _Z15relation_negate15relation_kind_t
0000000000aa2058 00000017 T _Z19relation_transitive15relation_kind_tS_
0000000000aa2070 00000011 T _ZN14value_relation6negateEv
0000000000aa2082 00000064 T _ZN14value_relation6union_ERS_
0000000000aa20e6 00000014 T _ZNK15relation_oracle5debugEv
0000000000aa20fa 0000002e T _Z28gimple_alloc_histogram_valueP8function9hist_typeP6gimpleP9tree_node
0000000000aa2128 00000010 T _Z31coverage_node_map_initialized_pv
0000000000aa2138 00000036 T _Z12del_node_mapv
0000000000aa216e 0000002a T _Z23find_func_by_profile_idi
0000000000aa2220 00000025 T _Z32local_get_addr_clear_given_valueRKP7rtx_defPS0_S0_
0000000000aa2245 0000001a T _Z22variable_tracking_mainv
0000000000aa2266 00000015 T _ZN14section_hasher5equalEP7sectionPKc
0000000000aa227c 0000000d T _ZN14section_hasher4hashEP7section
0000000000aa228a 0000000c T _ZN19object_block_hasher4hashEP12object_block
0000000000aa2296 00000021 T _Z23unlikely_text_section_pP7section
0000000000aa22b7 0000000c T _Z34default_no_function_rodata_sectionP9tree_nodeb
0000000000aa22c3 00000144 T _Z25decode_reg_name_and_countPKcPi
0000000000aa2407 00000017 T _Z15decode_reg_namePKc
0000000000aa24bc 00000009 T _Z15mark_referencedP9tree_node
0000000000aa24c5 0000000c T _Z18constant_pool_htabv
0000000000aa24d2 00000008 T _ZN21const_rtx_desc_hasher4hashEP23constant_descriptor_rtx
0000000000aa24da 00000023 T _Z22get_pool_constant_markP7rtx_defPb
0000000000aa24fd 00000013 T _Z21constant_pool_empty_pv
0000000000aa2510 00000008 T _ZN21const_rtx_data_hasher4hashEP28constant_descriptor_rtx_data
0000000000aa2518 000000c6 T _Z17get_tm_clone_pairP9tree_node
0000000000aa25de 000000d3 T _Z22decl_default_tls_modelPK9tree_node
0000000000aa26b1 00000017 T _Z17have_global_bss_pv
0000000000aa26c8 00000051 T _Z30default_coff_asm_named_sectionPKcjP9tree_node
0000000000aa2719 0000003d T _Z28default_pe_asm_named_sectionPKcjP9tree_node
0000000000aa2756 0000002b T _Z26default_select_rtx_section12machine_modeP7rtx_defm
0000000000aa2781 00000026 T _Z24switch_to_comdat_sectionP7sectionP9tree_node
0000000000aa27a7 00000005 T _Z9gt_pch_nxP14section_hasherPFvPvS1_S1_ES1_
0000000000aa27ac 00000005 T _Z9gt_pch_nxP19object_block_hasherPFvPvS1_S1_ES1_
0000000000aa27b1 00000005 T _Z9gt_pch_nxP22tree_descriptor_hasherPFvPvS1_S1_ES1_
0000000000aa27b6 00000005 T _Z9gt_pch_nxP21const_rtx_desc_hasherPFvPvS1_S1_ES1_
0000000000aa27bb 00000005 T _Z9gt_pch_nxP15tm_clone_hasherPFvPvS1_S1_ES1_
0000000000aa27c0 00000058 T _ZN12symbol_table26add_varpool_insertion_hookEPFvP12varpool_nodePvES2_
0000000000aa2818 00000030 T _ZN12symbol_table29remove_varpool_insertion_hookEP22varpool_node_hook_list
0000000000aa2848 00000029 T _ZN12symbol_table28call_varpool_insertion_hooksEP12varpool_node
0000000000aa2878 00000026 T _ZN14web_entry_base14unionfind_rootEv
0000000000aa289e 000001ef T _Z10union_defsP8df_ref_dP9web_entryPjS2_PFbP14web_entry_baseS5_E
0000000000aa2a93 000000a3 T _ZN2wi13set_bit_largeEPlPKljjj
0000000000aa2b36 0000007b T _ZN2wi16bitreverse_largeEPlPKljj
0000000000aa2bb1 000000d5 T _ZN2wi12or_not_largeEPlPKljS2_jj
0000000000aa2c86 00000005 T _Z9gt_pch_nxP16generic_wide_intI18widest_int_storageILi131072EEEPFvPvS4_ES4_
0000000000aa2c8c 0000008b T _ZNK16generic_wide_intI16wide_int_storageE4dumpEv
0000000000aa2d18 00000081 T _ZNK16generic_wide_intI20wide_int_ref_storageILb0ELb1EEE4dumpEv
0000000000aa2d9a 00000009 T _ZNK16generic_wide_intI20wide_int_ref_storageILb1ELb1EEE4dumpEv
0000000000aa2da4 00000080 T _ZNK16generic_wide_intI22fixed_wide_int_storageILi128EEE4dumpEv
0000000000aa2e24 00000088 T _ZNK16generic_wide_intI18widest_int_storageILi131072EEE4dumpEv
0000000000aa2eac 00000009 T _Z5debugRK16generic_wide_intI16wide_int_storageE
0000000000aa2eb5 0000001f T _Z5debugPK16generic_wide_intI16wide_int_storageE
0000000000aa2ed4 00000009 T _Z5debugRK16generic_wide_intI18widest_int_storageILi131072EEE
0000000000aa2edd 0000001f T _Z5debugPK16generic_wide_intI18widest_int_storageILi131072EEE
0000000000aa2efc 0000000c T _Z22ix86_libc_has_function14function_class
0000000000aa2f08 00000017 T _Z26ix86_setup_frame_addressesv
0000000000aa2f1f 00000048 T _Z16insn_defines_regjjP8rtx_insn
0000000000aa3077 000000d3 T _Z23avx_vperm2f128_parallelP7rtx_def12machine_mode
0000000000aa314a 00000037 T _Z32vpternlog_redundant_operand_maskP7rtx_def
0000000000aa3181 00000056 T _Z29substitute_vpternlog_operandsPP7rtx_def
0000000000aa3233 00000005 T _Z9gt_pch_nxP16dllimport_hasherPFvPvS1_S1_ES1_
0000000000aa323d 0000005e T _ZN3ana41register_finish_translation_unit_callbackEPFvPNS_6loggerERKNS_16translation_unitEE
0000000000aa329c 00000027 T _ZN3ana6logger14start_log_lineEv
0000000000aa333c 0000000c T _ZNK3ana13setjmp_svalue15get_enode_indexEv
0000000000aa3348 00000022 T _Z24fndecl_has_gimple_body_pP9tree_node
0000000000aa336a 00000028 T _ZN3ana13exploded_edgeC2EPNS_13exploded_nodeES2_PKNS_9superedgeEbSt10unique_ptrINS_16custom_edge_infoESt14default_deleteIS7_EE
0000000000aa3392 00000012 T _ZN3ana5statsC1Ei
0000000000aa33a4 00000017 T _ZNK3ana5stats16get_total_enodesEv
0000000000aa33bc 00000064 T _ZN3ana17per_function_dataD1Ev
0000000000aa3420 000000fd T _ZN3ana17per_function_data16add_call_summaryEPNS_13exploded_nodeE
0000000000aa351e 0000005e T _ZNK3ana29strongly_connected_components4dumpEv
0000000000aa357c 00000111 T _ZN3ana29strongly_connected_components14strong_connectEj
0000000000aa368e 00000008 T _ZNK3ana8worklist6lengthEv
0000000000aa3696 0000000d T _ZN3ana8worklist9take_nextEv
0000000000aa36a4 00000012 T _ZN3ana8worklist9peek_nextEv
0000000000aa36ca 0000003f T _ZN3ana25impl_region_model_context9bifurcateESt10unique_ptrINS_16custom_edge_infoESt14default_deleteIS2_EE
0000000000aa3784 00000028 T _ZNK3ana14exploded_graph26get_per_program_point_dataERKNS_13program_pointE
0000000000aa37ac 00000032 T _ZNK3ana9eg_traits11dump_args_t20show_enode_details_pERKNS_13exploded_nodeE
0000000000aa37de 0000002b T _ZNK3ana14exploded_graph21get_per_function_dataEP8function
0000000000aa380a 00000061 T _ZN3ana13exploded_pathC2ERKS0_
0000000000aa3dd0 000000f9 T _ZNK3ana13exploded_node17get_dot_fillcolorEv
0000000000aa43db 00000021 T _ZN3ana14make_kf_strlenEv
0000000000aa4438 00000025 T _ZNK14irange_bitmask11verify_maskEv
0000000000aa445e 000000b5 T _ZN6irange12verify_rangeEv
0000000000aa4513 00000035 T _Z9gt_pch_nxP6vrangePFvPvS1_S1_ES1_
0000000000aa475e 00000082 T _Z28canonicalize_loc_order_checkPP8variableP12dataflow_set
0000000000aa4840 0000001b T _Z24default_no_named_sectionPKcjP9tree_node
0000000000aa485c 000001c3 T _ZN16vec_perm_indices17new_shrunk_vectorERKS_j
0000000000aa4a1f 000000a1 T _Z26vtbl_register_mangled_nameP9tree_nodeS0_
0000000000aa4cfb 0000006d T _Z23ix86_match_ptest_ccmodeP7rtx_def
0000000000aa4d68 000001a0 T _Z21avx_vpermilp_parallelP7rtx_def12machine_mode
0000000000aa5156 0000002f T _ZN3ana13setjmp_record3cmpERKS0_S2_
0000000000aa5186 00000029 T _ZN3ana13exploded_node13status_to_strENS0_6statusE
0000000000aa51b0 0000005d T _ZNK3ana13exploded_node18get_processed_stmtEj
0000000000aa520e 00000031 T _ZNK3ana13exploded_path15get_final_enodeEv
0000000000aa5240 0000002a T _ZNK3ana14exploded_graph17get_node_by_indexEi
0000000000aa548a 00000051 T _ZN3ana22known_function_manager3addE17built_in_functionSt10unique_ptrINS_14known_functionESt14default_deleteIS3_EE
0000000000aa651c 00000057 T _ZN3ana22known_function_manager3addE11internal_fnSt10unique_ptrINS_14known_functionESt14default_deleteIS3_EE
0000000000aa6574 00000044 T _ZN6vrange9intersectERKS_
0000000000aa65b8 0000005c T _ZNK14vrange_printer5visitERK17unsupported_range
0000000000aa6614 00000043 T _ZNK14vrange_printer16print_frange_nanERK6frange
0000000000aa66b2 00000030 T _ZN6frange3setEP9tree_nodeS1_16value_range_kind
0000000000aa66e2 00000009 T _ZNK6frange11singleton_pER10real_value
0000000000aa66ec 00000033 T _ZN6frange12verify_rangeEv
0000000000aa6720 00000049 T _ZN6frange14intersect_nansERKS_
0000000000aa6769 00000014 T _Z9gt_ggc_mxP6irange
0000000000aa677d 0000000d T _Z9gt_ggc_mxP6frange
0000000000aa678a 00000034 T _Z9gt_ggc_mxP6vrange
0000000000aa67be 00000014 T _Z9gt_pch_nxP6irange
0000000000aa67d2 0000000d T _Z9gt_pch_nxP6frange
0000000000aa67df 00000034 T _Z9gt_pch_nxP6vrange
0000000000aa6813 00000009 T _Z9gt_pch_nxP6frangePFvPvS1_S1_ES1_
0000000000aa681c 00000046 T _ZN9int_rangeILj1ELb0EEC2ERK6irange
0000000000aa6862 00000046 T _ZN9int_rangeILj1ELb0EEC1ERKS0_
0000000000aa68a8 00000012 T _ZN9int_rangeILj1ELb0EEaSERKS0_
0000000000aa68ba 00000052 T _ZN9int_rangeILj2ELb0EEC2ERKS0_
0000000000aa690c 00000012 T _ZN9int_rangeILj2ELb0EEaSERKS0_
0000000000aa691e 0000004e T _ZN9int_rangeILj3ELb0EEC2ERKS0_
0000000000aa696c 00000012 T _ZN9int_rangeILj3ELb0EEaSERKS0_
0000000000aa697e 0000004e T _ZN9int_rangeILj255ELb0EEC2ERK6irange
0000000000aa69cc 0000004e T _ZN9int_rangeILj255ELb0EEC2ERKS0_
0000000000aa6a1a 00000012 T _ZN9int_rangeILj255ELb0EEaSERKS0_
0000000000aa6a2c 00000051 T _ZN9int_rangeILj3ELb0EEC2EP9tree_nodeRK16generic_wide_intI16wide_int_storageES7_16value_range_kind
0000000000aa6a7e 00000051 T _ZN9int_rangeILj255ELb0EEC2EP9tree_nodeRK16generic_wide_intI16wide_int_storageES7_16value_range_kind
0000000000aa6ad0 0000012a T _ZNK14vrange_printer18print_irange_boundERK16generic_wide_intI16wide_int_storageEP9tree_node
0000000000aa6bfa 0000002f T _ZNK3ana13setjmp_svalue10dump_to_ppEP14pretty_printerb
0000000000aa6d62 00000019 T _ZNK3ana13exploded_node11dump_dot_idEP14pretty_printer
0000000000aa6d7c 000000d3 T _ZNK3ana13exploded_edge14dump_dot_labelEP14pretty_printer
0000000000aa6e50 00000054 T _ZNK3ana13exploded_edge8dump_dotEP12graphviz_outRKNS_9eg_traits11dump_args_tE
0000000000aa6f22 000000b0 T _ZNK14vrange_printer16print_real_valueEP9tree_nodeRK10real_value
0000000000aa6fd2 000000d1 T _ZNK14vrange_printer5visitERK6frange
0000000000aa727c 00000015 T _ZN14irange_storageC1ERK6irange
0000000000aa7292 00000069 T _ZNK14frange_storage7equal_pERK6frange
0000000000aa72fb 00000011 T _Z24ggc_alloc_vrange_storageP9tree_node
0000000000aa730c 000000ef T _ZNK11equiv_chain4dumpEP8_IO_FILE
0000000000aa73fc 0000006f T _ZNK14value_relation4dumpEP8_IO_FILE
0000000000aa746c 00000073 T _ZNK11path_oracle4dumpEP8_IO_FILE
0000000000aa74e0 0000005f T _ZN12equiv_oracle14query_relationEP15basic_block_defP9tree_nodeS3_
0000000000aa7540 00000132 T _ZNK12equiv_oracle4dumpEP8_IO_FILEP15basic_block_def
0000000000aa7672 00000078 T _ZNK10dom_oracle4dumpEP8_IO_FILEP15basic_block_def
0000000000aa76ea 0000008c T _ZNK10dom_oracle4dumpEP8_IO_FILE
0000000000aa7776 0000001f T _ZN12equiv_oracle14query_relationEP15basic_block_defPK11bitmap_headS4_
0000000000aa7812 00000031 T _Z26gimple_add_histogram_valueP8functionP6gimpleP17histogram_value_t
0000000000aa7843 00000051 T _Z29gimple_remove_histogram_valueP8functionP6gimpleP17histogram_value_t
0000000000aa7894 0000002f T _Z24dump_histograms_for_stmtP8functionP8_IO_FILEP6gimple
0000000000aa78c3 0000005b T _Z27gimple_move_stmt_histogramsP8functionP6gimpleS2_
0000000000aa791e 000000c3 T _Z26stream_out_histogram_valueP12output_blockP17histogram_value_t
0000000000aa79e1 000001e1 T _Z25stream_in_histogram_valueP15lto_input_blockP6gimple
0000000000aa7cab 0000035d T _Z17verify_histogramsv
0000000000aa848f 000000df T _Z33vtbl_map_node_registration_insertP13vtbl_map_nodeP9tree_nodej
0000000000aa856e 00000085 T _Z31vtbl_map_node_registration_findP13vtbl_map_nodeP9tree_nodej
0000000000aa883a 0000028b T _ZN3ana14exploded_graph36get_or_create_per_program_point_dataERKNS_13program_pointE
0000000000aa8ac6 00000357 T _ZN3ana14exploded_graph34get_or_create_per_call_string_dataERKNS_11call_stringE
0000000000aa8e1e 000002cf T _ZN3ana14exploded_graph31get_or_create_per_function_dataEP8function
0000000000aa90ee 00000556 T _ZN3ana14exploded_graph28get_or_create_function_statsEP8function
0000000000aa9c12 0000044d T _Z13init_node_mapb
0000000000aaa101 00000422 T _Z29gimple_find_values_to_profileP3vecIP17histogram_value_t7va_heap6vl_ptrE
0000000000aaa523 0000001e T _Z8debug_dv11pointer_muxI9tree_node7rtx_defE
0000000000aaa70b 00000014 T _Z22dump_var_tracking_slotPP8variablePv
0000000000aaa8d0 0000001c T _Z30switch_to_other_text_partitionv
0000000000aaa983 00000058 T _Z26get_cdtor_priority_sectionib
0000000000aaa9db 00000055 T _Z29file_end_indicate_split_stackv
0000000000aaaa30 0000003a T _Z40default_named_section_asm_out_destructorP7rtx_defi
0000000000aaaa6a 0000003d T _Z41default_named_section_asm_out_constructorP7rtx_defi
0000000000aaab5f 00000088 T _Z25default_asm_output_anchorP7rtx_def
0000000000aaabe7 00000034 T _Z20mark_decl_referencedP9tree_node
0000000000aaac1b 00000040 T _Z20ix86_tls_module_basev
0000000000aaac5b 00000119 T _Z21assemble_static_spacem
0000000000aaad74 00000185 T _Z18get_section_anchorP12object_blockl9tls_model
0000000000aaaef9 0000017a T _Z28assemble_trampoline_templatev
0000000000aab073 000000a1 T _Z18do_assemble_symverP9tree_nodeS0_
0000000000aab114 0000010e T _Z17vtbl_map_get_nodeP9tree_node
0000000000aab222 00000322 T _Z28find_or_create_vtbl_map_nodeP9tree_node
0000000000aab544 00000018 T _ZN12varpool_node15get_for_asmnameEP9tree_node
0000000000aab55c 000001a2 T _Z14assemble_aliasP9tree_nodeS0_
0000000000aab6fe 00000015 T _Z27default_clone_table_sectionv
0000000000aab713 00000071 T _Z22default_select_sectionP9tree_nodeim
0000000000aab784 0000007f T _Z32default_use_anchors_for_symbol_pPK7rtx_def
0000000000aab803 00000020 T _Z21default_binds_local_pPK9tree_node
0000000000aab823 0000002e T _Z23default_binds_local_p_2PK9tree_node
0000000000aab851 0000001a T _Z23default_binds_local_p_1PK9tree_nodei
0000000000aab86b 000001fd T _Z18place_block_symbolP7rtx_def
0000000000aaba68 00000042 T _Z23elf_record_gcc_switchesPKc
0000000000aabaaa 00000042 T _Z9gt_ggc_mxR23constant_descriptor_rtx
0000000000aabaec 00000012 T _Z9gt_ggc_mxRP23constant_descriptor_rtx
0000000000aabafe 0000006e T _Z33gt_pch_nx_constant_descriptor_rtxPv
0000000000aabb6c 00000042 T _Z9gt_pch_nxR23constant_descriptor_rtx
0000000000aabbae 00000012 T _Z9gt_pch_nxRP23constant_descriptor_rtx
0000000000aabbc0 00000056 T _Z43gt_pch_nx_hash_table_const_rtx_desc_hasher_Pv
0000000000aabc16 00000049 T _Z27gt_pch_nx_rtx_constant_poolPv
0000000000aabc5f 00000039 T _Z27gt_pch_nx_stack_local_entryPv
0000000000aabc98 00000056 T _Z36gt_pch_nx_hash_table_section_hasher_Pv
0000000000aabcee 00000056 T _Z41gt_pch_nx_hash_table_object_block_hasher_Pv
0000000000aabd44 00000056 T _Z44gt_pch_nx_hash_table_tree_descriptor_hasher_Pv
0000000000aabd9a 00000056 T _Z37gt_pch_nx_hash_table_tm_clone_hasher_Pv
0000000000aabdf0 00000056 T _Z38gt_pch_nx_hash_table_dllimport_hasher_Pv
0000000000aabe46 00000009 T _Z9gt_pch_nxP23constant_descriptor_rtxPFvPvS1_S1_ES1_
0000000000aabe50 00000113 T _ZN12varpool_node4dumpEP8_IO_FILE
0000000000aabf64 00000010 T _ZN12varpool_node5debugEv
0000000000aabf74 00000056 T _ZN12varpool_node12dump_varpoolEP8_IO_FILE
0000000000aabfca 0000000d T _ZN12varpool_node13debug_varpoolEv
0000000000aabfd8 00000054 T _ZN12varpool_node3addEP9tree_node
0000000000aac02c 0000003f T _ZN12varpool_node23create_extra_name_aliasEP9tree_nodeS1_
0000000000aac642 000003b5 T _Z10print_decuRK16generic_wide_intI20wide_int_ref_storageILb0ELb1EEEPc
0000000000aac9f7 000001f6 T _Z10print_decsRK16generic_wide_intI20wide_int_ref_storageILb0ELb1EEEPc
0000000000aacbed 00000012 T _Z9print_decRK16generic_wide_intI20wide_int_ref_storageILb0ELb1EEEPc6signop
0000000000aacbff 000000a3 T _Z17pp_wide_int_largeP14pretty_printerRK16generic_wide_intI20wide_int_ref_storageILb0ELb1EEE6signop
0000000000aacca2 000000a9 T _Z10print_decsRK16generic_wide_intI20wide_int_ref_storageILb0ELb1EEEP8_IO_FILE
0000000000aacd4b 000000ac T _Z10print_decuRK16generic_wide_intI20wide_int_ref_storageILb0ELb1EEEP8_IO_FILE
0000000000aacdf7 00000012 T _Z9print_decRK16generic_wide_intI20wide_int_ref_storageILb0ELb1EEEP8_IO_FILE6signop
0000000000aacfd3 000000ba T _Z9gen_push2P7rtx_defS0_S0_b
0000000000aada1e 0000002f T _Z30standard_80387_constant_opcodeP7rtx_def
0000000000aada4d 00000063 T _Z27standard_80387_constant_rtxi
0000000000aadab0 00000097 T _Z26ix86_can_use_return_insn_pv
0000000000aadb50 0000002b T _Z26indirect_thunk_need_prefixP8rtx_insn
0000000000aadb7b 00000161 T _Z14output_set_gotP7rtx_defS0_
0000000000aae040 00000107 T _Z36ix86_output_indirect_function_returnP7rtx_def
0000000000aae147 0000013c T _Z24output_probe_stack_rangeP7rtx_defS0_
0000000000aae283 000000ee T _Z10gen_pushflv
0000000000aae371 00000085 T _Z9gen_popflv
0000000000aae3f6 00000029 T _Z30warn_once_call_ms2sysv_xloguesPKc
0000000000aaeb39 00000021 T _Z35ix86_print_patchable_function_entryP8_IO_FILEmb
0000000000aaeb5a 00000016 T _Z26ix86_output_patchable_areajb
0000000000aaeb70 000003f3 T _Z21x86_function_profilerP8_IO_FILEi
0000000000aaef63 00000086 T _Z22ix86_split_stack_guardv
0000000000aaefe9 00000a7f T _Z32ix86_expand_split_stack_prologuev
0000000000aafb23 000009c5 T _Z22legitimize_tls_addressP7rtx_def9tls_modelb
0000000000ab04e8 0000014b T _Z26ix86_rewrite_tls_address_1PP7rtx_def
0000000000ab0633 0000002b T _Z24ix86_rewrite_tls_addressP7rtx_def
0000000000ab0a99 000000ae T _Z32x86_extended_rex2reg_mentioned_pP7rtx_def
0000000000ab0b47 00000043 T _Z24x86_evex_reg_mentioned_pPP7rtx_defi
0000000000ab13d5 00000136 T _Z16output_fix_truncP8rtx_insnPP7rtx_defb
0000000000ab15fe 00000011 T _Z23ix86_dep_by_shift_countPK7rtx_defS1_
0000000000ab160f 00000038 T _Z36ix86_vec_interleave_v2df_operator_okPP7rtx_defb
0000000000ab1647 000000d3 T _Z34ix86_operands_ok_for_move_multiplePP7rtx_defb12machine_mode
0000000000ab1ce5 000000e1 T _Z28ix86_attr_length_vex_defaultP8rtx_insnbb
0000000000ab23a7 00000059 T _ZN3ana28get_stashed_constant_by_nameEPKc
0000000000ab2400 000002c1 T _Z19ix86_veclibabi_svml11combined_fnP9tree_nodeS1_
0000000000ab26c1 00000216 T _Z19ix86_veclibabi_acml11combined_fnP9tree_nodeS1_
0000000000ab28d7 00000050 T _Z26ix86_initialize_callee_abij
0000000000ab2927 00000034 T _Z26ix86_expand_avx_vzeroupperv
0000000000ab331c 000000c3 T _Z19ix86_memtag_set_tagP7rtx_defS0_S0_
0000000000ab33df 000000cf T _Z23ix86_memtag_extract_tagP7rtx_defS0_
0000000000ab34ae 000000a2 T _Z28ix86_memtag_untagged_pointerP7rtx_defS0_
0000000000ab3550 00000155 T _Z19ix86_memtag_add_tagP7rtx_def8poly_intILj1ElEh
0000000000ab3754 00000033 T _Z27gt_ggc_mx_stack_local_entryPv
0000000000ab3788 00000055 T _ZN3ana6loggerC1EP8_IO_FILEiiRK14pretty_printer
0000000000ab37de 00000042 T _ZN3ana6logger14log_va_partialEPKcPA1_13__va_list_tag
0000000000ab3820 00000093 T _ZN3ana6logger11log_partialEPKcz
0000000000ab38b4 00000032 T _ZN3ana6logger12end_log_lineEv
0000000000ab38e6 0000002d T _ZN3ana6logger6log_vaEPKcPA1_13__va_list_tag
0000000000ab3914 00000093 T _ZN3ana6logger3logEPKcz
0000000000ab39a8 00000047 T _ZN3ana6loggerD1Ev
0000000000ab39f0 00000028 T _ZN3ana6logger6increfEPKc
0000000000ab3a18 0000001a T _ZN3ana8log_userC2EPNS_6loggerE
0000000000ab3a32 00000085 T _ZN3ana25impl_region_model_contextC2ERNS_14exploded_graphEPNS_13exploded_nodeEPKNS_13program_stateEPS5_PNS_13uncertainty_tEPNS_12path_contextEPK6gimplePNS_11stmt_finderEPb
0000000000ab3ab8 00000060 T _ZN3ana25impl_region_model_contextC2EPNS_13program_stateERKNS_15extrinsic_stateEPNS_13uncertainty_tEPNS_6loggerE
0000000000ab3b18 00000066 T _ZN3ana22known_function_managerC1EPNS_6loggerE
0000000000ab3b7e 00000061 T _ZN3ana6logger6decrefEPKc
0000000000ab3be0 00000014 T _ZN3ana8log_userD1Ev
0000000000ab3c2e 0000015c T _ZN3ana25impl_region_model_context12on_conditionEPKNS_6svalueE9tree_codeS3_
0000000000ab3d8a 00000149 T _ZN3ana25impl_region_model_context17on_bounded_rangesERKNS_6svalueERKNS_14bounded_rangesE
0000000000ab3ed4 0000013e T _ZN3ana25impl_region_model_context6on_phiEPK4gphiP9tree_node
0000000000ab4012 0000003a T _ZN3ana8log_user10set_loggerEPNS_6loggerE
0000000000ab404c 0000001c T _ZN3ana6logger11enter_scopeEPKc
0000000000ab4096 0000003d T _ZN3ana6logger10exit_scopeEPKc
0000000000ab4152 000000be T _ZN3ana14exploded_graph8add_edgeEPNS_13exploded_nodeES2_PKNS_9superedgeEbSt10unique_ptrINS_16custom_edge_infoESt14default_deleteIS7_EE
0000000000ab4234 0000004f T _ZN3ana6logger11enter_scopeEPKcS2_PA1_13__va_list_tag
0000000000ab4420 00000269 T _ZN3ana22known_function_manager3addEPKcSt10unique_ptrINS_14known_functionESt14default_deleteIS4_EE
0000000000ab46f3 00000205 T _ZN3ana33register_known_analyzer_functionsERNS_22known_function_managerE
0000000000ab48f8 000000d1 T _ZN3ana32register_known_functions_lang_cpERNS_22known_function_managerE
0000000000ab4dd2 00000220 T _ZNK3ana14exploded_graph22find_previous_entry_toEP8functionPNS_13exploded_nodeE
0000000000ab5050 0000012b T _ZN3ana25impl_region_model_context4warnESt10unique_ptrINS_18pending_diagnosticESt14default_deleteIS2_EEPKNS_11stmt_finderE
0000000000ab517c 0000006b T _ZN3ana25impl_region_model_context8add_noteESt10unique_ptrINS_12pending_noteESt14default_deleteIS2_EE
0000000000ab51e8 0000006b T _ZN3ana25impl_region_model_context9add_eventESt10unique_ptrINS_13checker_eventESt14default_deleteIS2_EE
0000000000ab5254 0000004f T _ZN3ana25impl_region_model_context14on_svalue_leakEPKNS_6svalueE
0000000000ab52a4 0000005b T _ZN3ana25impl_region_model_context18on_liveness_changeERK8hash_setIPKNS_6svalueELb0E19default_hash_traitsIS4_EEPKNS_12region_modelE
0000000000ab5300 00000067 T _ZN3ana25impl_region_model_context17on_unknown_changeEPKNS_6svalueEb
0000000000ab5368 0000003f T _ZN3ana25impl_region_model_context21purge_state_involvingEPKNS_6svalueE
0000000000ab5cf0 00000158 T _ZN3ana25impl_region_model_context21get_state_map_by_nameEPKcPPNS_12sm_state_mapEPPKNS_13state_machineEPjPSt10unique_ptrINS_10sm_contextESt14default_deleteISC_EE
0000000000ab5e48 00000059 T _ZNK3ana13exploded_path19find_stmt_backwardsEPK6gimplePi
0000000000ab6123 00000091 T _ZN3ana22readability_comparatorEPKvS1_
0000000000ab61b4 0000029e T _ZN3ana25impl_region_model_context13on_state_leakERKNS_13state_machineEPKNS_6svalueEPKNS1_5stateE
0000000000ab6452 0000005d T _ZN3ana25impl_region_model_context23on_unexpected_tree_codeEP9tree_nodeRK15dump_location_t
0000000000ab64b0 00000060 T _ZNK3ana13exploded_node22dump_saved_diagnosticsEP14pretty_printer
0000000000ab6510 00000073 T _ZNK3ana13exploded_node10dump_to_ppEP14pretty_printerRKNS_15extrinsic_stateE
0000000000ab6584 00000075 T _ZNK3ana13exploded_path10dump_to_ppEP14pretty_printerPKNS_15extrinsic_stateE
0000000000ab65fa 000000ba T _ZNK3ana13exploded_node20dump_processed_stmtsEP14pretty_printer
0000000000ab66b4 0000019c T _ZNK3ana13exploded_node8dump_dotEP12graphviz_outRKNS_9eg_traits11dump_args_tE
0000000000ab6850 0000001d T _ZN3ana13exploded_node12on_stmt_postEPK6gimplePNS_13program_stateEbPNS_20region_model_contextE
0000000000ab6884 00000081 T _ZN3ana13exploded_node7on_edgeERNS_14exploded_graphEPKNS_9superedgeEPNS_13program_pointEPNS_13program_stateEPNS_13uncertainty_tE
0000000000ab6de4 00000094 T _ZNK3ana13rewind_info_t12update_modelEPNS_12region_modelEPKNS_13exploded_edgeEPNS_20region_model_contextE
0000000000ab6e78 00000066 T _ZNK3ana19dynamic_call_info_t12update_modelEPNS_12region_modelEPKNS_13exploded_edgeEPNS_20region_model_contextE
0000000000ab6ede 00000137 T _ZNK3ana13rewind_info_t18add_events_to_pathEPNS_12checker_pathERKNS_13exploded_edgeE
0000000000ab7016 00000089 T _ZNK3ana5stats3logEPNS_6loggerE
0000000000ab70a0 000000b2 T _ZNK3ana5stats4dumpEP8_IO_FILE
0000000000ab7152 00000073 T _ZNK3ana29strongly_connected_components7to_jsonEv
0000000000ab71c5 00000052 T _ZN3ana28function_call_string_cluster11cmp_ptr_ptrEPKvS2_
0000000000ab7218 000001d2 T _ZN3ana8worklist5key_t3cmpERKS1_S3_
0000000000ab73ea 00000088 T _ZN3ana8worklist8add_nodeEPNS_13exploded_nodeE
0000000000ab7672 000003fa T _ZN3ana14exploded_graphD1Ev
0000000000ab7a6c 0000001b T _ZN3ana14exploded_graphD0Ev
0000000000ab7e06 0000007c T _ZNK3ana19feasibility_problem10dump_to_ppEP14pretty_printer
0000000000ab7e82 0000000f T _ZNK3ana17feasibility_state10dump_to_ppEP14pretty_printerbb
0000000000ab7e92 0000054d T _ZN3ana13viz_callgraphC1ERKNS_10supergraphE
0000000000ab83e0 00000171 T _ZNK3ana14exploded_graph10dump_statsEP8_IO_FILE
0000000000ab8552 0000002c T _ZN3ana17feasibility_stateaSERKS0_
0000000000ab857e 00000059 T _ZN3ana17feasibility_state15update_for_stmtEPK6gimple
0000000000ab85d8 000002bd T _ZN3ana17feasibility_state21maybe_update_for_edgeEPNS_6loggerEPKNS_13exploded_edgeEPNS_20region_model_contextEPSt10unique_ptrINS_19rejected_constraintESt14default_deleteIS9_EE
0000000000ab8f04 0000007f T _ZN3ana25get_or_create_any_logfileEv
0000000000ab8f83 00000131 T _ZN3ana26on_finish_translation_unitERKNS_16translation_unitE
0000000000ab9c44 000003c2 T _ZN3ana14exploded_graph25detect_infinite_recursionEPNS_13exploded_nodeE
0000000000aba006 0000000c T _ZNK3ana39pure_known_function_with_default_return13impl_call_preERKNS_12call_detailsE
0000000000aba046 00000044 T _ZNK3ana9kf_alloca13impl_call_preERKNS_12call_detailsE
0000000000aba76e 000000b3 T _ZNK3ana9kf_calloc13impl_call_preERKNS_12call_detailsE
0000000000aba822 00000059 T _ZNK3ana9kf_malloc13impl_call_preERKNS_12call_detailsE
0000000000aba87c 00000074 T _ZNK3ana8kf_error13impl_call_preERKNS_12call_detailsE
0000000000aba946 0000004a T _ZNK3ana7kf_free14impl_call_postERKNS_12call_detailsE
0000000000aba990 0000000b T _ZN3ana12region_model22impl_deallocation_callERKNS_12call_detailsE
0000000000aba9d0 00000100 T _ZNK3ana17kf_memcpy_memmove13impl_call_preERKNS_12call_detailsE
0000000000abaad0 000000c0 T _ZNK3ana9kf_memset13impl_call_preERKNS_12call_detailsE
0000000000abaf1c 00000114 T _ZNK3ana10kf_realloc14impl_call_postERKNS_12call_detailsE
0000000000abb030 000000d6 T _ZNK3ana9kf_strchr14impl_call_postERKNS_12call_detailsE
0000000000abb106 000000d6 T _ZNK3ana9kf_strstr14impl_call_postERKNS_12call_detailsE
0000000000abb552 000000bc T _ZNK3ana9kf_strcpy13impl_call_preERKNS_12call_detailsE
0000000000abb702 00000121 T _ZNK3ana10kf_strncpy14impl_call_postERKNS_12call_detailsE
0000000000abb89a 00000d03 T _ZN3ana24register_known_functionsERNS_22known_function_managerERNS_20region_model_managerE
0000000000abc866 00000091 T _Z18is_placement_new_pPK5gcall
0000000000abc9c4 00000077 T _ZNK6vrange4dumpEP8_IO_FILE
0000000000abca3b 00000009 T _Z16dump_value_rangeP8_IO_FILEPK6vrange
0000000000abca44 00000023 T _Z5debugPK9int_rangeILj2ELb0EE
0000000000abca67 00000006 T _Z5debugPK6vrange
0000000000abca6d 00000006 T _Z5debugRK6vrange
0000000000abca73 00000023 T _Z5debugRK9int_rangeILj2ELb0EE
0000000000abca96 00000070 T _ZNK3ana13exploded_node4dumpEP8_IO_FILERKNS_15extrinsic_stateE
0000000000abcb06 00000010 T _ZNK3ana13exploded_node4dumpERKNS_15extrinsic_stateE
0000000000abcb16 00000171 T _ZNK3ana13exploded_node20dump_succs_and_predsEP8_IO_FILE
0000000000abcc88 000003b3 T _ZNK3ana14exploded_graph16print_bar_chartsEP14pretty_printer
0000000000abd03c 0000016f T _ZNK3ana14exploded_graph9log_statsEv
0000000000abd1ac 0000010e T _ZNK3ana14exploded_graph25dump_states_for_supernodeEP8_IO_FILEPKNS_9supernodeE
0000000000abd2ba 00000070 T _ZNK3ana13exploded_path4dumpEP8_IO_FILEPKNS_15extrinsic_stateE
0000000000abd32a 00000010 T _ZNK3ana13exploded_path4dumpEPKNS_15extrinsic_stateE
0000000000abd33a 00000079 T _ZNK3ana13exploded_path12dump_to_fileEPKcRKNS_15extrinsic_stateE
0000000000abd60e 000000ed T _ZN15relation_oracle17validate_relationE15relation_kind_tR6vrangeS2_
0000000000abd6fc 00000095 T _ZN15relation_oracle17validate_relationE15relation_kind_tP9tree_nodeS2_
0000000000abd8ab 00000129 T _Z25get_nth_most_common_valueP6gimplePKcP17histogram_value_tPlS5_S5_j
0000000000abd9d4 00001a2b T _Z36gimple_value_profile_transformationsv
0000000000abf3ff 00000039 T _Z19get_unnamed_sectionjPFvPKcES0_
0000000000abf438 000002b6 T _Z20record_tm_clone_pairP9tree_nodeS0_
0000000000abf6ee 000000e5 T _Z22assign_386_stack_local12machine_mode15ix86_stack_slot
0000000000abf9c4 000000de T _Z23vec_perm_indices_to_rtx12machine_modeRK16vec_perm_indices
0000000000abfe1e 0000016a T _Z9print_hexRK16generic_wide_intI20wide_int_ref_storageILb0ELb1EEEPc
0000000000abff88 000001ef T _ZNK14irange_bitmask4dumpEP8_IO_FILE
0000000000ac0178 000002d5 T _ZNK14vrange_printer21print_irange_bitmasksERK6irange
0000000000ac044e 0000016a T _ZNK14vrange_printer5visitERK6irange
0000000000ac05b8 000000a7 T _Z9print_hexRK16generic_wide_intI20wide_int_ref_storageILb0ELb1EEEP8_IO_FILE
0000000000ac065f 000000c2 T _ZN3ana21log_stashed_constantsEPNS_6loggerE
0000000000ac0722 000000b2 T _ZN3ana22known_function_managerD1Ev
0000000000ac07d4 0000005f T _ZN3ana13exploded_nodeC1ERKNS_15point_and_stateEi
0000000000ac0994 000000ed T _ZNK3ana13exploded_node7to_jsonERKNS_15extrinsic_stateE
0000000000ac0a82 00000115 T _ZNK3ana13exploded_edge7to_jsonEv
0000000000ac0b98 0000004a T _ZNK3ana8worklist7to_jsonEv
0000000000ac0be2 00000147 T _ZNK3ana14exploded_graph7to_jsonEv
0000000000ac0dea 000001ea T _ZN3ana13exploded_node12detect_leaksERNS_14exploded_graphE
0000000000ac1162 000002a9 T _ZN3ana13exploded_node19replay_call_summaryERNS_14exploded_graphEPKNS_9supernodeEPK5gcallPNS_13program_stateEPNS_12path_contextERK8functionPNS_12call_summaryEPNS_20region_model_contextE
0000000000ac140c 000000b7 T _ZN3ana13exploded_node21replay_call_summariesERNS_14exploded_graphEPKNS_9supernodeEPK5gcallPNS_13program_stateEPNS_12path_contextERK8functionRNS_17per_function_dataEPNS_20region_model_contextE
0000000000ac2064 0000011d T _ZNK3ana19dynamic_call_info_t18add_events_to_pathEPNS_12checker_pathERKNS_13exploded_edgeE
0000000000ac2182 00000118 T _ZN3ana29strongly_connected_componentsC2ERKNS_10supergraphEPNS_6loggerE
0000000000ac229a 0000009a T _ZN3ana8worklistC2ERKNS_14exploded_graphERKNS_13analysis_planE
0000000000ac2334 000009b2 T _ZNK3ana14exploded_graph19dump_exploded_nodesEv
0000000000ac2ce6 000008c6 T _ZN3ana14exploded_graph18get_or_create_nodeERKNS_13program_pointERKNS_13program_stateEPNS_13exploded_nodeE
0000000000ac35ac 00000293 T _ZN3ana13exploded_node10on_longjmpERNS_14exploded_graphEPK5gcallPNS_13program_stateEPNS_20region_model_contextE
0000000000ac3840 0000013f T _ZN3ana13exploded_node11on_stmt_preERNS_14exploded_graphEPK6gimplePNS_13program_stateEPbS8_PNS_20region_model_contextE
0000000000ac3980 00000393 T _ZN3ana13exploded_node7on_stmtERNS_14exploded_graphEPKNS_9supernodeEPK6gimplePNS_13program_stateEPNS_13uncertainty_tEPbPNS_12path_contextE
0000000000ac3d14 000003f4 T _ZN3ana14exploded_graphC2ERKNS_10supergraphEPNS_6loggerERKNS_15extrinsic_stateEPKNS_15state_purge_mapERKNS_13analysis_planEi
0000000000ac4108 0000043a T _ZN3ana14exploded_graph18add_function_entryERK8function
0000000000ac4542 0000018d T _ZN3ana14exploded_graph22build_initial_worklistEv
0000000000ac46d0 000000b7 T _ZN3ana14exploded_graph19on_escaped_functionEP9tree_node
0000000000ac4788 0000000d T _ZN3ana25impl_region_model_context19on_escaped_functionEP9tree_node
0000000000ac4796 000001df T _ZN3ana14exploded_graph25maybe_create_dynamic_callEPK5gcallP9tree_nodePNS_13exploded_nodeENS_13program_stateERNS_13program_pointEPNS_13uncertainty_tEPNS_6loggerE
0000000000ac4976 00001074 T _ZN3ana14exploded_graph12process_nodeEPNS_13exploded_nodeE
0000000000ac5c42 00000840 T _ZN3ana14exploded_graph44maybe_process_run_of_before_supernode_enodesEPNS_13exploded_nodeE
0000000000ac6482 00000503 T _ZN3ana14exploded_graph16process_worklistEv
0000000000ac69e6 00000037 T _ZN3ana17feasibility_stateC1EPNS_20region_model_managerERKNS_10supergraphE
0000000000ac6a1e 000001c7 T _ZNK3ana13exploded_path10feasible_pEPNS_6loggerEPSt10unique_ptrINS_19feasibility_problemESt14default_deleteIS4_EEPNS_6engineEPKNS_14exploded_graphE
0000000000ac6be6 00000039 T _ZN3ana17feasibility_stateC1ERKS0_
0000000000ac6c20 00000037 T _ZN3ana17feasibility_stateC1ERKNS_12region_modelERKNS_10supergraphE
0000000000ac6c58 00000c6b T _ZN3ana14exploded_graph21detect_infinite_loopsEv
0000000000ac78c3 00000be2 T _ZN3ana17impl_run_checkersEPNS_6loggerE
0000000000ac84a5 000000d5 T _ZN3ana12run_checkersEv
0000000000ac8628 00000038 T _ZNK3ana6region6acceptEPNS_7visitorE
0000000000ac8660 00000028 T _ZN3ana6region11cmp_ptr_ptrEPKvS2_
0000000000ac8688 00000025 T _ZNK3ana12frame_region6acceptEPNS_7visitorE
0000000000ac86ae 00000028 T _ZNK3ana15symbolic_region6acceptEPNS_7visitorE
0000000000ac86d6 00000028 T _ZNK3ana14element_region6acceptEPNS_7visitorE
0000000000ac86fe 00000028 T _ZNK3ana13offset_region6acceptEPNS_7visitorE
0000000000ac8726 00000009 T _ZNK3ana13offset_region28get_relative_symbolic_offsetEPNS_20region_model_managerE
0000000000ac8730 00000028 T _ZNK3ana12sized_region6acceptEPNS_7visitorE
0000000000ac8758 00000025 T _ZNK3ana11cast_region6acceptEPNS_7visitorE
0000000000ac877e 00000014 T _ZNK3ana16bit_range_region12get_bit_sizeEP16generic_wide_intI22fixed_wide_int_storageILi128EEE
0000000000ac8792 00000014 T _ZNK3ana16bit_range_region28get_relative_concrete_offsetEP16generic_wide_intI22fixed_wide_int_storageILi128EEE
0000000000ac8a24 00000005 T _ZN3ana25noop_region_model_context8add_noteESt10unique_ptrINS_12pending_noteESt14default_deleteIS2_EE
0000000000ac8a2a 00000005 T _ZN3ana25noop_region_model_context9add_eventESt10unique_ptrINS_13checker_eventESt14default_deleteIS2_EE
0000000000ac8a30 00000005 T _ZN3ana25noop_region_model_context9bifurcateESt10unique_ptrINS_16custom_edge_infoESt14default_deleteIS2_EE
0000000000ac9261 00000005 T _Z8finalizeIN8hash_mapIN3ana16concrete_bindingEPS2_21simple_hashmap_traitsI19default_hash_traitsIS2_ES3_EE10hash_entryEEvPv
0000000000ac9266 00000005 T _Z8finalizeIN8hash_mapIN3ana16symbolic_bindingEPS2_21simple_hashmap_traitsI19default_hash_traitsIS2_ES3_EE10hash_entryEEvPv
0000000000ac9272 0000000d T _ZNK3ana13state_machine7on_leakEP9tree_node
0000000000acaa40 0000007a T _ZNK3ana16bit_range_region13get_byte_sizeEP16generic_wide_intI22fixed_wide_int_storageILi128EEE
0000000000acaaba 0000007c T _ZNK3ana12field_region28get_relative_concrete_offsetEP16generic_wide_intI22fixed_wide_int_storageILi128EEE
0000000000acab36 00000022 T _ZNK3ana11cast_region28get_relative_concrete_offsetEP16generic_wide_intI22fixed_wide_int_storageILi128EEE
0000000000acab58 0000004f T _ZN3ana12region_model17append_regions_cbEPKNS_6regionEPNS_22append_regions_cb_dataE
0000000000acae2c 00000028 T _ZNK3ana22known_function_manager17get_by_identifierEP9tree_node
0000000000acae54 0000000c T _ZNK3ana27diagnostic_emission_context22get_pending_diagnosticEv
0000000000acae60 000000d3 T _ZN3ana27diagnostic_emission_context4warnEPKcz
0000000000acb260 000000ce T _ZN3ana27diagnostic_emission_context6informEPKcz
0000000000acb3aa 00000013 T _ZN3ana14function_pointC2EPKNS_9supernodeEPKNS_9superedgeEjNS_10point_kindE
0000000000acb3be 0000004c T _ZNK3ana14function_point4hashEv
0000000000acb40a 00000011 T _ZNK3ana14function_point12get_functionEv
0000000000acb41c 0000003e T _ZNK3ana14function_point8get_stmtEv
0000000000acb45a 00000028 T _ZNK3ana14function_point12final_stmt_pEv
0000000000acb482 0000002d T _ZN3ana14function_point19from_function_entryERKNS_10supergraphERK8function
0000000000acb4b0 00000027 T _ZN3ana14function_point16before_supernodeEPKNS_9supernodeEPKNS_9superedgeE
0000000000acb4d8 00000035 T _ZNK3ana13program_point4hashEv
0000000000acb50e 0000001c T _ZN3ana13program_point6originERKNS_20region_model_managerE
0000000000acb52a 0000003c T _ZN3ana13program_point19from_function_entryERKNS_20region_model_managerERKNS_10supergraphERK8function
0000000000acb566 00000012 T _ZNK3ana15extrinsic_state17get_model_managerEv
0000000000acb578 00000051 T _ZNK3ana15extrinsic_state18get_sm_idx_by_nameEPKcPj
0000000000acb5ca 000000a6 T _ZNK3ana12sm_state_map5cloneEv
0000000000acb670 0000001f T _ZNK3ana12sm_state_map10is_empty_pEv
0000000000acb690 000000ac T _ZNK3ana12sm_state_map4hashEv
0000000000acb73c 000000bc T _ZNK3ana12sm_state_mapeqERKS0_
0000000000acb7f8 00000009 T _ZN3ana12sm_state_map16set_global_stateEPKNS_13state_machine5stateE
0000000000acb802 00000009 T _ZNK3ana12sm_state_map16get_global_stateEv
0000000000acb80c 0000006d T _ZN3ana13program_stateC1EOS0_
0000000000acbbf0 0000001f T _ZN3ana6regionD1Ev
0000000000acbf1e 0000001b T _ZN3ana6regionD0Ev
0000000000acbf3a 00000044 T _ZNK3ana6region15get_base_regionEv
0000000000acbf7e 00000020 T _ZNK3ana6region13base_region_pEv
0000000000acbf9e 00000042 T _ZNK3ana6region15descendent_of_pEPKS0_
0000000000acbfe0 00000046 T _ZNK3ana6region22maybe_get_frame_regionEv
0000000000acc026 00000074 T _ZNK3ana6region16get_memory_spaceEv
0000000000acc0e4 00000016 T _ZNK3ana6region14maybe_get_declEv
0000000000acc0fa 000000ac T _ZNK3ana6region32get_relative_concrete_byte_rangeEPNS_10byte_rangeE
0000000000acc1a6 00000026 T _ZNK3ana6region26symbolic_for_unknown_ptr_pEv
0000000000acc1cc 00000013 T _ZNK3ana6region10symbolic_pEv
0000000000acc1e0 00000031 T _ZNK3ana6region7empty_pEv
0000000000acc212 00000032 T _ZNK3ana6region15is_named_decl_pEPKc
0000000000acc244 0000001d T _ZNK3ana6region10non_null_pEv
0000000000acc272 00000025 T _ZN3ana11root_regionC1Ej
0000000000acc298 00000027 T _ZNK3ana11decl_region15get_stack_depthEv
0000000000acc52a 00000031 T _ZNK3ana12region_model15region_exists_pEPKNS_6regionE
0000000000acc55c 00000015 T _ZNK3ana12region_model15get_stack_depthEv
0000000000acc572 00000028 T _ZNK3ana12region_model19get_dynamic_extentsEPKNS_6regionE
0000000000acc7d4 00000011 T _ZNK3ana20region_model_manager13too_complex_pERKNS_10complexityE
0000000000acc7e6 00000134 T _ZN3ana20region_model_manager20create_unique_svalueEP9tree_node
0000000000acce62 0000003c T _ZN3ana17reachable_regionsC1EPNS_12region_modelE
0000000000accf4c 00000015 T _ZN3ana13any_pointer_pEP9tree_node
0000000000accf61 0000001c T _ZN3ana13any_pointer_pEPKNS_6svalueE
0000000000accf7e 00000055 T _ZN3ana13state_machine9add_stateEPKc
0000000000accfd4 00000018 T _ZNK3ana10sm_context20get_old_region_modelEv
0000000000accfec 00000030 T _ZNK3ana22known_function_manager15get_internal_fnE11internal_fn
0000000000acd01c 00000010 T _ZNK3ana12region_model18get_known_functionE11internal_fn
0000000000acd02c 0000002a T _ZNK3ana22known_function_manager18get_normal_builtinE17built_in_function
0000000000acd056 000000a7 T _ZNK3ana22known_function_manager9get_matchEP9tree_nodeRKNS_12call_detailsE
0000000000acd0fe 00000013 T _ZNK3ana12region_model18get_known_functionEP9tree_nodeRKNS_12call_detailsE
0000000000acd112 0000001c T _ZNK3ana22known_function_manager18get_normal_builtinEPKNS_22builtin_known_functionE
0000000000acd12e 00000035 T _ZN3ana13interesting_t19add_region_creationEPKNS_6regionE
0000000000acd1b9 00000029 T _ZN3ana20point_kind_to_stringENS_10point_kindE
0000000000acd1e2 0000002a T _ZN3ana13program_point19pop_from_call_stackEv
0000000000acd20c 00000050 T _ZNK3ana13program_point21get_function_at_depthEj
0000000000acd25c 00000104 T _ZN3ana14function_point22cmp_within_supernode_1ERKS0_S2_
0000000000acd360 00000009 T _ZN3ana14function_point20cmp_within_supernodeERKS0_S2_
0000000000acd36a 0000004c T _ZN3ana14function_point3cmpERKS0_S2_
0000000000acd3b6 00000006 T _ZN3ana14function_point7cmp_ptrEPKvS2_
0000000000acd3bc 00000048 T _ZN3ana14function_point9next_stmtEv
0000000000acd404 000000a7 T _ZNK3ana14function_point8get_nextEv
0000000000acd4ac 000000b6 T _ZNK3ana13program_point8get_nextEv
0000000000acd648 00000098 T _ZNK3ana6region25can_have_initial_svalue_pEv
0000000000acd6e0 00000087 T _ZN3ana23get_field_at_bit_offsetEP9tree_node16generic_wide_intI22fixed_wide_int_storageILi128EEE
0000000000acd768 0000004a T _ZN3ana6regionC1ENS_10complexityEjPKS0_P9tree_node
0000000000acd7b2 00000097 T _ZN3ana20region_model_manager35get_region_for_unexpected_tree_codeEPNS_20region_model_contextEP9tree_nodeRK15dump_location_t
0000000000acd84a 00000023 T _ZNK3ana14var_arg_region16get_frame_regionEv
0000000000acd982 00000027 T _ZNK3ana12region_model20get_current_functionEv
0000000000acd9aa 00000009 T _ZNK3ana13program_state20get_current_functionEv
0000000000acd9b4 00000077 T _ZNK3ana12region_model18get_frame_at_indexEi
0000000000acda2c 00000037 T _ZNK3ana12region_model18called_from_main_pEv
0000000000acdac5 00000043 T _ZN3ana19get_string_cst_sizeEPK9tree_node
0000000000acdc46 00000097 T _ZN3ana20region_model_manager24create_region_for_allocaEPKNS_12frame_regionE
0000000000acdd8c 00000058 T _ZNK3ana13state_machine17get_state_by_nameEPKc
0000000000ace52a 00000076 T _ZNK3ana13interesting_t10dump_to_ppEP14pretty_printerb
0000000000ace5a0 000000eb T _ZNK3ana13region_offset10dump_to_ppEP14pretty_printerb
0000000000ace68c 0000001f T _ZNK3ana14globals_region10dump_to_ppEP14pretty_printerb
0000000000ace6ac 0000001f T _ZNK3ana11code_region10dump_to_ppEP14pretty_printerb
0000000000ace6cc 0000001f T _ZNK3ana12stack_region10dump_to_ppEP14pretty_printerb
0000000000ace6ec 0000001f T _ZNK3ana11heap_region10dump_to_ppEP14pretty_printerb
0000000000ace70c 0000001f T _ZNK3ana11root_region10dump_to_ppEP14pretty_printerb
0000000000ace72c 0000001f T _ZNK3ana19thread_local_region10dump_to_ppEP14pretty_printerb
0000000000ace74c 0000001f T _ZNK3ana12errno_region10dump_to_ppEP14pretty_printerb
0000000000ace76c 00000011 T _ZNK3ana14unknown_region10dump_to_ppEP14pretty_printerb
0000000000ace77e 00000011 T _ZNK3ana21rejected_default_case10dump_to_ppEP14pretty_printer
0000000000ace790 00000013 T _ZNK3ana13state_machine5state10dump_to_ppEP14pretty_printer
0000000000ace7b6 00000011 T _ZN3ana18pending_diagnostic11same_tree_pEP9tree_nodeS2_
0000000000aceaca 000000be T _ZNK3ana18pending_diagnostic14fixup_locationEjb
0000000000acedea 00000097 T _ZNK3ana17reachable_regions10dump_to_ppEP14pretty_printer
0000000000acee82 000000b0 T _ZNK3ana12sized_region10dump_to_ppEP14pretty_printerb
0000000000acef32 0000002b T _ZNK3ana21heap_allocated_region10dump_to_ppEP14pretty_printerb
0000000000acef5e 0000002b T _ZNK3ana13alloca_region10dump_to_ppEP14pretty_printerb
0000000000acef8a 00000061 T _ZNK3ana14var_arg_region10dump_to_ppEP14pretty_printerb
0000000000acefec 0000002c T _ZNK3ana14private_region10dump_to_ppEP14pretty_printerb
0000000000acf018 0000005b T _ZNK3ana13state_machine10dump_to_ppEP14pretty_printer
0000000000acf074 00000076 T _ZNK3ana15extrinsic_state10dump_to_ppEP14pretty_printer
0000000000acf0ea 00000038 T _ZNK3ana14function_point12get_locationEv
0000000000acf122 000000db T _ZN3ana13program_point29effectively_intraprocedural_pERKS0_S2_
0000000000acf1fe 0000014e T _ZNK3ana6evdesc10event_desc15formatted_printEPKcz
0000000000ad0afa 0000009b T _ZNK3ana14function_point17print_source_lineEP14pretty_printer
0000000000ad0b96 0000016c T _ZNK3ana14function_point5printEP14pretty_printerRKNS_6formatE
0000000000ad0d02 00000048 T _ZNK3ana13program_point5printEP14pretty_printerRKNS_6formatE
0000000000ad0d4a 00000020 T _ZN3ana13program_point18push_to_call_stackEPKNS_9supernodeES3_
0000000000ad0d6a 0000006c T _ZN3ana12sm_state_map7entry_t3cmpERKS1_S3_
0000000000ad0dd6 000001bf T _ZN3ana12sm_state_map3cmpERKS0_S2_
0000000000ad0f95 000001ad T _ZN3analtERKNS_13region_offsetES2_
0000000000ad1142 0000000c T _ZN3anagtERKNS_13region_offsetES2_
0000000000ad114e 000001ad T _ZN3analeERKNS_13region_offsetES2_
0000000000ad12fb 0000000c T _ZN3anageERKNS_13region_offsetES2_
0000000000ad1308 00000067 T _ZN3ana12sm_state_mapC1ERKNS_13state_machineE
0000000000ad1370 000000b4 T _ZN3ana12sm_state_map26clear_all_per_svalue_stateEv
0000000000ad1826 00000020 T _ZN3ana12model_merger17on_widening_reuseEPKNS_15widening_svalueE
0000000000ad1a90 00000027 T _ZN3ana12sm_state_map15clear_any_stateEPKNS_6svalueE
0000000000ad222c 00000029 T _ZN3ana12region_model21unset_dynamic_extentsEPKNS_6regionE
0000000000ad2256 000003c7 T _ZN3ana20region_model_manager28get_or_create_unknown_svalueEP9tree_node
0000000000ad261e 00000013 T _ZNK3ana6region28get_relative_symbolic_offsetEPNS_20region_model_managerE
0000000000ad2632 0000005d T _ZN3ana20region_model_manager28maybe_fold_asm_output_svalueEP9tree_nodeRK3vecIPKNS_6svalueE7va_heap6vl_ptrE
0000000000ad2690 000003ae T _ZN3ana20region_model_manager21get_region_for_fndeclEP9tree_node
0000000000ad2a3e 000003d8 T _ZN3ana20region_model_manager20get_region_for_labelEP9tree_node
0000000000ad2e16 00000440 T _ZN3ana20region_model_manager16get_frame_regionEPKNS_12frame_regionERK8function
0000000000ad3256 0000038a T _ZN3ana20region_model_manager21get_region_for_stringEP9tree_node
0000000000ad35e0 00000426 T _ZN3ana20region_model_manager18get_var_arg_regionEPKNS_12frame_regionEj
0000000000ad3af6 00000024 T _ZNK3ana6region10involves_pEPKNS_6svalueE
0000000000ad3b52 00000085 T _ZN3ana13region_offset16make_byte_offsetEPKNS_6regionEPKNS_6svalueE
0000000000ad3bd8 0000005a T _ZNK3ana13offset_region28get_relative_concrete_offsetEP16generic_wide_intI22fixed_wide_int_storageILi128EEE
0000000000ad3df0 0000010c T _ZN3ana12sm_state_map19replay_call_summaryERNS_19call_summary_replayERKS0_
0000000000ad431c 0000004c T _ZN3ana11strip_typesERKNS_13region_offsetERNS_20region_model_managerE
0000000000ad4368 00000040 T _ZNK3ana6region13get_byte_sizeEP16generic_wide_intI22fixed_wide_int_storageILi128EEE
0000000000ad43a8 000000ae T _ZNK3ana14element_region28get_relative_concrete_offsetEP16generic_wide_intI22fixed_wide_int_storageILi128EEE
0000000000ad453c 00000086 T _ZN3ana16int_size_in_bitsEPK9tree_nodeP16generic_wide_intI22fixed_wide_int_storageILi128EEE
0000000000ad45c2 00000015 T _ZNK3ana6region12get_bit_sizeEP16generic_wide_intI22fixed_wide_int_storageILi128EEE
0000000000ad45d8 00000081 T _ZNK3ana12sized_region13get_byte_sizeEP16generic_wide_intI22fixed_wide_int_storageILi128EEE
0000000000ad465a 00000057 T _ZNK3ana12sized_region12get_bit_sizeEP16generic_wide_intI22fixed_wide_int_storageILi128EEE
0000000000ad48d0 0000000f T _ZN3ana8tree_cmpEPKvS1_
0000000000ad48e0 0000005d T _ZNK3ana12frame_region10dump_to_ppEP14pretty_printerb
0000000000ad497e 00000089 T _ZN3ana15symbolic_regionC2EjPNS_6regionEPKNS_6svalueE
0000000000ad4a08 000003e9 T _ZN3ana20region_model_manager19get_symbolic_regionEPKNS_6svalueE
0000000000ad4df2 000000e7 T _ZN3ana11decl_region14calc_tracked_pEP9tree_node
0000000000ad4eda 000000c2 T _ZNK3ana12frame_region20get_region_for_localEPNS_20region_model_managerEP9tree_nodePKNS_20region_model_contextE
0000000000ad4f9c 000000da T _ZN3ana20region_model_manager21get_region_for_globalEP9tree_node
0000000000ad5076 000000ab T _ZNK3ana16bit_range_region10dump_to_ppEP14pretty_printerb
0000000000ad5156 00000013 T _ZN3ana9dump_treeEP14pretty_printerP9tree_node
0000000000ad516a 00000099 T _ZNK3ana13string_region10dump_to_ppEP14pretty_printerb
0000000000ad5203 0000002f T _ZN3ana19print_expr_for_userEP14pretty_printerP9tree_node
0000000000ad5232 00000046 T _ZNK3ana6region20maybe_print_for_userEP14pretty_printerRKNS_12region_modelE
0000000000ad5278 0000003a T _ZN3ana16dump_quoted_treeEP14pretty_printerP9tree_node
0000000000ad52b2 00000046 T _ZNK3ana15function_region10dump_to_ppEP14pretty_printerb
0000000000ad52f8 00000049 T _ZNK3ana12label_region10dump_to_ppEP14pretty_printerb
0000000000ad5341 00000040 T _ZN3ana17print_quoted_typeEP14pretty_printerP9tree_node
0000000000ad5382 00000097 T _ZNK3ana15symbolic_region10dump_to_ppEP14pretty_printerb
0000000000ad541a 0000006b T _ZNK3ana11decl_region10dump_to_ppEP14pretty_printerb
0000000000ad5486 0000008a T _ZNK3ana12field_region10dump_to_ppEP14pretty_printerb
0000000000ad5510 000000b9 T _ZNK3ana14element_region10dump_to_ppEP14pretty_printerb
0000000000ad55ca 000000af T _ZNK3ana13offset_region10dump_to_ppEP14pretty_printerb
0000000000ad567a 000000a7 T _ZNK3ana11cast_region10dump_to_ppEP14pretty_printerb
0000000000ad5722 00000024 T _ZNK3ana12region_model4hashEv
0000000000ad5746 0000003f T _ZNK3ana13program_state4hashEv
0000000000ad5786 0000000d T _ZNK3ana12region_model8validateEv
0000000000ad5794 00000025 T _ZN3ana12region_model12canonicalizeEv
0000000000ad57ba 00000017 T _ZN3ana12region_model17loop_replay_fixupEPKS0_
0000000000ad57d2 0000001a T _ZN3ana12region_model14clobber_regionEPKNS_6regionE
0000000000ad5c48 00000079 T _ZNK3ana12region_model22check_call_format_attrERKNS_12call_detailsEP9tree_node
0000000000ad5cc2 00000054 T _ZNK3ana12region_model15check_call_argsERKNS_12call_detailsE
0000000000ad5d50 0000011f T _ZN3ana19region_to_value_mapaSERKS0_
0000000000ad5e70 00000096 T _ZNK3ana19region_to_value_mapeqERKS0_
0000000000ad5f06 0000006c T _ZNK3ana12region_modeleqERKS0_
0000000000ad5f72 0000005b T _ZNK3ana13program_stateeqERKS0_
0000000000ad5fce 0000017b T _ZNK3ana19region_to_value_map10dump_to_ppEP14pretty_printerbb
0000000000ad614a 000001b4 T _ZNK3ana12region_model10dump_to_ppEP14pretty_printerbb
0000000000ad62fe 000000aa T _ZNK3ana12model_merger10dump_to_ppEP14pretty_printerb
0000000000ad63a8 000000a0 T _ZNK3ana19region_to_value_map16can_merge_with_pERKS0_PS0_
0000000000ad6448 000000e7 T _ZN3ana19region_to_value_map21purge_state_involvingEPKNS_6svalueE
0000000000ad6530 00000067 T _ZN3ana12region_model21purge_state_involvingEPKNS_6svalueEPNS_20region_model_contextE
0000000000ad6598 0000000d T _ZNK3ana14conjured_purge5purgeEPKNS_15conjured_svalueE
0000000000ad6648 00000027 T _ZNK3ana12region_model29get_regions_for_current_frameEP8auto_vecIPKNS_11decl_regionELm0EE
0000000000ad666f 00000022 T _ZN3ana14compat_types_pEP9tree_nodeS1_
0000000000ad6783 00000009 T _ZN3ana8fragment8cmp_ptrsEPKvS2_
0000000000ad6830 0000001a T _ZN3ana12region_model12purge_regionEPKNS_6regionE
0000000000ad684a 0000002a T _ZNK3ana12region_model27compare_initial_and_pointerEPKNS_14initial_svalueEPKNS_13region_svalueE
0000000000ad68e8 00000152 T _ZNK3ana12region_model19structural_equalityEPKNS_6svalueES3_
0000000000ad6a3a 000004d0 T _ZNK3ana12region_model14eval_conditionEPKNS_6svalueE9tree_codeS3_
0000000000ad6f0a 0000009e T _ZNK3ana12region_model21symbolic_greater_thanEPKNS_12binop_svalueEPKNS_6svalueE
0000000000ad6fa8 0000002c T _ZN3ana20region_model_manager27get_unknown_symbolic_regionEP9tree_node
0000000000ad6fd4 00000437 T _ZN3ana20region_model_manager16get_field_regionEPKNS_6regionEP9tree_node
0000000000ad740c 000004dc T _ZN3ana20region_model_manager18get_element_regionEPKNS_6regionEP9tree_nodePKNS_6svalueE
0000000000ad78e8 0000042e T _ZN3ana20region_model_manager15get_cast_regionEPKNS_6regionEP9tree_node
0000000000ad7d16 0000049e T _ZN3ana20region_model_manager13get_bit_rangeEPKNS_6regionEP9tree_nodeRKNS_9bit_rangeE
0000000000ad81b4 00000283 T _ZNK3ana12region_model29get_representative_path_var_1EPKNS_6regionEP8hash_setIPKNS_6svalueELb0E19default_hash_traitsIS7_EE
0000000000ad8438 00000037 T _ZNK3ana12region_model27get_representative_path_varEPKNS_6regionEP8hash_setIPKNS_6svalueELb0E19default_hash_traitsIS7_EE
0000000000ad8470 000002a9 T _ZNK3ana12region_model29get_representative_path_var_1EPKNS_6svalueEP8hash_setIS3_Lb0E19default_hash_traitsIS3_EE
0000000000ad871a 0000004d T _ZNK3ana12region_model27get_representative_path_varEPKNS_6svalueEP8hash_setIS3_Lb0E19default_hash_traitsIS3_EE
0000000000ad8768 00000107 T _ZN3ana12region_model19replay_call_summaryERNS_19call_summary_replayERKS0_
0000000000ad8870 00000073 T _ZN3ana13program_state19replay_call_summaryERNS_19call_summary_replayERKS0_
0000000000ad88e4 0000012d T _ZN3ana17reachable_regions21mark_escaped_clustersEPNS_20region_model_contextE
0000000000ad8a12 000000e1 T _ZN3ana20region_model_manager35get_or_create_region_for_heap_allocERKP11bitmap_head
0000000000ad8cbe 00000044 T _ZN3ana13state_machineC2EPKcPNS_6loggerE
0000000000ad8d02 0000008a T _ZN3ana26make_fileptr_state_machineEPNS_6loggerE
0000000000ad8d8c 0000028b T _ZN3ana25make_malloc_state_machineEPNS_6loggerE
0000000000ad9017 00000035 T _ZN3ana31make_pattern_test_state_machineEPNS_6loggerE
0000000000ad904c 00000057 T _ZN3ana28make_sensitive_state_machineEPNS_6loggerE
0000000000ad90a3 00000057 T _ZN3ana25make_signal_state_machineEPNS_6loggerE
0000000000ad90fa 0000008a T _ZN3ana24make_taint_state_machineEPNS_6loggerE
0000000000ad9731 000001d4 T _ZN3ana21make_fd_state_machineEPNS_6loggerE
0000000000ad9905 00000148 T _ZN3ana13make_checkersER15auto_delete_vecINS_13state_machineEEPNS_6loggerE
0000000000ada1c6 000000a9 T _ZN3ana18pending_diagnostic26add_region_creation_eventsEPKNS_6regionEP9tree_nodeRKNS_14event_loc_infoERNS_12checker_pathE
0000000000ada270 000000bb T _ZN3ana18pending_diagnostic15add_final_eventEPKNS_13state_machineEPKNS_13exploded_nodeEPK6gimpleP9tree_nodePKNS1_5stateEPNS_12checker_pathE
0000000000ada39a 0000003f T _ZN3ana30region_model_context_decorator9add_eventESt10unique_ptrINS_13checker_eventESt14default_deleteIS2_EE
0000000000ada3da 00000055 T _ZN3ana18pending_diagnostic24add_function_entry_eventERKNS_13exploded_edgeEPNS_12checker_pathE
0000000000ada430 000000ad T _ZN3ana18pending_diagnostic14add_call_eventERKNS_13exploded_edgeEPNS_12checker_pathE
0000000000ada4de 0000006c T _ZNK3ana13program_point4dumpEv
0000000000ada54a 00000069 T _ZNK3ana15extrinsic_state12dump_to_fileEP8_IO_FILE
0000000000ada5b4 0000000d T _ZNK3ana15extrinsic_state4dumpEv
0000000000ada5c2 00000078 T _ZNK3ana13region_offset4dumpEb
0000000000ada63a 0000007d T _ZNK3ana6region4dumpEb
0000000000ada6b8 0000006c T _ZNK3ana6region8get_descEb
0000000000ada724 0000007d T _ZNK3ana19region_to_value_map4dumpEb
0000000000ada7a2 00000083 T _ZNK3ana12region_model4dumpEP8_IO_FILEbb
0000000000ada826 00000019 T _ZNK3ana12region_model4dumpEb
0000000000ada840 0000001a T _ZNK3ana12region_model5debugEv
0000000000ada85a 00000017 T _Z5debugRKN3ana12region_modelE
0000000000ada872 0000006f T _ZNK3ana12model_merger4dumpEP8_IO_FILEb
0000000000ada8e2 00000014 T _ZNK3ana12model_merger4dumpEb
0000000000ada8f6 000000d3 T _ZN3ana20region_model_manager21reject_if_too_complexEPNS_6svalueE
0000000000ada9ca 000004c4 T _ZN3ana20region_model_manager29get_or_create_constant_svalueEP9tree_nodeS2_
0000000000adae8e 00000010 T _ZN3ana20region_model_manager29get_or_create_constant_svalueEP9tree_node
0000000000adae9e 00000055 T _ZN3ana12sm_state_map19canonicalize_svalueEPKNS_6svalueERKNS_15extrinsic_stateE
0000000000adaef4 00000057 T _ZNK3ana12sm_state_map10get_originEPKNS_6svalueERKNS_15extrinsic_stateE
0000000000adaf4c 0000006a T _ZNK3ana6region18get_byte_size_svalEPNS_20region_model_managerE
0000000000adafb6 00000230 T _ZNK3ana6region26get_subregions_for_bindingEPNS_20region_model_managerE16generic_wide_intI22fixed_wide_int_storageILi128EEES6_P9tree_nodeP8auto_vecIPKS0_Lm0EE
0000000000adb1e6 00000088 T _ZNK3ana12field_region28get_relative_symbolic_offsetEPNS_20region_model_managerE
0000000000adb26e 0000007b T _ZNK3ana16bit_range_region28get_relative_symbolic_offsetEPNS_20region_model_managerE
0000000000adb2ea 0000017e T _ZN3ana12region_model26add_constraints_from_binopEPKNS_6svalueE9tree_codeS3_PbPNS_20region_model_contextE
0000000000adb468 00000171 T _ZN3ana12region_model14add_constraintEPKNS_6svalueE9tree_codeS3_PNS_20region_model_contextE
0000000000adb5da 0000005d T _ZN3ana20region_model_manager21get_or_create_int_cstEP9tree_nodeRK8poly_intILj1E16generic_wide_intI20wide_int_ref_storageILb0ELb1EEEE
0000000000adb638 00000062 T _ZNK3ana13region_offset25calc_symbolic_byte_offsetEPNS_20region_model_managerE
0000000000adb69a 00000076 T _ZNK3ana6region17get_bit_size_svalEPNS_20region_model_managerE
0000000000adb710 00000093 T _ZNK3ana16bit_range_region18get_byte_size_svalEPNS_20region_model_managerE
0000000000adb7a4 00000039 T _ZNK3ana16bit_range_region17get_bit_size_svalEPNS_20region_model_managerE
0000000000adb7de 00000069 T _ZN3ana20region_model_manager22get_or_create_null_ptrEP9tree_node
0000000000adb8a4 000000c3 T _ZN3ana20region_model_manager30maybe_get_char_from_string_cstEP9tree_nodeS2_
0000000000adb968 0000047d T _ZN3ana20region_model_manager27get_or_create_setjmp_svalueERKNS_13setjmp_recordEP9tree_node
0000000000adbde6 00000417 T _ZN3ana20region_model_manager29get_or_create_poisoned_svalueENS_11poison_kindEP9tree_node
0000000000adc1fe 00000107 T _ZN3ana12region_model34poison_any_pointers_to_descendentsEPKNS_6regionENS_11poison_kindE
0000000000adc306 0000016e T _ZN3ana12region_model29unbind_region_and_descendentsEPKNS_6regionENS_11poison_kindE
0000000000adc474 0000043e T _ZN3ana20region_model_manager14get_ptr_svalueEP9tree_nodePKNS_6regionE
0000000000adc8b2 00000538 T _ZN3ana20region_model_manager19get_or_create_binopEP9tree_node9tree_codePKNS_6svalueES6_
0000000000adcdea 00000086 T _ZNK3ana13region_offset24calc_symbolic_bit_offsetEPNS_20region_model_managerE
0000000000adce70 00000186 T _ZNK3ana6region11calc_offsetEPNS_20region_model_managerE
0000000000adcff6 00000055 T _ZNK3ana6region10get_offsetEPNS_20region_model_managerE
0000000000add04c 000000dc T _ZNK3ana6region15get_next_offsetEPNS_20region_model_managerE
0000000000add128 0000007f T _ZNK3ana14element_region28get_relative_symbolic_offsetEPNS_20region_model_managerE
0000000000add1a8 00000057 T _ZNK3ana13offset_region14get_bit_offsetEPNS_20region_model_managerE
0000000000add200 00000057 T _ZNK3ana12sized_region17get_bit_size_svalEPNS_20region_model_managerE
0000000000add258 0000033c T _ZN3ana20region_model_manager18maybe_fold_unaryopEP9tree_node9tree_codePKNS_6svalueE
0000000000add594 000004a1 T _ZN3ana20region_model_manager21get_or_create_unaryopEP9tree_node9tree_codePKNS_6svalueE
0000000000adda36 0000005d T _ZN3ana20region_model_manager18get_or_create_castEP9tree_nodePKNS_6svalueE
0000000000adda94 000004bf T _ZN3ana20region_model_manager27get_or_create_initial_valueEPKNS_6regionEb
0000000000addf54 0000010e T _ZNK3ana12sm_state_map9get_stateEPKNS_6svalueERKNS_15extrinsic_stateE
0000000000ade0c8 0000008a T _ZNK3ana13program_state23can_purge_base_region_pERKNS_15extrinsic_stateEPKNS_6regionE
0000000000ade152 0000004c T _ZNK3ana12model_merger18mergeable_svalue_pEPKNS_6svalueE
0000000000ade19e 0000018d T _ZN3ana12sm_state_map14impl_set_stateEPKNS_6svalueEPKNS_13state_machine5stateES3_RKNS_15extrinsic_stateE
0000000000ade32c 0000006f T _ZN3ana12sm_state_map9set_stateERKNS_11equiv_classEPKNS_13state_machine5stateEPKNS_6svalueERKNS_15extrinsic_stateE
0000000000ade39c 0000008f T _ZN3ana12sm_state_map9set_stateEPNS_12region_modelEPKNS_6svalueEPKNS_13state_machine5stateES5_RKNS_15extrinsic_stateE
0000000000ade42c 00000063 T _ZN3ana12region_model16mark_as_valid_fdEPKNS_6svalueEPNS_20region_model_contextE
0000000000ade490 000000e4 T _ZN3ana12region_model20on_realloc_with_moveERKNS_12call_detailsEPKNS_6svalueES6_
0000000000ade574 000000b8 T _ZN3ana12region_model28transition_ptr_sval_non_nullEPNS_20region_model_contextEPKNS_6svalueE
0000000000ade62c 000000e0 T _ZN3ana12region_model15mark_as_taintedEPKNS_6svalueEPNS_20region_model_contextE
0000000000ade70c 00000072 T _ZN3ana12sm_state_map14on_svalue_leakEPKNS_6svalueEPNS_25impl_region_model_contextE
0000000000ade8dc 0000009e T _ZN3ana20region_model_context18possibly_tainted_pEPKNS_6svalueE
0000000000ade97a 00000207 T _ZN3ana20region_model_manager21maybe_fold_sub_svalueEP9tree_nodePKNS_6svalueEPKNS_6regionE
0000000000adeb82 000000de T _ZN3ana20region_model_manager26maybe_fold_repeated_svalueEP9tree_nodePKNS_6svalueES5_
0000000000adec60 000004fc T _ZN3ana20region_model_manager16get_sized_regionEPKNS_6regionEP9tree_nodePKNS_6svalueE
0000000000adf15c 0000017a T _ZN3ana20region_model_manager37maybe_undo_optimize_bit_field_compareEP9tree_nodePKNS_15compound_svalueES2_PKNS_6svalueE
0000000000adf2d6 00000770 T _ZN3ana20region_model_manager16maybe_fold_binopEP9tree_node9tree_codePKNS_6svalueES6_
0000000000adfa46 0000052d T _ZN3ana20region_model_manager17get_offset_regionEPKNS_6regionEP9tree_nodePKNS_6svalueE
0000000000adff74 000003b9 T _ZN3ana20region_model_manager25get_or_create_unmergeableEPKNS_6svalueE
0000000000ae032e 0000050d T _ZN3ana20region_model_manager29get_or_create_widening_svalueEP9tree_nodeRKNS_14function_pointEPKNS_6svalueES8_
0000000000ae083c 0000049e T _ZN3ana20region_model_manager29get_or_create_conjured_svalueEP9tree_nodePK6gimplePKNS_6regionERKNS_14conjured_purgeEj
0000000000ae0cda 000001d7 T _ZN3ana20region_model_manager31get_or_create_asm_output_svalueEP9tree_nodePK4gasmjRK3vecIPKNS_6svalueE7va_heap6vl_ptrE
0000000000ae0eb2 000001c7 T _ZN3ana20region_model_manager31get_or_create_asm_output_svalueEP9tree_nodePKcjjRK3vecIPKNS_6svalueE7va_heap6vl_ptrE
0000000000ae107a 000005da T _ZN3ana20region_model_manager36get_or_create_const_fn_result_svalueEP9tree_nodeS2_RK3vecIPKNS_6svalueE7va_heap6vl_ptrE
0000000000ae1654 00000066 T _ZNK3ana17reachable_regions4dumpEv
0000000000ae1a06 0000004f T _ZNK3ana6region7to_jsonEv
0000000000ae1b1e 00000060 T _ZNK3ana13state_machine5state7to_jsonEv
0000000000ae1b7e 0000012e T _ZNK3ana13program_point7to_jsonEv
0000000000ae1cac 000000e8 T _ZNK3ana12sm_state_map7to_jsonEv
0000000000ae1d94 0000014b T _ZNK3ana13program_state7to_jsonERKNS_15extrinsic_stateE
0000000000ae1ee0 0000011d T _ZNK3ana19region_to_value_map7to_jsonEv
0000000000ae1ffe 0000009b T _ZNK3ana12region_model7to_jsonEv
0000000000ae209a 000000bd T _ZNK3ana13state_machine7to_jsonEv
0000000000ae2158 00000096 T _ZNK3ana15extrinsic_state7to_jsonEv
0000000000ae21ee 000001e3 T _ZN3ana13program_point7on_edgeERNS_14exploded_graphEPKNS_9superedgeE
0000000000ae2710 00000299 T _ZNK3ana13store_manager9log_statsEPNS_6loggerEb
0000000000ae29aa 000003fa T _ZN3ana12sm_state_map18on_liveness_changeERK8hash_setIPKNS_6svalueELb0E19default_hash_traitsIS4_EEPKNS_12region_modelERKNS_15extrinsic_stateEPNS_25impl_region_model_contextE
0000000000ae2da4 0000015b T _ZN3ana12sm_state_map17on_unknown_changeEPKNS_6svalueEbRKNS_15extrinsic_stateE
0000000000ae2f00 00000140 T _ZN3ana12sm_state_map21purge_state_involvingEPKNS_6svalueERKNS_15extrinsic_stateE
0000000000ae3040 00000240 T _ZNK3ana12sm_state_map16can_merge_with_pERKS0_RKNS_13state_machineERKNS_15extrinsic_stateEPPS0_
0000000000ae32ac 00000061 T _ZN3ana12region_model22mark_region_as_unknownEPKNS_6regionEPNS_13uncertainty_tE
0000000000ae330e 0000005a T _ZNK3ana12region_model23get_representative_treeEPKNS_6svalueE
0000000000ae3368 00000349 T _ZNK3ana12sm_state_map5printEPKNS_12region_modelEbbP14pretty_printer
0000000000ae36b2 0000007f T _ZNK3ana12sm_state_map4dumpEb
0000000000ae3732 000000dc T _ZNK3ana13program_state5printERKNS_15extrinsic_stateEP14pretty_printer
0000000000ae380e 000001a9 T _ZNK3ana13program_state10dump_to_ppERKNS_15extrinsic_stateEbbP14pretty_printer
0000000000ae39b8 0000008f T _ZNK3ana13program_state12dump_to_fileERKNS_15extrinsic_stateEbbP8_IO_FILE
0000000000ae3a48 00000018 T _ZNK3ana13program_state4dumpERKNS_15extrinsic_stateEb
0000000000ae3a60 00000026 T _ZNK3ana13program_state23get_representative_treeEPKNS_6svalueE
0000000000ae3a86 0000005a T _ZNK3ana12region_model23get_representative_treeEPKNS_6regionE
0000000000ae3ae0 00000164 T _ZNK3ana12region_model16can_merge_with_pERKS0_RKNS_13program_pointEPS0_PKNS_15extrinsic_stateEPKNS_13program_stateESC_
0000000000ae3c44 000000d2 T _ZNK3ana13program_state16can_merge_with_pERKS0_RKNS_15extrinsic_stateERKNS_13program_pointEPS0_
0000000000ae3e0e 000000ce T _ZN3ana13program_state29impl_call_analyzer_dump_stateEPK5gcallRKNS_15extrinsic_stateEPNS_20region_model_contextE
0000000000ae3f16 0000008b T _ZN3ana12frame_regionD1Ev
0000000000ae3fa2 0000001b T _ZN3ana12frame_regionD0Ev
0000000000ae3fbe 00000052 T _ZNK3ana12frame_region22dump_untracked_regionsEv
0000000000ae4010 000000a6 T _ZNK3ana20region_model_manager22dump_untracked_regionsEv
0000000000ae4164 00001e8d T _ZNK3ana20region_model_manager9log_statsEPNS_6loggerEb
0000000000ae5ff2 00000012 T _ZNK3ana6engine9log_statsEPNS_6loggerE
0000000000ae628a 00000096 T _ZN3ana12region_modelC2EPNS_20region_model_managerE
0000000000ae6320 000000b7 T _ZN3ana13program_stateC2ERKNS_15extrinsic_stateE
0000000000ae63d8 00000081 T _ZN3ana12region_modelaSERKS0_
0000000000ae645a 000000b5 T _ZN3ana12region_modelC1ERKS0_
0000000000ae6510 00000083 T _ZN3ana13program_stateC2ERKS0_
0000000000ae6594 00000037 T _ZN3ana12region_modelD1Ev
0000000000ae65cc 00000112 T _ZN3ana13program_stateaSERKS0_
0000000000ae66de 0000007c T _ZN3ana13program_stateD1Ev
0000000000ae675a 00000044 T _ZNK3ana12region_model15canonicalized_pEv
0000000000ae6852 00000188 T _ZNK3ana12region_model12deref_rvalueEPKNS_6svalueEP9tree_nodePNS_20region_model_contextEb
0000000000ae69da 00000116 T _ZNK3ana12region_model25check_for_writable_regionEPKNS_6regionEPNS_20region_model_contextE
0000000000ae6af0 000000a2 T _ZNK3ana12region_model29check_dynamic_size_for_floatsEPKNS_6svalueEPNS_20region_model_contextE
0000000000ae6b92 00000127 T _ZN3ana12region_model29maybe_complain_about_infoleakEPKNS_6regionEPKNS_6svalueES3_PNS_20region_model_contextE
0000000000ae796a 00000415 T _ZNK3ana12region_model22check_region_for_taintEPKNS_6regionENS_16access_directionEPNS_20region_model_contextE
0000000000ae7d80 0000007b T _ZNK3ana12region_model19check_region_accessEPKNS_6regionENS_16access_directionEPKNS_6svalueEPNS_20region_model_contextE
0000000000ae7dfc 00000014 T _ZNK3ana12region_model22check_region_for_writeEPKNS_6regionEPKNS_6svalueEPNS_20region_model_contextE
0000000000ae7e10 00000010 T _ZNK3ana12region_model21check_region_for_readEPKNS_6regionEPNS_20region_model_contextE
0000000000ae7e20 0000003d T _ZN3ana12region_model11fill_regionEPKNS_6regionEPKNS_6svalueEPNS_20region_model_contextE
0000000000ae7e5e 00000035 T _ZN3ana12region_model16zero_fill_regionEPKNS_6regionEPNS_20region_model_contextE
0000000000ae7e94 000001a2 T _ZNK3ana12region_model28check_dynamic_size_for_taintENS_12memory_spaceEPKNS_6svalueEPNS_20region_model_contextE
0000000000ae8036 0000006a T _ZN3ana12region_model19set_dynamic_extentsEPKNS_6regionEPKNS_6svalueEPNS_20region_model_contextE
0000000000ae80a0 00000054 T _ZN3ana12region_model24create_region_for_allocaEPKNS_6svalueEPNS_20region_model_contextE
0000000000ae8b38 00000c82 T _ZN3ana20region_model_managerC1EPNS_6loggerE
0000000000ae97ba 00000017 T _ZN3ana6engineC1EPKNS_10supergraphEPNS_6loggerE
0000000000ae97d2 00000e96 T _ZN3ana20region_model_managerD1Ev
0000000000aea668 00000463 T _ZN3ana20region_model_manager24get_or_create_sub_svalueEP9tree_nodePKNS_6svalueEPKNS_6regionE
0000000000aeaacc 00000463 T _ZN3ana20region_model_manager29get_or_create_repeated_svalueEP9tree_nodePKNS_6svalueES5_
0000000000aeaf30 00000487 T _ZN3ana20region_model_manager25get_or_create_bits_withinEP9tree_nodeRKNS_9bit_rangeEPKNS_6svalueE
0000000000aeb3b8 0000059d T _ZN3ana20region_model_manager29maybe_fold_bits_within_svalueEP9tree_nodeRKNS_9bit_rangeEPKNS_6svalueE
0000000000aeb956 0000041d T _ZN3ana20region_model_manager29get_or_create_compound_svalueEP9tree_nodeRKNS_11binding_mapE
0000000000aebd74 0000006d T _ZNK3ana11decl_region27calc_svalue_for_constructorEP9tree_nodePNS_20region_model_managerE
0000000000aebde2 0000005c T _ZNK3ana11decl_region26get_svalue_for_constructorEP9tree_nodePNS_20region_model_managerE
0000000000aebe3e 00000031 T _ZNK3ana11decl_region24maybe_get_constant_valueEPNS_20region_model_managerE
0000000000aebe70 0000011e T _ZNK3ana11decl_region26get_svalue_for_initializerEPNS_20region_model_managerE
0000000000aebf8e 0000010c T _ZNK3ana6region26calc_initial_value_at_mainEPNS_20region_model_managerE
0000000000aec09a 0000001d T _ZNK3ana6region25get_initial_value_at_mainEPNS_20region_model_managerE
0000000000aec0b8 0000009b T _ZNK3ana12region_model28get_initial_value_for_globalEPKNS_6regionE
0000000000aec154 0000017f T _ZNK3ana12region_model15get_store_valueEPKNS_6regionEPNS_20region_model_contextE
0000000000aec2d4 00000088 T _ZN3ana12region_model25update_for_nonzero_returnERKNS_12call_detailsE
0000000000aec35c 00000031 T _ZNK3ana12region_model19get_rvalue_for_bitsEP9tree_nodePKNS_6regionERKNS_9bit_rangeEPNS_20region_model_contextE
0000000000aec38e 000002e3 T _ZNK3ana12region_model12get_rvalue_1ENS_8path_varEPNS_20region_model_contextE
0000000000aec672 00000035 T _ZNK3ana12region_model10get_rvalueENS_8path_varEPNS_20region_model_contextE
0000000000aec6a8 00000039 T _ZNK3ana12region_model10get_rvalueEP9tree_nodePNS_20region_model_contextE
0000000000aec766 00000150 T _ZNK3ana12region_model26check_function_attr_accessEPK5gcallP9tree_nodePNS_20region_model_contextER8hash_mapI16rdwr_access_hash11attr_access21simple_hashmap_traitsI19default_hash_traitsIS9_ESA_EE
0000000000aec8b6 000002f5 T _ZNK3ana12region_model12get_lvalue_1ENS_8path_varEPNS_20region_model_contextE
0000000000aecbac 00000011 T _ZNK3ana12region_model10get_lvalueENS_8path_varEPNS_20region_model_contextE
0000000000aecbbe 00000044 T _ZNK3ana12region_model10get_lvalueEP9tree_nodePNS_20region_model_contextE
0000000000aecc02 000004be T _ZN3ana12region_model18get_gassign_resultEPK7gassignPNS_20region_model_contextE
0000000000aed0c0 00000031 T _ZNK3ana12region_model28get_region_for_poisoned_exprEP9tree_node
0000000000aed0f2 00000288 T _ZNK3ana12region_model16check_for_poisonEPKNS_6svalueEP9tree_nodePKNS_6regionEPNS_20region_model_contextE
0000000000aed37a 00000092 T _ZN3ana12region_model18on_top_level_paramEP9tree_nodebPNS_20region_model_contextE
0000000000aed40c 000000c6 T _ZNK3ana12region_model12get_capacityEPKNS_6regionE
0000000000aed4d2 000000cb T _ZN3ana12region_model21maybe_get_copy_boundsEPKNS_6regionEPKNS_6svalueE
0000000000aed59e 00000435 T _ZNK3ana12region_model17check_region_sizeEPKNS_6regionEPKNS_6svalueEPNS_20region_model_contextE
0000000000aed9d4 000000bf T _ZN3ana12region_model9set_valueEPKNS_6regionEPKNS_6svalueEPNS_20region_model_contextE
0000000000aeda94 0000026c T _ZN3ana12region_model13on_assignmentEPK7gassignPNS_20region_model_contextE
0000000000aedd00 00000080 T _ZN3ana12region_model25update_for_int_cst_returnERKNS_12call_detailsEib
0000000000aedd80 0000000e T _ZN3ana12region_model22update_for_zero_returnERKNS_12call_detailsEb
0000000000aeddcc 00000071 T _ZN3ana12region_model9on_returnEPK7greturnPNS_20region_model_contextE
0000000000aede3e 000000e8 T _ZN3ana12region_model9on_setjmpEPK5gcallPKNS_13exploded_nodeEPNS_20region_model_contextE
0000000000aedf26 000000e2 T _ZN3ana12region_model10handle_phiEPK4gphiP9tree_nodeS5_RKS0_R8hash_setIPKNS_6svalueELb0E19default_hash_traitsISB_EEPNS_20region_model_contextE
0000000000aee008 00000101 T _ZN3ana12region_model15update_for_phisEPKNS_9supernodeEPKNS_13cfg_superedgeEPNS_20region_model_contextE
0000000000aee10a 00000033 T _ZN3ana12region_model11write_bytesEPKNS_6regionEPKNS_6svalueES6_PNS_20region_model_contextE
0000000000aee13e 0000016b T _ZN3ana12region_model10push_frameERK8functionPK3vecIPKNS_6svalueE7va_heap6vl_ptrEPNS_20region_model_contextE
0000000000aee2aa 00000013 T _ZN3ana13program_state10push_frameERKNS_15extrinsic_stateERK8function
0000000000aee370 000000aa T _ZN3ana12region_model9set_errnoERKNS_12call_detailsE
0000000000aeec12 00000078 T _ZN3ana12region_model9set_valueEP9tree_nodeS2_PNS_20region_model_contextE
0000000000aeec8a 0000009a T _ZN3ana12region_model14add_constraintEP9tree_node9tree_codeS2_PNS_20region_model_contextE
0000000000aeed24 00000093 T _ZN3ana12region_model14add_constraintEP9tree_node9tree_codeS2_PNS_20region_model_contextEPSt10unique_ptrINS_19rejected_constraintESt14default_deleteIS7_EE
0000000000aeedb8 00000087 T _ZN3ana12region_model27apply_constraints_for_gcondERKNS_13cfg_superedgeEPK5gcondPNS_20region_model_contextEPSt10unique_ptrINS_19rejected_constraintESt14default_deleteISA_EE
0000000000aeee40 00000099 T _ZNK3ana12region_model14eval_conditionEP9tree_node9tree_codeS2_PNS_20region_model_contextE
0000000000aef326 000003e1 T _ZN3ana12region_model29apply_constraints_for_gswitchERKNS_20switch_cfg_superedgeEPK7gswitchPNS_20region_model_contextEPSt10unique_ptrINS_19rejected_constraintESt14default_deleteISA_EE
0000000000aef708 00000083 T _ZN3ana12region_model27apply_constraints_for_ggotoERKNS_13cfg_superedgeEPK5ggotoPNS_20region_model_contextE
0000000000aef78c 0000016a T _ZN3ana12region_model9pop_frameEP9tree_nodePPKNS_6svalueEPNS_20region_model_contextEb
0000000000aef8f6 0000017d T _ZN3ana12region_model10on_longjmpEPK5gcallS3_iPNS_20region_model_contextE
0000000000aefa74 00000018 T _ZN3ana12region_model23update_for_return_gcallEPK5gcallPNS_20region_model_contextE
0000000000aefa8c 000000d8 T _ZN3ana13program_state14returning_callERNS_14exploded_graphEPNS_13exploded_nodeEPK5gcallPNS_13uncertainty_tE
0000000000aefb64 00000030 T _ZN3ana12region_model27update_for_return_superedgeERKNS_16return_superedgeEPNS_20region_model_contextE
0000000000aefb94 00000060 T _ZN3ana12region_model19get_fndecl_for_callEPK5gcallPNS_20region_model_contextE
0000000000aefbf4 00000070 T _ZNK3ana12region_model14get_builtin_kfEPK5gcallPNS_20region_model_contextE
0000000000af045c 000000ec T _ZN3ana12region_model11on_call_preEPK5gcallPNS_20region_model_contextE
0000000000af0548 000000c9 T _ZN3ana12region_model16update_for_gcallEPK5gcallPNS_20region_model_contextEP8function
0000000000af0612 000000da T _ZN3ana13program_state9push_callERNS_14exploded_graphEPNS_13exploded_nodeEPK5gcallPNS_13uncertainty_tE
0000000000af06ec 00000040 T _ZN3ana12region_model25update_for_call_superedgeERKNS_14call_superedgeEPNS_20region_model_contextE
0000000000af072c 000000ab T _ZN3ana12region_model31apply_constraints_for_exceptionEPK6gimplePNS_20region_model_contextEPSt10unique_ptrINS_19rejected_constraintESt14default_deleteIS7_EE
0000000000af07d8 000000dc T _ZN3ana12region_model21maybe_update_for_edgeERKNS_9superedgeEPK6gimplePNS_20region_model_contextEPSt10unique_ptrINS_19rejected_constraintESt14default_deleteISA_EE
0000000000af08b4 000000a1 T _ZNK3ana22rejected_op_constraint10dump_to_ppEP14pretty_printer
0000000000af0956 00000072 T _ZNK3ana26rejected_ranges_constraint10dump_to_ppEP14pretty_printer
0000000000af265e 00000110 T _ZNK3ana12region_model15get_store_bytesEPKNS_6regionERKNS_10byte_rangeEPNS_20region_model_contextE
0000000000af276e 0000007c T _ZNK3ana12region_model10read_bytesEPKNS_6regionEP9tree_nodePKNS_6svalueEPNS_20region_model_contextE
0000000000af27ea 00000044 T _ZN3ana12region_model10copy_bytesEPKNS_6regionES3_P9tree_nodePKNS_6svalueEPNS_20region_model_contextE
0000000000af282e 00000145 T _ZN3ana17reachable_regions3addEPKNS_6regionEb
0000000000af2974 00000110 T _ZNK3ana12region_model27get_referenced_base_regionsER11auto_bitmap
0000000000af2a84 00000129 T _ZN3ana12region_model35get_or_create_region_for_heap_allocEPKNS_6svalueEPNS_20region_model_contextEbPKNS_12call_detailsE
0000000000af2bae 000000f3 T _ZN3ana17reachable_regions12init_clusterEPKNS_6regionE
0000000000af2ca2 0000000c T _ZN3ana17reachable_regions15init_cluster_cbEPKNS_6regionEPS0_
0000000000af2cae 00000152 T _ZN3ana17reachable_regions11handle_svalEPKNS_6svalueE
0000000000af2e00 00000179 T _ZN3ana12region_model21get_reachable_svaluesEP8hash_setIPKNS_6svalueELb0E19default_hash_traitsIS4_EES4_PKNS_13uncertainty_tE
0000000000af2f7a 000002e9 T _ZN3ana13program_state12detect_leaksERKS0_S2_PKNS_6svalueERKNS_15extrinsic_stateEPNS_20region_model_contextE
0000000000af3264 00000199 T _ZN3ana13program_state7on_edgeERNS_14exploded_graphEPNS_13exploded_nodeEPKNS_9superedgeEPNS_13uncertainty_tE
0000000000af33fe 000003c9 T _ZNK3ana13program_state15prune_for_pointERNS_14exploded_graphERKNS_13program_pointEPNS_13exploded_nodeEPNS_13uncertainty_tE
0000000000af37c8 000006bf T _ZN3ana12region_model11on_asm_stmtEPK4gasmPNS_20region_model_contextE
0000000000af3e88 0000007e T _ZN3ana12region_model11on_stmt_preEPK6gimplePbPNS_20region_model_contextE
0000000000af3f06 0000000c T _ZN3ana17reachable_regions14handle_sval_cbEPKNS_6svalueEPS0_
0000000000af3f12 000000f0 T _ZN3ana17reachable_regions11handle_parmEPKNS_6svalueEP9tree_node
0000000000af4ac8 00000d23 T _ZNK3ana12region_model26scan_for_null_terminator_1EPKNS_6regionEP9tree_nodePPKNS_6svalueEPNS_20region_model_contextE
0000000000af57ec 0000015d T _ZNK3ana12region_model24scan_for_null_terminatorEPKNS_6regionEP9tree_nodePPKNS_6svalueEPNS_20region_model_contextE
0000000000af594a 000000f3 T _ZNK3ana12region_model36check_for_null_terminated_string_argERKNS_12call_detailsEjbPPKNS_6svalueE
0000000000af5a3e 00000193 T _ZN3ana12region_model50check_one_function_attr_null_terminated_string_argEPK5gcallP9tree_nodePNS_20region_model_contextER8hash_mapI16rdwr_access_hash11attr_access21simple_hashmap_traitsI19default_hash_traitsIS9_ESA_EES5_
0000000000af5bd2 000000cb T _ZN3ana12region_model46check_function_attr_null_terminated_string_argEPK5gcallP9tree_nodePNS_20region_model_contextER8hash_mapI16rdwr_access_hash11attr_access21simple_hashmap_traitsI19default_hash_traitsIS9_ESA_EE
0000000000af5c9e 000000d2 T _ZN3ana12region_model20check_function_attrsEPK5gcallP9tree_nodePNS_20region_model_contextE
0000000000af5d70 00000294 T _ZN3ana12region_model24handle_unrecognized_callEPK5gcallPNS_20region_model_contextE
0000000000af6004 000000d1 T _ZN3ana12region_model12on_call_postEPK5gcallbPNS_20region_model_contextE
0000000000af60d6 0000000e T _ZNK3ana12region_model36check_for_null_terminated_string_argERKNS_12call_detailsEj
0000000000af60e4 00000497 T _ZN3ana29register_known_file_functionsERNS_22known_function_managerE
0000000000af657b 000001d7 T _ZN3ana27register_known_fd_functionsERNS_22known_function_managerE
0000000000af6f30 00000030 T _ZN3ana16symbolic_binding11cmp_ptr_ptrEPKvS2_
0000000000af6f6c 00000007 T _ZNK3ana6svalue17implicitly_live_pEPK8hash_setIPKS0_Lb0E19default_hash_traitsIS3_EEPKNS_12region_modelE
0000000000af6f84 00000028 T _ZNK3ana13region_svalue6acceptEPNS_7visitorE
0000000000af6fac 00000016 T _ZNK3ana15constant_svalue6acceptEPNS_7visitorE
0000000000af6fc2 00000016 T _ZNK3ana14unknown_svalue6acceptEPNS_7visitorE
0000000000af6fd8 00000016 T _ZNK3ana15poisoned_svalue6acceptEPNS_7visitorE
0000000000af6fee 00000029 T _ZNK3ana14initial_svalue6acceptEPNS_7visitorE
0000000000af7018 0000002c T _ZNK3ana14unaryop_svalue6acceptEPNS_7visitorE
0000000000af7044 0000003c T _ZNK3ana12binop_svalue6acceptEPNS_7visitorE
0000000000af7080 00000039 T _ZNK3ana10sub_svalue6acceptEPNS_7visitorE
0000000000af70ba 0000002c T _ZNK3ana15repeated_svalue6acceptEPNS_7visitorE
0000000000af70e6 00000011 T _ZNK3ana15repeated_svalue12all_zeroes_pEv
0000000000af70f8 0000002c T _ZNK3ana18bits_within_svalue6acceptEPNS_7visitorE
0000000000af7124 0000003c T _ZNK3ana15widening_svalue6acceptEPNS_7visitorE
0000000000af7160 00000016 T _ZNK3ana18placeholder_svalue6acceptEPNS_7visitorE
0000000000af7176 0000002c T _ZNK3ana18unmergeable_svalue6acceptEPNS_7visitorE
0000000000af71a2 00000029 T _ZNK3ana15conjured_svalue6acceptEPNS_7visitorE
0000000000af71cc 00000046 T _ZNK3ana17asm_output_svalue6acceptEPNS_7visitorE
0000000000af7212 00000046 T _ZNK3ana22const_fn_result_svalue6acceptEPNS_7visitorE
0000000000af7388 0000001f T _Z17ix86_builtin_decljb
0000000000af73b2 00000018 T _Z34linux_fortify_source_default_levelv
0000000000af79b6 0000007e T _ZNK3ana15compound_svalue6acceptEPNS_7visitorE
0000000000af7df8 0000000c T _ZNK3ana13cfg_superedge15get_phi_arg_idxEv
0000000000af7e04 0000007f T _ZN3ana20state_purge_per_declC2ERKNS_15state_purge_mapEP9tree_nodeRK8function
0000000000af7e84 0000000d T _ZN3ana20state_purge_per_decl13add_needed_atERKNS_14function_pointE
0000000000af7e92 0000000d T _ZN3ana20state_purge_per_decl17add_pointed_to_atERKNS_14function_pointE
0000000000af8024 000000b4 T _ZN3ana11binding_key3cmpEPKS0_S2_
0000000000af80d8 0000000f T _ZN3ana11binding_key8cmp_ptrsEPKvS2_
0000000000af80e8 000001cf T _ZNK3ana9bit_range12intersects_pERKS0_P16generic_wide_intI22fixed_wide_int_storageILi128EEE
0000000000af82b8 00000043 T _ZNK3ana9bit_rangemiE16generic_wide_intI22fixed_wide_int_storageILi128EEE
0000000000af82fc 00000261 T _ZNK3ana9bit_range12intersects_pERKS0_PS0_S3_
0000000000af855e 000000c3 T _ZN3ana9bit_range9from_maskEmPS0_
0000000000af8622 000000d4 T _ZNK3ana9bit_range13as_byte_rangeEPNS_10byte_rangeE
0000000000af86f6 000000ac T _ZNK3ana10byte_range10contains_pERKS0_PS0_
0000000000af87a2 0000002b T _ZN3ana10byte_range3cmpERKS0_S2_
0000000000af87ce 00000006 T _ZN3ana9bit_range3cmpERKS0_S2_
0000000000af87d4 00000014 T _ZN3ana16concrete_binding11cmp_ptr_ptrEPKvS2_
0000000000af87e8 00000088 T _ZNK3ana16concrete_binding10overlaps_pERKS0_
0000000000af8870 0000000d T _ZNK3ana16concrete_binding14get_byte_rangeEPNS_10byte_rangeE
0000000000af887e 0000000b T _ZN3ana6symbol7cmp_idsEPKS0_S2_
0000000000af888a 00000079 T _ZN3ana11binding_mapC2ERKS0_
0000000000af8904 000000a6 T _ZNK3ana11binding_mapeqERKS0_
0000000000af89aa 00000087 T _ZNK3ana11binding_map4hashEv
0000000000af8a32 000000ab T _ZN3ana11binding_map24get_overlapping_bindingsEPKNS_11binding_keyEP8auto_vecIS3_Lm0EE
0000000000af8ade 0000002e T _ZN3ana15binding_clusterC1ERKS0_
0000000000af8b0c 0000003e T _ZNK3ana15binding_clustereqERKS0_
0000000000af8b4a 0000000d T _ZNK3ana15binding_cluster4hashEv
0000000000af8b58 00000016 T _ZNK3ana15binding_cluster10symbolic_pEv
0000000000af8b6e 00000009 T _ZN3ana15binding_cluster15mark_as_escapedEv
0000000000af8b78 0000001f T _ZNK3ana15binding_cluster9escaped_pEv
0000000000af8b98 0000001d T _ZNK3ana15binding_cluster11redundant_pEv
0000000000af8bb6 00000028 T _ZNK3ana15binding_cluster13get_any_valueEPKNS_11binding_keyE
0000000000af8bde 0000000b T _ZNK3ana13store_manager10get_loggerEv
0000000000af8bea 000000b8 T _ZNK3ana5storeeqERKS0_
0000000000af8ca2 00000068 T _ZNK3ana5store4hashEv
0000000000af8d10 00000114 T _ZN3ana10saved_uids15make_uid_uniqueEP6gimple
0000000000af8e24 0000002c T _ZNK3ana10saved_uids12restore_uidsEv
0000000000af8e50 000001b3 T _ZN3ana10supergraphD1Ev
0000000000af9004 0000001b T _ZN3ana10supergraphD0Ev
0000000000af9020 00000142 T _ZN3ana10supergraph8add_nodeEP8functionP15basic_block_defP5gcallP6gimple
0000000000af9162 00000056 T _ZN3ana10supergraph18add_call_superedgeEPNS_9supernodeES2_P11cgraph_edge
0000000000af91b8 00000056 T _ZN3ana10supergraph20add_return_superedgeEPNS_9supernodeES2_P11cgraph_edge
0000000000af920e 00000026 T _ZNK3ana9supernode9get_labelEv
0000000000af9234 00000016 T _ZNK3ana9superedge16get_any_cfg_edgeEv
0000000000af924a 00000016 T _ZNK3ana9superedge22get_any_callgraph_edgeEv
0000000000af9260 00000015 T _ZNK3ana13cfg_superedge11get_phi_argEPK4gphi
0000000000af927c 0000001b T _ZNK3ana19callgraph_superedge13get_call_stmtEv
0000000000af9338 00000016 T _ZNK3ana6svalue16maybe_get_regionEv
0000000000af934e 0000002a T _ZNK3ana6svalue15maybe_undo_castEv
0000000000af9378 0000001c T _ZNK3ana6svalue22unwrap_any_unmergeableEv
0000000000af9394 0000001e T _ZNK3ana6svalue18maybe_get_constantEv
0000000000af93b2 00000057 T _ZNK3ana6svalue6live_pEPK8hash_setIPKS0_Lb0E19default_hash_traitsIS3_EEPKNS_12region_modelE
0000000000af940a 0000000a T _ZNK3ana14unaryop_svalue17implicitly_live_pEPK8hash_setIPKNS_6svalueELb0E19default_hash_traitsIS4_EEPKNS_12region_modelE
0000000000af9414 00000039 T _ZNK3ana12binop_svalue17implicitly_live_pEPK8hash_setIPKNS_6svalueELb0E19default_hash_traitsIS4_EEPKNS_12region_modelE
0000000000af944e 0000000d T _ZNK3ana10sub_svalue17implicitly_live_pEPK8hash_setIPKNS_6svalueELb0E19default_hash_traitsIS4_EEPKNS_12region_modelE
0000000000af945c 0000000d T _ZNK3ana18bits_within_svalue17implicitly_live_pEPK8hash_setIPKNS_6svalueELb0E19default_hash_traitsIS4_EEPKNS_12region_modelE
0000000000af946a 0000000d T _ZNK3ana18unmergeable_svalue17implicitly_live_pEPK8hash_setIPKNS_6svalueELb0E19default_hash_traitsIS4_EEPKNS_12region_modelE
0000000000af9478 00000067 T _ZN3ana15compound_svalue15calc_complexityERKNS_11binding_mapE
0000000000af94e0 00000045 T _ZN3ana15compound_svalueC1EjP9tree_nodeRKNS_11binding_mapE
0000000000af9526 0000000a T _ZNK3ana17asm_output_svalue20input_idx_to_asm_idxEj
0000000000af9646 00000012 T _Z21debug_dispatch_windowi
0000000000af9658 00000010 T _Z16get_ix86_builtin13ix86_builtins
0000000000af96c7 0000002c T _Z23ix86_builtin_reciprocalP9tree_node
0000000000af97a4 00000058 T _ZN13xlogue_layout12get_instanceEv
0000000000af97fc 00000094 T _ZN13xlogue_layout13get_stub_nameE11xlogue_stubj
0000000000af99a8 000000b1 T _ZNK3ana9bit_range10contains_pERKS0_PS0_
0000000000af9a5a 00000144 T _ZNK3ana9bit_range9exceeds_pERKS0_PS0_
0000000000af9b9e 00000125 T _ZNK3ana9bit_range16falls_short_of_pE16generic_wide_intI22fixed_wide_int_storageILi128EEEPS0_
0000000000af9cc4 000000a1 T _ZN3ana11binding_mapaSERKS0_
0000000000af9d66 00000045 T _ZN3ana15binding_clusteraSERKS0_
0000000000af9dac 000000ad T _ZNK3ana15binding_cluster8validateEv
0000000000af9e5a 0000005a T _ZNK3ana5store8validateEv
0000000000af9eb4 0000005b T _ZN3ana15binding_cluster8bind_keyEPKNS_11binding_keyEPKNS_6svalueE
0000000000af9f10 00000037 T _ZNK3ana9supernode14get_stmt_indexEPK6gimple
0000000000af9f48 00000072 T _ZN3ana24state_purge_per_ssa_name15before_use_stmtERKNS_15state_purge_mapEPK6gimple
0000000000af9fba 00000047 T _ZNK3ana20switch_cfg_superedge28implicitly_created_default_pEv
0000000000afa1ca 0000007e T _ZNK3ana6svalue10involves_pEPKS0_
0000000000afa248 00000065 T _ZN3ana13region_svalue14eval_conditionEPKS0_9tree_codeS2_
0000000000afa2ec 00000029 T _ZN3ana18poison_kind_to_strENS_11poison_kindE
0000000000afa316 00000068 T _ZN3ana18bits_within_svalueC1EjP9tree_nodeRKNS_9bit_rangeEPKNS_6svalueE
0000000000afa468 00000210 T _Z29ix86_omp_device_kind_arch_isa24omp_device_kind_arch_isaPKc
0000000000afa6cf 0000060b T _Z18ix86_target_stringlliiPKcS0_11fpmath_unit19prefer_vector_widthS2_S2_bb
0000000000afacda 0000009a T _Z18ix86_debug_optionsv
0000000000afad74 00000149 T _Z28ix86_function_specific_printP8_IO_FILEiP16cl_target_option
0000000000afaebd 0000001b T _Z32ix86_expand_convert_uns_sixf_sseP7rtx_defS0_
0000000000afafe6 00000065 T _ZN13xlogue_layout19is_stub_managed_regEjj
0000000000afb04c 0000014b T _ZN3ana15state_purge_mapD2Ev
0000000000afb197 00000024 T _ZN3ana37get_ultimate_function_for_cgraph_edgeEP11cgraph_edge
0000000000afb1bc 0000000a T _ZNK3ana19callgraph_superedge19get_callee_functionEv
0000000000afb1c6 00000014 T _ZNK3ana19callgraph_superedge15get_callee_declEv
0000000000afb1da 00000089 T _ZNK3ana19callgraph_superedge16get_arg_for_parmEP9tree_nodePNS_13callsite_exprE
0000000000afb264 00000096 T _ZNK3ana19callgraph_superedge30map_expr_from_callee_to_callerEP9tree_nodePNS_13callsite_exprE
0000000000afb2fa 00000011 T _ZNK3ana19callgraph_superedge19get_caller_functionEv
0000000000afb30c 00000018 T _ZNK3ana19callgraph_superedge15get_caller_declEv
0000000000afb324 0000030f T _ZN3ana15state_purge_map27get_or_create_data_for_declERK8functionP9tree_node
0000000000afb6b4 00000447 T _ZN3ana13store_manager20get_concrete_bindingE16generic_wide_intI22fixed_wide_int_storageILi128EEES4_
0000000000afbafc 000002f4 T _ZN3ana13store_manager20get_symbolic_bindingEPKNS_6regionE
0000000000afbdf0 00000135 T _ZN3ana5storeC2ERKS0_
0000000000afbf26 00000054 T _ZN3ana5storeC1Ev
0000000000afc5b4 0000006b T _ZNK3ana5store11get_clusterEPKNS_6regionE
0000000000afc620 0000006b T _ZN3ana5store11get_clusterEPKNS_6regionE
0000000000afc68c 00000087 T _ZNK3ana5store9escaped_pEPKNS_6regionE
0000000000afc714 00000036 T _ZNK3ana6svalue27maybe_get_deref_base_regionEv
0000000000afc74a 0000002f T _ZNK3ana13region_svalue17implicitly_live_pEPK8hash_setIPKNS_6svalueELb0E19default_hash_traitsIS4_EEPKNS_12region_modelE
0000000000afc77a 000000ee T _ZNK3ana10byte_range10dump_to_ppEP14pretty_printer
0000000000afc868 00000138 T _ZNK3ana9bit_range10dump_to_ppEP14pretty_printer
0000000000afc9a0 0000000d T _ZNK3ana16concrete_binding10dump_to_ppEP14pretty_printerb
0000000000afc9ae 00000038 T _ZNK3ana16symbolic_binding10dump_to_ppEP14pretty_printerb
0000000000afc9e6 00000019 T _ZNK3ana9supernode11dump_dot_idEP14pretty_printer
0000000000afca00 00000435 T _ZNK3ana13cfg_superedge16dump_label_to_ppEP14pretty_printerb
0000000000afce36 00000054 T _ZNK3ana19callgraph_superedge16dump_label_to_ppEP14pretty_printerb
0000000000afce8a 0000002c T _ZNK3ana18placeholder_svalue10dump_to_ppEP14pretty_printerb
0000000000afceb6 0000003a T _ZNK3ana17asm_output_svalue10dump_inputEP14pretty_printerjPKNS_6svalueEb
0000000000afcef0 000000bd T _ZNK3ana17asm_output_svalue10dump_to_ppEP14pretty_printerb
0000000000afcfae 00000037 T _ZNK3ana22const_fn_result_svalue10dump_inputEP14pretty_printerjPKNS_6svalueEb
0000000000afcfe6 000000b2 T _ZNK3ana22const_fn_result_svalue10dump_to_ppEP14pretty_printerb
0000000000afd248 0000000d T _ZNK3ana20state_purge_per_decl17needed_at_point_pERKNS_14function_pointE
0000000000afd256 0000000d T _ZNK3ana24state_purge_per_ssa_name17needed_at_point_pERKNS_14function_pointE
0000000000afd264 000001b8 T _ZNK3ana21state_purge_annotator12print_neededEP12graphviz_outRKNS_14function_pointEb
0000000000afd41c 000001c4 T _ZNK3ana21state_purge_annotator20add_node_annotationsEP12graphviz_outRKNS_9supernodeEb
0000000000afd5e0 0000009d T _ZNK3ana21state_purge_annotator20add_stmt_annotationsEP12graphviz_outPK6gimpleb
0000000000afd766 0000005d T _ZNK3ana13uncertainty_t10dump_to_ppEP14pretty_printerb
0000000000afd7c4 000000a3 T _ZNK3ana10sub_svalue10dump_to_ppEP14pretty_printerb
0000000000afd868 00000111 T _ZNK3ana15widening_svalue10dump_to_ppEP14pretty_printerb
0000000000afd97a 00000058 T _ZNK3ana18unmergeable_svalue10dump_to_ppEP14pretty_printerb
0000000000afd9d2 000000e1 T _ZN3ana11binding_key4makeEPNS_13store_managerEPKNS_6regionE
0000000000afdab4 00000070 T _ZN3ana15binding_cluster12purge_regionEPNS_13store_managerEPKNS_6regionE
0000000000afdb24 0000004e T _ZNK3ana15binding_cluster22maybe_get_simple_valueEPNS_13store_managerE
0000000000afdb72 00000021 T _Z20ix86_offload_optionsv
0000000000afdb94 000001c4 T _ZNK3ana11binding_map10dump_to_ppEP14pretty_printerbb
0000000000afdd58 00000090 T _ZNK3ana15binding_cluster10dump_to_ppEP14pretty_printerbb
0000000000afdde8 000003f5 T _ZNK3ana5store10dump_to_ppEP14pretty_printerbbPNS_13store_managerE
0000000000afe23c 0000000c T _ZNK3ana6svalue17extract_bit_rangeEP9tree_nodeRKNS_9bit_rangeEPNS_20region_model_managerE
0000000000afe248 00000592 T _ZN3ana11binding_map27remove_overlapping_bindingsEPNS_13store_managerEPKNS_11binding_keyEPNS_13uncertainty_tEP8hash_setIPKNS_6svalueELb0E19default_hash_traitsISB_EEb
0000000000afe7da 000000af T _ZN3ana15binding_cluster27remove_overlapping_bindingsEPNS_13store_managerEPKNS_6regionEPNS_13uncertainty_tEP8hash_setIPKNS_6svalueELb0E19default_hash_traitsISB_EE
0000000000afe88a 0000017c T _ZN3ana15binding_cluster18bind_compound_svalEPNS_13store_managerEPKNS_6regionEPKNS_15compound_svalueE
0000000000afea06 00000076 T _ZN3ana15binding_cluster4bindEPNS_13store_managerEPKNS_6regionEPKNS_6svalueE
0000000000afea7c 0000000e T _ZN3ana15binding_cluster14clobber_regionEPNS_13store_managerEPKNS_6regionE
0000000000afea8a 00000079 T _ZNK3ana18bits_within_svalue22maybe_fold_bits_withinEP9tree_nodeRKNS_9bit_rangeEPNS_20region_model_managerE
0000000000afeb04 00000060 T _ZN3ana15binding_cluster11fill_regionEPNS_13store_managerEPKNS_6regionEPKNS_6svalueE
0000000000afeb64 0000005c T _ZN3ana15binding_cluster16zero_fill_regionEPNS_13store_managerEPKNS_6regionE
0000000000afebc0 00000077 T _ZN3ana15binding_cluster22mark_region_as_unknownEPNS_13store_managerEPKNS_6regionES5_PNS_13uncertainty_tEP8hash_setIPKNS_6svalueELb0E19default_hash_traitsISB_EE
0000000000afec38 0000000c T _ZNK3ana14unknown_svalue22maybe_fold_bits_withinEP9tree_nodeRKNS_9bit_rangeEPNS_20region_model_managerE
0000000000afec44 00000289 T _ZN3ana15binding_cluster21purge_state_involvingEPKNS_6svalueEPNS_20region_model_managerE
0000000000afeece 00000120 T _ZNK3ana15binding_cluster11get_bindingEPNS_13store_managerEPKNS_6regionE
0000000000afefee 00000067 T _ZNK3ana15binding_cluster21get_binding_recursiveEPNS_13store_managerEPKNS_6regionE
0000000000aff056 00000074 T _ZN3ana15binding_cluster17on_unknown_fncallEPK5gcallPNS_13store_managerERKNS_14conjured_purgeE
0000000000aff0ca 0000007c T _ZN3ana5store17on_unknown_fncallEPK5gcallPNS_13store_managerERKNS_14conjured_purgeE
0000000000aff146 00000061 T _ZN3ana15binding_cluster6on_asmEPK4gasmPNS_13store_managerERKNS_14conjured_purgeE
0000000000aff202 00000197 T _ZNK3ana15binding_cluster28get_representative_path_varsEPKNS_12region_modelEP8hash_setIPKNS_6svalueELb0E19default_hash_traitsIS7_EEPKNS_6regionES7_P8auto_vecINS_8path_varELm0EE
0000000000aff39a 000000dc T _ZNK3ana5store28get_representative_path_varsEPKNS_12region_modelEP8hash_setIPKNS_6svalueELb0E19default_hash_traitsIS7_EES7_P8auto_vecINS_8path_varELm0EE
0000000000aff476 00000036 T _ZNK3ana14initial_svalue24initial_value_of_param_pEv
0000000000aff4ac 00000030 T _ZNK3ana15conjured_svalue11lhs_value_pEv
0000000000aff4dc 000000f8 T _ZNK3ana5store12eval_alias_1EPKNS_6regionES3_
0000000000aff5d4 0000006d T _ZNK3ana5store10eval_aliasEPKNS_6regionES3_
0000000000aff641 0000004b T _ZN3ana20supergraph_call_edgeEP8functionPK6gimple
0000000000aff68c 00000374 T _ZNK3ana9supernode8dump_dotEP12graphviz_outRKNS_17supergraph_traits11dump_args_tE
0000000000affa00 0000013a T _ZNK3ana9superedge8dump_dotEP12graphviz_outRKNS_17supergraph_traits11dump_args_tE
0000000000affb3a 00000280 T _ZNK3ana10supergraph14dump_dot_to_ppEP14pretty_printerRKNS_17supergraph_traits11dump_args_tE
0000000000affdba 00000067 T _ZNK3ana10supergraph16dump_dot_to_fileEP8_IO_FILERKNS_17supergraph_traits11dump_args_tE
0000000000affe22 00000038 T _ZNK3ana10supergraph8dump_dotEPKcRKNS_17supergraph_traits11dump_args_tE
0000000000affe5a 000000ba T _ZNK3ana9supernode18get_start_locationEv
0000000000afff14 000000c1 T _ZNK3ana9supernode16get_end_locationEv
0000000000afffd6 000000a6 T _ZN3ana20switch_cfg_superedgeC2EPNS_9supernodeES2_P8edge_def
0000000000b0007c 00000092 T _ZN3ana10supergraph12add_cfg_edgeEPNS_9supernodeES2_P8edge_def
0000000000b0010e 00000206 T _ZNK3ana20switch_cfg_superedge16dump_label_to_ppEP14pretty_printerb
0000000000b00314 00000084 T _ZNK3ana19callgraph_superedge16get_parm_for_argEP9tree_nodePNS_13callsite_exprE
0000000000b00398 0000005a T _ZNK3ana19callgraph_superedge30map_expr_from_caller_to_calleeEP9tree_nodePNS_13callsite_exprE
0000000000b003f2 0000014b T _ZNK3ana6svalue20maybe_print_for_userEP14pretty_printerRKNS_12region_modelEPKS0_
0000000000b0053e 00000207 T _ZNK3ana6svalue11can_merge_pEPKS0_PNS_20region_model_managerEPNS_12model_mergerE
0000000000b00746 0000000d T _ZNK3ana15constant_svalue12all_zeroes_pEv
0000000000b00754 000002c9 T _ZN3ana6svalue7cmp_ptrEPKS0_S2_
0000000000b00a1e 0000000f T _ZN3ana6svalue11cmp_ptr_ptrEPKvS2_
0000000000b00a2e 00000213 T _ZN3ana11binding_map3cmpERKS0_S2_
0000000000b00c42 00000087 T _ZNK3ana13region_svalue10dump_to_ppEP14pretty_printerb
0000000000b00cca 0000004d T _ZNK3ana15poisoned_svalue10dump_to_ppEP14pretty_printerb
0000000000b00d18 00000079 T _ZNK3ana14initial_svalue10dump_to_ppEP14pretty_printerb
0000000000b00d92 000000e9 T _ZNK3ana15repeated_svalue10dump_to_ppEP14pretty_printerb
0000000000b00e7c 000000ca T _ZNK3ana18bits_within_svalue10dump_to_ppEP14pretty_printerb
0000000000b00f46 000000af T _ZNK3ana15compound_svalue10dump_to_ppEP14pretty_printerb
0000000000b00ff6 000000b3 T _ZNK3ana15conjured_svalue10dump_to_ppEP14pretty_printerb
0000000000b010aa 0000008d T _ZNK3ana15constant_svalue10dump_to_ppEP14pretty_printerb
0000000000b01138 00000044 T _ZNK3ana14unknown_svalue10dump_to_ppEP14pretty_printerb
0000000000b0117c 00000085 T _ZNK3ana15widening_svalue13get_directionEv
0000000000b01202 00000113 T _ZNK3ana15widening_svalue25eval_condition_without_cmE9tree_codeP9tree_node
0000000000b01316 000000d7 T _ZN3ana15constant_svalue14eval_conditionEPKS0_9tree_codeS2_
0000000000b013ee 000000dc T _ZNK3ana15constant_svalue22maybe_fold_bits_withinEP9tree_nodeRKNS_9bit_rangeEPNS_20region_model_managerE
0000000000b014ca 0000005a T _ZNK3ana14unaryop_svalue22maybe_fold_bits_withinEP9tree_nodeRKNS_9bit_rangeEPNS_20region_model_managerE
0000000000b01524 00000015 T _ZNK3ana15poisoned_svalue22maybe_fold_bits_withinEP9tree_nodeRKNS_9bit_rangeEPNS_20region_model_managerE
0000000000b0153a 00000065 T _ZNK3ana14initial_svalue17implicitly_live_pEPK8hash_setIPKNS_6svalueELb0E19default_hash_traitsIS4_EEPKNS_12region_modelE
0000000000b015a0 000000ba T _ZNK3ana14unaryop_svalue10dump_to_ppEP14pretty_printerb
0000000000b0165a 00000102 T _ZNK3ana12binop_svalue10dump_to_ppEP14pretty_printerb
0000000000b0175c 00000071 T _ZN3ana10sub_svalueC1EjP9tree_nodePKNS_6svalueEPKNS_6regionE
0000000000b017ce 000000c4 T _ZN3ana15repeated_svalueC2EjP9tree_nodePKNS_6svalueES5_
0000000000b01892 00000216 T _ZNK3ana15repeated_svalue22maybe_fold_bits_withinEP9tree_nodeRKNS_9bit_rangeEPNS_20region_model_managerE
0000000000b01e13 00000057 T _ZN3ana26make_va_list_state_machineEPNS_6loggerE
0000000000b01e6a 000000c6 T _ZNK3ana11kf_va_start13impl_call_preERKNS_12call_detailsE
0000000000b01f30 000000f6 T _ZNK3ana10kf_va_copy13impl_call_preERKNS_12call_detailsE
0000000000b026a5 000001ce T _Z19ix86_bd_do_dispatchP8rtx_insni
0000000000b02873 0000004b T _Z20debug_ready_dispatchv
0000000000b02c62 000001aa T _Z22ix86_simd_clone_adjustP11cgraph_node
0000000000b0360b 000004f7 T _Z28get_builtin_code_for_versionP9tree_nodePS0_
0000000000b03b02 00000027 T _Z29ix86_compare_version_priorityP9tree_nodeS0_
0000000000b03b98 00000468 T _Z16fold_builtin_cpuP9tree_nodePS0_
0000000000b04028 00000026 T _Z19gen_sub3_carry_ccgz12machine_modeP7rtx_defS1_S1_
0000000000b040e4 00000026 T _Z23gen_vec_interleave_high12machine_modeiP7rtx_defS1_S1_
0000000000b0410a 00000026 T _Z22gen_vec_interleave_low12machine_modeiP7rtx_defS1_S1_
0000000000b041ca 0000008c T _ZN13xlogue_layout12get_stub_rtxE11xlogue_stub
0000000000b04256 000000a8 T _Z32ix86_move_vector_high_sse_to_mmxP7rtx_def
0000000000b042fe 00000157 T _Z24ix86_expand_mask_vec_cmpP7rtx_def8rtx_codeS0_S0_
0000000000b04455 00000196 T _Z19ix86_split_mmx_packPP7rtx_def8rtx_code
0000000000b045eb 00000269 T _Z29ix86_split_convert_uns_si_ssePP7rtx_def
0000000000b04854 0000011e T _Z22ix86_expand_fp_vec_cmpPP7rtx_def
0000000000b05a1a 000001fa T _Z19ix86_emit_i387_tanhP7rtx_defS0_
0000000000b05c14 000000d9 T _Z20ix86_emit_i387_acoshP7rtx_defS0_
0000000000b05ced 000002c1 T _Z17ix86_emit_swdivsfP7rtx_defS0_S0_12machine_mode
0000000000b05fae 0000045e T _Z18ix86_split_idivmod12machine_modePP7rtx_defb
0000000000b0640c 0000022e T _Z19ix86_emit_i387_sinhP7rtx_defS0_
0000000000b0663a 000000d3 T _Z19ix86_emit_i387_coshP7rtx_defS0_
0000000000b0670d 000003b8 T _Z20ix86_emit_i387_roundP7rtx_defS0_
0000000000b06ac5 000001a2 T _Z32ix86_expand_convert_uns_sisf_sseP7rtx_defS0_
0000000000b06c67 0000025e T _Z32ix86_expand_convert_uns_didf_sseP7rtx_defS0_
0000000000b06feb 000002ad T _Z22ix86_expand_v1ti_shift8rtx_codePP7rtx_def
0000000000b07298 0000037e T _Z23ix86_expand_v1ti_rotate8rtx_codePP7rtx_def
0000000000b07616 000010c6 T _Z25ix86_expand_v1ti_ashiftrtPP7rtx_def
0000000000b086dc 000001cf T _Z37ix86_expand_vector_convert_uns_vsivsfP7rtx_defS0_
0000000000b088ab 00000232 T _Z34ix86_expand_adjust_ufix_to_sfix_siP7rtx_defPS0_
0000000000b08add 0000021e T _Z29ix86_split_fp_absneg_operator8rtx_code12machine_modePP7rtx_def
0000000000b08cfb 000002a7 T _Z20ix86_expand_copysignPP7rtx_def
0000000000b08fa2 000001bc T _Z19ix86_expand_xorsignPP7rtx_def
0000000000b092a2 000000fa T _Z32ix86_expand_convert_uns_sidf_sseP7rtx_defS0_
0000000000b0939c 000000fb T _Z33ix86_expand_convert_sign_didf_sseP7rtx_defS0_
0000000000b09636 00000326 T _Z24ix86_expand_fp_spaceshipP7rtx_defS0_S0_
0000000000b0995c 0000015a T _Z20ix86_expand_fp_vcondPP7rtx_def
0000000000b09ab6 00000e7b T _Z20ix86_expand_vec_permPP7rtx_def
0000000000b0a931 000000ca T _Z36ix86_extract_perm_from_pool_constantPiP7rtx_def
0000000000b0a9fb 000003af T _Z15ix86_split_ashrPP7rtx_defS0_12machine_mode
0000000000b0adaa 0000027b T _Z21ix86_split_rshift_ndd8rtx_codePP7rtx_defS1_
0000000000b0b025 00000287 T _Z19ix86_split_ashl_nddPP7rtx_defS0_
0000000000b0b4fc 000001f6 T _Z37ix86_split_simple_return_pop_internalP7rtx_def
0000000000b0c574 000003dc T _Z26ix86_expand_vector_set_varP7rtx_defS0_S0_
0000000000b0c950 00000157 T _Z27ix86_emit_fp_unordered_jumpP7rtx_def
0000000000b0caa7 000001b9 T _Z20ix86_emit_i387_log1pP7rtx_defS0_
0000000000b0cc60 0000021f T _Z20ix86_emit_i387_asinhP7rtx_defS0_
0000000000b0ce7f 00000239 T _Z20ix86_emit_i387_atanhP7rtx_defS0_
0000000000b0d0b8 000005de T _Z18ix86_emit_swsqrtsfP7rtx_defS0_12machine_modeb
0000000000b0d696 00000104 T _Z18ix86_expand_lroundP7rtx_defS0_
0000000000b0d82a 00000116 T _Z16ix86_expand_rintP7rtx_defS0_
0000000000b0d940 000001db T _Z26ix86_expand_floorceildf_32P7rtx_defS0_b
0000000000b0db1b 000001a5 T _Z22ix86_expand_truncdf_32P7rtx_defS0_
0000000000b0dcc0 00000257 T _Z22ix86_expand_rounddf_32P7rtx_defS0_
0000000000b0df17 0000017e T _Z22ix86_expand_round_sse4P7rtx_defS0_
0000000000b0e095 000000bb T _Z22ix86_expand_lfloorceilP7rtx_defS0_b
0000000000b0e150 000001af T _Z21ix86_expand_floorceilP7rtx_defS0_b
0000000000b0e2ff 000000d1 T _Z17ix86_expand_truncP7rtx_defS0_
0000000000b0e3d0 0000017c T _Z17ix86_expand_roundP7rtx_defS0_
0000000000b0e843 00000372 T _Z30ix86_expand_vecop_qihi_partial8rtx_codeP7rtx_defS1_S1_
0000000000b0ebb5 00000754 T _Z22ix86_expand_vecop_qihi8rtx_codeP7rtx_defS1_S1_
0000000000b0f35f 00000398 T _Z29ix86_expand_mul_widen_evenoddP7rtx_defS0_S0_bb
0000000000b0f6f7 0000015b T _Z25ix86_expand_sse2_mulv4si3P7rtx_defS0_S0_
0000000000b0f852 000003ed T _Z26ix86_expand_mul_widen_hiloP7rtx_defS0_S0_bb
0000000000b0fc3f 0000024e T _Z20ix86_expand_sse2_absP7rtx_defS0_
0000000000b0fe8d 000000a0 T _Z26ix86_expand_divmod_libfuncP7rtx_def12machine_modeS0_S0_PS0_S2_
0000000000b0ff2d 00000366 T _Z24ix86_expand_cmpxchg_loopPP7rtx_defS0_S0_S0_S0_S0_bP14rtx_code_label
0000000000b10293 00000139 T _Z32ix86_expand_atomic_fetch_op_loopP7rtx_defS0_S0_8rtx_codebb
0000000000b103cc 000000c5 T _Z33ix86_expand_fast_convert_bf_to_sfP7rtx_def
0000000000b10492 00000061 T _ZN13xlogue_layout23count_stub_managed_regsEv
0000000000b112ac 00000160 T _Z37ix86_get_function_versions_dispatcherPv
0000000000b1140c 000003ba T _Z37ix86_generate_version_dispatcher_bodyPv
0000000000b117c6 00000019 T _Z29linux_libm_function_max_errorj12machine_modeb
0000000000b11918 00000059 T _Z20gimple_float_value_pP9tree_nodePFS0_S0_E
0000000000b11971 00000085 T _Z19gimple_simplify_162P15gimple_match_opPP6gimplePFP9tree_nodeS5_ES5_PS5_
0000000000b119f6 000000bd T _Z19gimple_simplify_299P15gimple_match_opPP6gimplePFP9tree_nodeS5_ES5_PS5_11combined_fn
0000000000b11ab3 00000085 T _Z19gimple_simplify_462P15gimple_match_opPP6gimplePFP9tree_nodeS5_ES5_PS5_
0000000000b11b38 00000085 T _Z19gimple_simplify_482P15gimple_match_opPP6gimplePFP9tree_nodeS5_ES5_PS5_
0000000000b11bbd 00000085 T _Z19gimple_simplify_568P15gimple_match_opPP6gimplePFP9tree_nodeS5_ES5_PS5_9tree_code
0000000000b11c42 000000db T _Z19gimple_simplify_620P15gimple_match_opPP6gimplePFP9tree_nodeS5_ES5_PS5_11combined_fn
0000000000b11d1d 00000149 T _Z19gimple_simplify_431P15gimple_match_opPP6gimplePFP9tree_nodeS5_ES5_PS5_
0000000000b11e66 00000138 T _Z19gimple_simplify_473P15gimple_match_opPP6gimplePFP9tree_nodeS5_ES5_PS5_
0000000000b11f9e 0000019c T _Z19gimple_simplify_529P15gimple_match_opPP6gimplePFP9tree_nodeS5_ES5_PS5_
0000000000b1213a 00000132 T _Z19gimple_simplify_573P15gimple_match_opPP6gimplePFP9tree_nodeS5_ES5_PS5_9tree_code11combined_fn
0000000000b1226c 00000165 T _Z19gimple_simplify_593P15gimple_match_opPP6gimplePFP9tree_nodeS5_ES5_PS5_11combined_fn
0000000000b123d1 00000449 T _Z19gimple_simplify_142P15gimple_match_opPP6gimplePFP9tree_nodeS5_ES5_PS5_9tree_codeS9_
0000000000b1281a 000000ad T _Z19gimple_simplify_535P15gimple_match_opPP6gimplePFP9tree_nodeS5_ES5_PS5_9tree_code
0000000000b128c7 000000ad T _Z19gimple_simplify_542P15gimple_match_opPP6gimplePFP9tree_nodeS5_ES5_PS5_9tree_code
0000000000b12974 000000c2 T _Z19gimple_simplify_550P15gimple_match_opPP6gimplePFP9tree_nodeS5_ES5_PS5_9tree_code
0000000000b12a36 0000013b T _Z19gimple_simplify_165P15gimple_match_opPP6gimplePFP9tree_nodeS5_ES5_PS5_
0000000000b12b71 0000013b T _Z19gimple_simplify_169P15gimple_match_opPP6gimplePFP9tree_nodeS5_ES5_PS5_
0000000000b12cac 0000013b T _Z19gimple_simplify_174P15gimple_match_opPP6gimplePFP9tree_nodeS5_ES5_PS5_
0000000000b12de7 0000013b T _Z19gimple_simplify_179P15gimple_match_opPP6gimplePFP9tree_nodeS5_ES5_PS5_
0000000000b12f22 00000089 T _Z19gimple_simplify_189P15gimple_match_opPP6gimplePFP9tree_nodeS5_ES5_PS5_
0000000000b12fab 00000095 T _Z19gimple_simplify_321P15gimple_match_opPP6gimplePFP9tree_nodeS5_ES5_PS5_9tree_code
0000000000b13040 0000015a T _Z19gimple_simplify_367P15gimple_match_opPP6gimplePFP9tree_nodeS5_ES5_PS5_9tree_codeS9_
0000000000b1319a 0000017d T _Z19gimple_simplify_459P15gimple_match_opPP6gimplePFP9tree_nodeS5_ES5_PS5_
0000000000b13317 0000041f T _Z19gimple_simplify_257P15gimple_match_opPP6gimplePFP9tree_nodeS5_ES5_PS5_9tree_codeS9_
0000000000b13736 0000029e T _Z19gimple_simplify_286P15gimple_match_opPP6gimplePFP9tree_nodeS5_ES5_PS5_9tree_code
0000000000b139d4 000000ca T _Z19gimple_simplify_326P15gimple_match_opPP6gimplePFP9tree_nodeS5_ES5_PS5_
0000000000b13a9e 000001a0 T _Z19gimple_simplify_333P15gimple_match_opPP6gimplePFP9tree_nodeS5_ES5_PS5_11combined_fnS9_S9_
0000000000b13c3e 000002ab T _Z19gimple_simplify_602P15gimple_match_opPP6gimplePFP9tree_nodeS5_ES5_PS5_11combined_fnS9_S9_
0000000000b13ee9 000001f1 T _Z19gimple_simplify_487P15gimple_match_opPP6gimplePFP9tree_nodeS5_ES5_PS5_9tree_codeS9_
0000000000b140da 00000220 T _Z19gimple_simplify_582P15gimple_match_opPP6gimplePFP9tree_nodeS5_ES5_PS5_11combined_fnS9_
0000000000b142fa 000000c0 T _Z19gimple_simplify_646P15gimple_match_opPP6gimplePFP9tree_nodeS5_ES5_PS5_11combined_fn
0000000000b143ba 00000360 T _Z32gimple_simplify_CFN_BUILT_IN_COSP15gimple_match_opPP6gimplePFP9tree_nodeS5_E11code_helperS5_S5_
0000000000b1471a 000000ec T _Z34gimple_simplify_CFN_BUILT_IN_EXP10P15gimple_match_opPP6gimplePFP9tree_nodeS5_E11code_helperS5_S5_
0000000000b14806 000001f7 T _Z30gimple_simplify_CFN_REDUC_FMAXP15gimple_match_opPP6gimplePFP9tree_nodeS5_E11code_helperS5_S5_
0000000000b149fd 00000572 T _Z23gimple_simplify_CFN_LOGP15gimple_match_opPP6gimplePFP9tree_nodeS5_E11code_helperS5_S5_
0000000000b14f6f 0000070a T _Z35gimple_simplify_CFN_BUILT_IN_LOG10FP15gimple_match_opPP6gimplePFP9tree_nodeS5_E11code_helperS5_S5_
0000000000b15679 0000089f T _Z34gimple_simplify_CFN_BUILT_IN_SQRTLP15gimple_match_opPP6gimplePFP9tree_nodeS5_E11code_helperS5_S5_
0000000000b15f18 000000d1 T _Z37gimple_simplify_CFN_BUILT_IN_ROUNDF32P15gimple_match_opPP6gimplePFP9tree_nodeS5_E11code_helperS5_S5_
0000000000b15fe9 000000d1 T _Z39gimple_simplify_CFN_BUILT_IN_NEARBYINTFP15gimple_match_opPP6gimplePFP9tree_nodeS5_E11code_helperS5_S5_
0000000000b160ba 000000d1 T _Z43gimple_simplify_CFN_BUILT_IN_NEARBYINTF128XP15gimple_match_opPP6gimplePFP9tree_nodeS5_E11code_helperS5_S5_
0000000000b1618b 000000d1 T _Z37gimple_simplify_CFN_BUILT_IN_RINTF32XP15gimple_match_opPP6gimplePFP9tree_nodeS5_E11code_helperS5_S5_
0000000000b1625c 00000192 T _Z35gimple_simplify_CFN_BUILT_IN_TRUNCLP15gimple_match_opPP6gimplePFP9tree_nodeS5_E11code_helperS5_S5_
0000000000b163ee 0000018a T _Z34gimple_simplify_CFN_BUILT_IN_CEILLP15gimple_match_opPP6gimplePFP9tree_nodeS5_E11code_helperS5_S5_
0000000000b16578 00000108 T _Z38gimple_simplify_CFN_BUILT_IN_FLOORF128P15gimple_match_opPP6gimplePFP9tree_nodeS5_E11code_helperS5_S5_
0000000000b16680 00000092 T _Z27gimple_simplify_CFN_LLROUNDP15gimple_match_opPP6gimplePFP9tree_nodeS5_E11code_helperS5_S5_
0000000000b16712 00000096 T _Z36gimple_simplify_CFN_BUILT_IN_LFLOORFP15gimple_match_opPP6gimplePFP9tree_nodeS5_E11code_helperS5_S5_
0000000000b167a8 00000132 T _Z35gimple_simplify_CFN_BUILT_IN_LLCEILP15gimple_match_opPP6gimplePFP9tree_nodeS5_E11code_helperS5_S5_
0000000000b168da 000001b7 T _Z37gimple_simplify_CFN_BUILT_IN_LLFLOORLP15gimple_match_opPP6gimplePFP9tree_nodeS5_E11code_helperS5_S5_
0000000000b16a91 0000014e T _Z35gimple_simplify_CFN_BUILT_IN_LRINTLP15gimple_match_opPP6gimplePFP9tree_nodeS5_E11code_helperS5_S5_
0000000000b16bdf 00000092 T _Z25gimple_simplify_CFN_ICEILP15gimple_match_opPP6gimplePFP9tree_nodeS5_E11code_helperS5_S5_
0000000000b16c71 00000222 T _Z35gimple_simplify_CFN_BUILT_IN_CPROJLP15gimple_match_opPP6gimplePFP9tree_nodeS5_E11code_helperS5_S5_
0000000000b16e93 000005bc T _Z39gimple_simplify_CFN_BUILT_IN_PARITYIMAXP15gimple_match_opPP6gimplePFP9tree_nodeS5_E11code_helperS5_S5_
0000000000b17450 00000078 T _ZNK3ana13uncertainty_t4dumpEb
0000000000b174c8 0000007a T _ZNK3ana11binding_key4dumpEb
0000000000b17542 00000069 T _ZNK3ana11binding_key8get_descEb
0000000000b175ac 00000054 T _ZNK3ana9bit_range4dumpEv
0000000000b17600 00000054 T _ZNK3ana10byte_range4dumpEv
0000000000b17654 0000007d T _ZNK3ana11binding_map4dumpEb
0000000000b176d2 000000b3 T _ZNK3ana15binding_cluster4dumpEb
0000000000b17786 00000080 T _ZNK3ana5store4dumpEb
0000000000b17806 00000060 T _ZNK3ana9superedge15get_descriptionEb
0000000000b17866 00000078 T _ZNK3ana9superedge4dumpEP14pretty_printer
0000000000b178de 0000006e T _ZNK3ana9superedge4dumpEv
0000000000b1794c 0000007a T _ZNK3ana6svalue4dumpEb
0000000000b179c6 00000069 T _ZNK3ana6svalue8get_descEb
0000000000b17c72 0000013b T _ZN3ana24state_purge_per_ssa_name15add_to_worklistERKNS_14function_pointEP8auto_vecIS1_Lm0EEPNS_6loggerE
0000000000b17dae 000003e1 T _ZN3ana24state_purge_per_ssa_name13process_pointERKNS_14function_pointEP8auto_vecIS1_Lm0EERKNS_15state_purge_mapE
0000000000b18190 0000066f T _ZN3ana24state_purge_per_ssa_nameC2ERKNS_15state_purge_mapEP9tree_nodeRK8function
0000000000b18800 00000146 T _ZN3ana20state_purge_per_decl15add_to_worklistERKNS_14function_pointEP8auto_vecIS1_Lm0EEP8hash_setIS1_Lb0E19default_hash_traitsIS1_EEPNS_6loggerE
0000000000b18946 000003ec T _ZN3ana20state_purge_per_decl23process_point_backwardsERKNS_14function_pointEP8auto_vecIS1_Lm0EEP8hash_setIS1_Lb0E19default_hash_traitsIS1_EERKNS_15state_purge_mapERKNS_12region_modelE
0000000000b18d32 0000014e T _ZN3ana20state_purge_per_decl22process_point_forwardsERKNS_14function_pointEP8auto_vecIS1_Lm0EEP8hash_setIS1_Lb0E19default_hash_traitsIS1_EERKNS_15state_purge_mapE
0000000000b18e80 00001a69 T _ZN3ana10supergraphC1EPNS_6loggerE
0000000000b1a8ea 000002d0 T _ZN3ana20state_purge_per_decl17process_worklistsERKNS_15state_purge_mapEPNS_20region_model_managerE
0000000000b1abba 0000064c T _ZN3ana15state_purge_mapC1ERKNS_10supergraphEPNS_20region_model_managerEPNS_6loggerE
0000000000b1b250 00000186 T _ZN3ana11binding_map23apply_ctor_val_to_rangeEPKNS_6regionEPNS_20region_model_managerEP9tree_nodeS7_S7_
0000000000b1b3d6 00000207 T _ZN3ana11binding_map31apply_ctor_pair_to_child_regionEPKNS_6regionEPNS_20region_model_managerEP9tree_nodeS7_
0000000000b1b5de 00000121 T _ZN3ana11binding_map20apply_ctor_to_regionEPKNS_6regionEP9tree_nodePNS_20region_model_managerE
0000000000b1b700 00000063 T _ZNK3ana9bit_range7to_jsonEv
0000000000b1b764 00000063 T _ZNK3ana10byte_range7to_jsonEv
0000000000b1b7c8 0000001d T _ZN3ana15binding_clusterC2EPKNS_6regionE
0000000000b1b7e6 000000f3 T _ZN3ana5store21get_or_create_clusterEPKNS_6regionE
0000000000b1b8da 000000e2 T _ZN3ana15binding_cluster24make_unknown_relative_toEPKS0_PNS_5storeEPNS_13store_managerE
0000000000b1b9bc 00000472 T _ZN3ana15binding_cluster11can_merge_pEPKS0_S2_PS0_PNS_5storeEPNS_13store_managerEPNS_12model_mergerE
0000000000b1be2e 00000078 T _ZN3ana5store11fill_regionEPNS_13store_managerEPKNS_6regionEPKNS_6svalueE
0000000000b1bea6 0000005c T _ZN3ana5store16zero_fill_regionEPNS_13store_managerEPKNS_6regionE
0000000000b1bf02 00000080 T _ZN3ana5store22mark_region_as_unknownEPNS_13store_managerEPKNS_6regionEPNS_13uncertainty_tEP8hash_setIPKNS_6svalueELb0E19default_hash_traitsISB_EE
0000000000b1bf82 0000007b T _ZN3ana5store15mark_as_escapedEPKNS_6regionE
0000000000b1bffe 00000076 T _ZN3ana5store20on_maybe_live_valuesERK8hash_setIPKNS_6svalueELb0E19default_hash_traitsIS4_EE
0000000000b1c074 0000011d T _ZN3ana5store17loop_replay_fixupEPKS0_PNS_20region_model_managerE
0000000000b1c192 0000058e T _ZNK3ana15binding_cluster26maybe_get_compound_bindingEPNS_13store_managerEPKNS_6regionE
0000000000b1c720 000000b3 T _ZNK3ana15binding_cluster15get_any_bindingEPNS_13store_managerEPKNS_6regionE
0000000000b1c7d4 00000055 T _ZNK3ana5store15get_any_bindingEPNS_13store_managerEPKNS_6regionE
0000000000b1c82a 00000092 T _ZN3ana5storeD2Ev
0000000000b1c8bc 000001ed T _ZN3ana5storeaSERKS0_
0000000000b1caaa 000000a3 T _ZN3ana5store14clobber_regionEPNS_13store_managerEPKNS_6regionE
0000000000b1cb4e 0000009e T _ZN3ana5store12purge_regionEPNS_13store_managerEPKNS_6regionE
0000000000b1cbec 0000008a T _ZN3ana5store13purge_clusterEPKNS_6regionE
0000000000b1cc76 000000da T _ZN3ana5store21purge_state_involvingEPKNS_6svalueEPNS_20region_model_managerE
0000000000b1cd50 000000cb T _ZN3ana5store27remove_overlapping_bindingsEPNS_13store_managerEPKNS_6regionEPNS_13uncertainty_tE
0000000000b1ce1c 000003c1 T _ZNK3ana15compound_svalue22maybe_fold_bits_withinEP9tree_nodeRKNS_9bit_rangeEPNS_20region_model_managerE
0000000000b1d1de 000002cd T _ZN3ana5store9set_valueEPNS_13store_managerEPKNS_6regionEPKNS_6svalueEPNS_13uncertainty_tE
0000000000b1d4ac 0000021d T _ZN3ana5store27replay_call_summary_clusterERNS_19call_summary_replayERKS0_PKNS_6regionE
0000000000b1d6ca 00000106 T _ZN3ana5store19replay_call_summaryERNS_19call_summary_replayERKS0_
0000000000b1d7d0 00000219 T _ZN3ana5store11can_merge_pEPKS0_S2_PS0_PNS_13store_managerEPNS_12model_mergerE
0000000000b1d9ea 00000230 T _ZN3ana5store12canonicalizeEPNS_13store_managerE
0000000000b1dc1a 0000026e T _ZNK3ana9supernode7to_jsonEv
0000000000b1de88 0000013b T _ZNK3ana9superedge7to_jsonEv
0000000000b1dfc4 000000ee T _ZNK3ana10supergraph7to_jsonEv
0000000000b1e0b2 0000004f T _ZNK3ana6svalue7to_jsonEv
0000000000b1e102 00000135 T _ZNK3ana11binding_map7to_jsonEv
0000000000b1e238 000000ac T _ZNK3ana15binding_cluster7to_jsonEv
0000000000b1e2e4 00000242 T _ZNK3ana5store7to_jsonEv
0000000000b1e754 000002f0 T _ZNK3ana9kf_va_arg13impl_call_preERKNS_12call_detailsE
0000000000b1eb6b 000000d1 T _ZN3ana25register_varargs_builtinsERNS_22known_function_managerE
0000000000b1ec3c 00000150 T _Z18gimple_simplify_59P15gimple_match_opPP6gimplePFP9tree_nodeS5_ES5_PS5_
0000000000b1ed8c 00000085 T _Z19gimple_simplify_105P15gimple_match_opPP6gimplePFP9tree_nodeS5_ES5_PS5_
0000000000b1ee11 00000085 T _Z19gimple_simplify_154P15gimple_match_opPP6gimplePFP9tree_nodeS5_ES5_PS5_
0000000000b1ee96 00000085 T _Z19gimple_simplify_301P15gimple_match_opPP6gimplePFP9tree_nodeS5_ES5_PS5_11combined_fn
0000000000b1ef1b 000000b2 T _Z19gimple_simplify_464P15gimple_match_opPP6gimplePFP9tree_nodeS5_ES5_PS5_11combined_fnS9_
0000000000b1efcd 000000b9 T _Z19gimple_simplify_489P15gimple_match_opPP6gimplePFP9tree_nodeS5_ES5_PS5_9tree_codeS9_
0000000000b1f086 000000c7 T _Z19gimple_simplify_494P15gimple_match_opPP6gimplePFP9tree_nodeS5_ES5_PS5_11combined_fn
0000000000b1f14d 00000085 T _Z19gimple_simplify_499P15gimple_match_opPP6gimplePFP9tree_nodeS5_ES5_PS5_
0000000000b1f1d2 000000ad T _Z19gimple_simplify_518P15gimple_match_opPP6gimplePFP9tree_nodeS5_ES5_PS5_9tree_code
0000000000b1f27f 00000085 T _Z19gimple_simplify_540P15gimple_match_opPP6gimplePFP9tree_nodeS5_ES5_PS5_9tree_code
0000000000b1f304 000000b6 T _Z19gimple_simplify_595P15gimple_match_opPP6gimplePFP9tree_nodeS5_ES5_PS5_9tree_code
0000000000b1f3ba 00000085 T _Z19gimple_simplify_608P15gimple_match_opPP6gimplePFP9tree_nodeS5_ES5_PS5_
0000000000b1f43f 000000ca T _Z19gimple_simplify_612P15gimple_match_opPP6gimplePFP9tree_nodeS5_ES5_PS5_11combined_fn
0000000000b1f509 000000db T _Z19gimple_simplify_619P15gimple_match_opPP6gimplePFP9tree_nodeS5_ES5_PS5_11combined_fn
0000000000b1f5e4 000000db T _Z19gimple_simplify_627P15gimple_match_opPP6gimplePFP9tree_nodeS5_ES5_PS5_
0000000000b1f6bf 000000b9 T _Z18gimple_simplify_18P15gimple_match_opPP6gimplePFP9tree_nodeS5_ES5_PS5_
0000000000b1f778 000000b9 T _Z19gimple_simplify_114P15gimple_match_opPP6gimplePFP9tree_nodeS5_ES5_PS5_
0000000000b1f831 00000085 T _Z19gimple_simplify_136P15gimple_match_opPP6gimplePFP9tree_nodeS5_ES5_PS5_9tree_codeS9_
0000000000b1f8b6 00000085 T _Z19gimple_simplify_461P15gimple_match_opPP6gimplePFP9tree_nodeS5_ES5_PS5_
0000000000b1f93b 00000085 T _Z19gimple_simplify_498P15gimple_match_opPP6gimplePFP9tree_nodeS5_ES5_PS5_9tree_code
0000000000b1f9c0 00000085 T _Z19gimple_simplify_571P15gimple_match_opPP6gimplePFP9tree_nodeS5_ES5_PS5_11combined_fn
0000000000b1fa45 00000085 T _Z19gimple_simplify_578P15gimple_match_opPP6gimplePFP9tree_nodeS5_ES5_PS5_
0000000000b1faca 000000b8 T _Z19gimple_simplify_603P15gimple_match_opPP6gimplePFP9tree_nodeS5_ES5_PS5_11combined_fn
0000000000b1fb82 000000d5 T _Z19gimple_simplify_610P15gimple_match_opPP6gimplePFP9tree_nodeS5_ES5_PS5_11combined_fnS9_
0000000000b1fc57 0000007f T _Z19gimple_simplify_617P15gimple_match_opPP6gimplePFP9tree_nodeS5_ES5_PS5_11combined_fn
0000000000b1fcd6 000000db T _Z19gimple_simplify_622P15gimple_match_opPP6gimplePFP9tree_nodeS5_ES5_PS5_
0000000000b1fdb1 00000085 T _Z19gimple_simplify_103P15gimple_match_opPP6gimplePFP9tree_nodeS5_ES5_PS5_
0000000000b1fe36 00000085 T _Z19gimple_simplify_108P15gimple_match_opPP6gimplePFP9tree_nodeS5_ES5_PS5_9tree_code
0000000000b1febb 00000085 T _Z19gimple_simplify_111P15gimple_match_opPP6gimplePFP9tree_nodeS5_ES5_PS5_
0000000000b1ff40 00000085 T _Z19gimple_simplify_132P15gimple_match_opPP6gimplePFP9tree_nodeS5_ES5_PS5_9tree_codeS9_
0000000000b1ffc5 00000085 T _Z19gimple_simplify_160P15gimple_match_opPP6gimplePFP9tree_nodeS5_ES5_PS5_
0000000000b2004a 00000085 T _Z19gimple_simplify_163P15gimple_match_opPP6gimplePFP9tree_nodeS5_ES5_PS5_
0000000000b200cf 000000b7 T _Z19gimple_simplify_186P15gimple_match_opPP6gimplePFP9tree_nodeS5_ES5_PS5_11combined_fn
0000000000b20186 00000085 T _Z19gimple_simplify_300P15gimple_match_opPP6gimplePFP9tree_nodeS5_ES5_PS5_11combined_fn
0000000000b2020b 000000f4 T _Z19gimple_simplify_355P15gimple_match_opPP6gimplePFP9tree_nodeS5_ES5_PS5_9tree_code
0000000000b202ff 000000b9 T _Z19gimple_simplify_468P15gimple_match_opPP6gimplePFP9tree_nodeS5_ES5_PS5_
0000000000b203b8 00000085 T _Z19gimple_simplify_515P15gimple_match_opPP6gimplePFP9tree_nodeS5_ES5_PS5_
0000000000b2043d 000000ad T _Z19gimple_simplify_517P15gimple_match_opPP6gimplePFP9tree_nodeS5_ES5_PS5_9tree_code
0000000000b204ea 00000115 T _Z19gimple_simplify_526P15gimple_match_opPP6gimplePFP9tree_nodeS5_ES5_PS5_
0000000000b205ff 00000085 T _Z19gimple_simplify_533P15gimple_match_opPP6gimplePFP9tree_nodeS5_ES5_PS5_9tree_code
0000000000b20684 000000ab T _Z19gimple_simplify_559P15gimple_match_opPP6gimplePFP9tree_nodeS5_ES5_PS5_11combined_fn
0000000000b2072f 00000093 T _Z19gimple_simplify_600P15gimple_match_opPP6gimplePFP9tree_nodeS5_ES5_PS5_11combined_fnS9_
0000000000b207c2 000000e7 T _Z19gimple_simplify_615P15gimple_match_opPP6gimplePFP9tree_nodeS5_ES5_PS5_11combined_fnS9_S9_
0000000000b208a9 000000db T _Z19gimple_simplify_625P15gimple_match_opPP6gimplePFP9tree_nodeS5_ES5_PS5_
0000000000b20984 00000108 T _Z34gimple_simplify_CFN_BUILT_IN_CCOSLP15gimple_match_opPP6gimplePFP9tree_nodeS5_E11code_helperS5_S5_
0000000000b20a8c 00000108 T _Z34gimple_simplify_CFN_BUILT_IN_CCOSHP15gimple_match_opPP6gimplePFP9tree_nodeS5_E11code_helperS5_S5_
0000000000b20b94 0000016e T _Z19gimple_simplify_556P15gimple_match_opPP6gimplePFP9tree_nodeS5_ES5_PS5_9tree_code11combined_fn
0000000000b20d02 000002bc T _Z19gimple_simplify_574P15gimple_match_opPP6gimplePFP9tree_nodeS5_ES5_PS5_9tree_code
0000000000b20fbe 0000014b T _Z19gimple_simplify_606P15gimple_match_opPP6gimplePFP9tree_nodeS5_ES5_PS5_11combined_fnS9_
0000000000b21109 000000ec T _Z35gimple_simplify_CFN_BUILT_IN_EXP10LP15gimple_match_opPP6gimplePFP9tree_nodeS5_E11code_helperS5_S5_
0000000000b211f5 000000ec T _Z34gimple_simplify_CFN_BUILT_IN_POW10P15gimple_match_opPP6gimplePFP9tree_nodeS5_E11code_helperS5_S5_
0000000000b212e1 000000ec T _Z34gimple_simplify_CFN_BUILT_IN_EXP2FP15gimple_match_opPP6gimplePFP9tree_nodeS5_E11code_helperS5_S5_
0000000000b213cd 000000ec T _Z35gimple_simplify_CFN_BUILT_IN_EXP10FP15gimple_match_opPP6gimplePFP9tree_nodeS5_E11code_helperS5_S5_
0000000000b214b9 00000a75 T _Z23gimple_simplify_CFN_POWP15gimple_match_opPP6gimplePFP9tree_nodeS5_E11code_helperS5_S5_S5_
0000000000b21f2e 000010c6 T _Z33gimple_simplify_CFN_BUILT_IN_POWFP15gimple_match_opPP6gimplePFP9tree_nodeS5_E11code_helperS5_S5_S5_
0000000000b22ff4 000007b7 T _Z34gimple_simplify_CFN_BUILT_IN_HYPOTP15gimple_match_opPP6gimplePFP9tree_nodeS5_E11code_helperS5_S5_S5_
0000000000b237ab 000007b7 T _Z25gimple_simplify_CFN_HYPOTP15gimple_match_opPP6gimplePFP9tree_nodeS5_E11code_helperS5_S5_S5_
0000000000b23f62 000001d4 T _Z18gimple_simplify_74P15gimple_match_opPP6gimplePFP9tree_nodeS5_ES5_PS5_
0000000000b24136 0000033e T _Z34gimple_simplify_CFN_BUILT_IN_FMINFP15gimple_match_opPP6gimplePFP9tree_nodeS5_E11code_helperS5_S5_S5_
0000000000b24474 0000033e T _Z36gimple_simplify_CFN_BUILT_IN_FMINF16P15gimple_match_opPP6gimplePFP9tree_nodeS5_E11code_helperS5_S5_S5_
0000000000b247b2 0000033e T _Z37gimple_simplify_CFN_BUILT_IN_FMINF128P15gimple_match_opPP6gimplePFP9tree_nodeS5_E11code_helperS5_S5_S5_
0000000000b24af0 0000033e T _Z38gimple_simplify_CFN_BUILT_IN_FMINF128XP15gimple_match_opPP6gimplePFP9tree_nodeS5_E11code_helperS5_S5_S5_
0000000000b24e2e 000000ca T _Z17gimple_simplify_7P15gimple_match_opPP6gimplePFP9tree_nodeS5_ES5_PS5_
0000000000b24ef8 000001c9 T _Z18gimple_simplify_72P15gimple_match_opPP6gimplePFP9tree_nodeS5_ES5_PS5_11combined_fn
0000000000b250c1 00000150 T _Z18gimple_simplify_79P15gimple_match_opPP6gimplePFP9tree_nodeS5_ES5_PS5_
0000000000b25211 0000017d T _Z18gimple_simplify_98P15gimple_match_opPP6gimplePFP9tree_nodeS5_ES5_PS5_9tree_codeS9_11combined_fn
0000000000b2538e 0000033e T _Z34gimple_simplify_CFN_BUILT_IN_FMINLP15gimple_match_opPP6gimplePFP9tree_nodeS5_E11code_helperS5_S5_S5_
0000000000b256cc 0000033e T _Z36gimple_simplify_CFN_BUILT_IN_FMINF64P15gimple_match_opPP6gimplePFP9tree_nodeS5_E11code_helperS5_S5_S5_
0000000000b25a0a 0000033e T _Z37gimple_simplify_CFN_BUILT_IN_FMINF64XP15gimple_match_opPP6gimplePFP9tree_nodeS5_E11code_helperS5_S5_S5_
0000000000b25d48 0000017e T _Z18gimple_simplify_73P15gimple_match_opPP6gimplePFP9tree_nodeS5_ES5_PS5_9tree_codeS9_11combined_fn
0000000000b25ec6 0000014c T _Z18gimple_simplify_78P15gimple_match_opPP6gimplePFP9tree_nodeS5_ES5_PS5_
0000000000b26012 000001d4 T _Z18gimple_simplify_99P15gimple_match_opPP6gimplePFP9tree_nodeS5_ES5_PS5_
0000000000b261e6 000000f7 T _Z19gimple_simplify_328P15gimple_match_opPP6gimplePFP9tree_nodeS5_ES5_PS5_11combined_fnS9_S9_
0000000000b262dd 000001e9 T _Z19gimple_simplify_335P15gimple_match_opPP6gimplePFP9tree_nodeS5_ES5_PS5_11combined_fn
0000000000b264c6 00000150 T _Z19gimple_simplify_488P15gimple_match_opPP6gimplePFP9tree_nodeS5_ES5_PS5_9tree_codeS9_
0000000000b26616 00000a8a T _Z25gimple_simplify_UNEQ_EXPRP15gimple_match_opPP6gimplePFP9tree_nodeS5_E11code_helperS5_S5_S5_
0000000000b270a0 00000a94 T _Z25gimple_simplify_UNGT_EXPRP15gimple_match_opPP6gimplePFP9tree_nodeS5_E11code_helperS5_S5_S5_
0000000000b27b34 00000a94 T _Z25gimple_simplify_UNLT_EXPRP15gimple_match_opPP6gimplePFP9tree_nodeS5_E11code_helperS5_S5_S5_
0000000000b285c8 00000113 T _Z36gimple_simplify_CFN_BUILT_IN_SCALBNLP15gimple_match_opPP6gimplePFP9tree_nodeS5_E11code_helperS5_S5_S5_
0000000000b286db 00000113 T _Z35gimple_simplify_CFN_BUILT_IN_SCALBNP15gimple_match_opPP6gimplePFP9tree_nodeS5_E11code_helperS5_S5_S5_
0000000000b287ee 00000359 T _Z32gimple_simplify_CFN_BUILT_IN_FMAP15gimple_match_opPP6gimplePFP9tree_nodeS5_E11code_helperS5_S5_S5_S5_
0000000000b28b47 00000359 T _Z33gimple_simplify_CFN_BUILT_IN_FMAFP15gimple_match_opPP6gimplePFP9tree_nodeS5_E11code_helperS5_S5_S5_S5_
0000000000b28ea0 00000359 T _Z33gimple_simplify_CFN_BUILT_IN_FMALP15gimple_match_opPP6gimplePFP9tree_nodeS5_E11code_helperS5_S5_S5_S5_
0000000000b291f9 000003d8 T _Z23gimple_simplify_CFN_FMSP15gimple_match_opPP6gimplePFP9tree_nodeS5_E11code_helperS5_S5_S5_S5_
0000000000b295d1 00000226 T _Z29gimple_simplify_CFN_REDUC_MAXP15gimple_match_opPP6gimplePFP9tree_nodeS5_E11code_helperS5_S5_
0000000000b297f7 00000887 T _Z34gimple_simplify_CFN_VCOND_MASK_LENP15gimple_match_opPP6gimplePFP9tree_nodeS5_E11code_helperS5_S5_S5_S5_
0000000000b2a07e 0000029b T _Z28gimple_simplify_CFN_COND_ADDP15gimple_match_opPP6gimplePFP9tree_nodeS5_E11code_helperS5_S5_S5_S5_S5_
0000000000b2a319 0000029c T _Z19gimple_simplify_583P15gimple_match_opPP6gimplePFP9tree_nodeS5_ES5_PS5_11combined_fnS9_
0000000000b2a5b5 00000236 T _Z19gimple_simplify_643P15gimple_match_opPP6gimplePFP9tree_nodeS5_ES5_PS5_11combined_fnS9_
0000000000b2a7eb 0000a211 T _Z34gimple_simplify_CFN_VCOND_MASK_LENP15gimple_match_opPP6gimplePFP9tree_nodeS5_E11code_helperS5_S5_S5_S5_S5_S5_
0000000000b349fc 0000023e T _Z18gimple_simplify_81P15gimple_match_opPP6gimplePFP9tree_nodeS5_ES5_PS5_
0000000000b34c3a 0000031c T _Z19gimple_simplify_139P15gimple_match_opPP6gimplePFP9tree_nodeS5_ES5_PS5_9tree_code
0000000000b34f56 00000214 T _Z19gimple_simplify_636P15gimple_match_opPP6gimplePFP9tree_nodeS5_ES5_PS5_11combined_fnS9_
0000000000b3516a 00002aae T _Z29gimple_simplify_TRUTH_OR_EXPRP15gimple_match_opPP6gimplePFP9tree_nodeS5_E11code_helperS5_S5_S5_
0000000000b37c18 0000023e T _Z18gimple_simplify_52P15gimple_match_opPP6gimplePFP9tree_nodeS5_ES5_PS5_
0000000000b37e56 00000160 T _Z18gimple_simplify_67P15gimple_match_opPP6gimplePFP9tree_nodeS5_ES5_PS5_
0000000000b37fb6 000001a0 T _Z19gimple_simplify_630P15gimple_match_opPP6gimplePFP9tree_nodeS5_ES5_PS5_9tree_code11combined_fn
0000000000b38156 000003a0 T _Z18gimple_simplify_42P15gimple_match_opPP6gimplePFP9tree_nodeS5_ES5_PS5_11combined_fn
0000000000b384f6 000004fd T _Z18gimple_simplify_36P15gimple_match_opPP6gimplePFP9tree_nodeS5_ES5_PS5_9tree_code
0000000000b389f3 00000375 T _Z18gimple_simplify_34P15gimple_match_opPP6gimplePFP9tree_nodeS5_ES5_PS5_9tree_code
0000000000b38d68 000000f4 T _Z19gimple_simplify_159P15gimple_match_opPP6gimplePFP9tree_nodeS5_ES5_PS5_9tree_code
0000000000b38e5c 000000f1 T _Z19gimple_simplify_448P15gimple_match_opPP6gimplePFP9tree_nodeS5_ES5_PS5_9tree_code
0000000000b38f4d 0000008e T _Z18gimple_simplify_30P15gimple_match_opPP6gimplePFP9tree_nodeS5_ES5_PS5_9tree_code
0000000000b38fdb 0000008e T _Z19gimple_simplify_158P15gimple_match_opPP6gimplePFP9tree_nodeS5_ES5_PS5_
0000000000b39069 00000098 T _Z19gimple_simplify_205P15gimple_match_opPP6gimplePFP9tree_nodeS5_ES5_PS5_9tree_code
0000000000b39101 000000ad T _Z19gimple_simplify_534P15gimple_match_opPP6gimplePFP9tree_nodeS5_ES5_PS5_9tree_code
0000000000b391ae 00000096 T _Z19gimple_simplify_539P15gimple_match_opPP6gimplePFP9tree_nodeS5_ES5_PS5_9tree_code
0000000000b39244 00000096 T _Z19gimple_simplify_544P15gimple_match_opPP6gimplePFP9tree_nodeS5_ES5_PS5_9tree_code
0000000000b392da 0000013b T _Z19gimple_simplify_168P15gimple_match_opPP6gimplePFP9tree_nodeS5_ES5_PS5_
0000000000b39415 0000013b T _Z19gimple_simplify_173P15gimple_match_opPP6gimplePFP9tree_nodeS5_ES5_PS5_
0000000000b39550 0000013b T _Z19gimple_simplify_178P15gimple_match_opPP6gimplePFP9tree_nodeS5_ES5_PS5_
0000000000b3968b 0000013b T _Z19gimple_simplify_167P15gimple_match_opPP6gimplePFP9tree_nodeS5_ES5_PS5_
0000000000b397c6 0000013b T _Z19gimple_simplify_171P15gimple_match_opPP6gimplePFP9tree_nodeS5_ES5_PS5_
0000000000b39901 0000013b T _Z19gimple_simplify_176P15gimple_match_opPP6gimplePFP9tree_nodeS5_ES5_PS5_
0000000000b39a3c 0000013b T _Z19gimple_simplify_183P15gimple_match_opPP6gimplePFP9tree_nodeS5_ES5_PS5_11combined_fn
0000000000b39b77 00000ae2 T _Z25gimple_simplify_LTGT_EXPRP15gimple_match_opPP6gimplePFP9tree_nodeS5_E11code_helperS5_S5_S5_
0000000000b3a659 0000013b T _Z19gimple_simplify_166P15gimple_match_opPP6gimplePFP9tree_nodeS5_ES5_PS5_
0000000000b3a794 0000013b T _Z19gimple_simplify_170P15gimple_match_opPP6gimplePFP9tree_nodeS5_ES5_PS5_
0000000000b3a8cf 0000013b T _Z19gimple_simplify_175P15gimple_match_opPP6gimplePFP9tree_nodeS5_ES5_PS5_
0000000000b3aa0a 000000cc T _Z19gimple_simplify_181P15gimple_match_opPP6gimplePFP9tree_nodeS5_ES5_PS5_11combined_fn
0000000000b3aad6 00000165 T _Z19gimple_simplify_220P15gimple_match_opPP6gimplePFP9tree_nodeS5_ES5_PS5_9tree_code
0000000000b3ac3b 000000d9 T _Z19gimple_simplify_237P15gimple_match_opPP6gimplePFP9tree_nodeS5_ES5_PS5_9tree_codeS9_S9_
0000000000b3ad14 00000204 T _Z18gimple_simplify_43P15gimple_match_opPP6gimplePFP9tree_nodeS5_ES5_PS5_
0000000000b3af18 000000fa T _Z19gimple_simplify_253P15gimple_match_opPP6gimplePFP9tree_nodeS5_ES5_PS5_9tree_codeS9_
0000000000b3b012 00000111 T _Z19gimple_simplify_329P15gimple_match_opPP6gimplePFP9tree_nodeS5_ES5_PS5_11combined_fnS9_S9_
0000000000b3b123 00000177 T _Z19gimple_simplify_336P15gimple_match_opPP6gimplePFP9tree_nodeS5_ES5_PS5_9tree_codeS9_
0000000000b3b29a 0000017d T _Z19gimple_simplify_460P15gimple_match_opPP6gimplePFP9tree_nodeS5_ES5_PS5_
0000000000b3b417 00000089 T _Z19gimple_simplify_433P15gimple_match_opPP6gimplePFP9tree_nodeS5_ES5_PS5_
0000000000b3b4a0 00000100 T _Z19gimple_simplify_435P15gimple_match_opPP6gimplePFP9tree_nodeS5_ES5_PS5_9tree_code
0000000000b3b5a0 00000162 T _Z19gimple_simplify_107P15gimple_match_opPP6gimplePFP9tree_nodeS5_ES5_PS5_
0000000000b3b702 0000042c T _Z19gimple_simplify_399P15gimple_match_opPP6gimplePFP9tree_nodeS5_ES5_PS5_11combined_fnS9_S9_S9_
0000000000b3bb2e 00000235 T _Z19gimple_simplify_475P15gimple_match_opPP6gimplePFP9tree_nodeS5_ES5_PS5_9tree_code
0000000000b3bd63 00000102 T _Z17gimple_simplify_2P15gimple_match_opPP6gimplePFP9tree_nodeS5_ES5_PS5_
0000000000b3be65 000001e9 T _Z19gimple_simplify_584P15gimple_match_opPP6gimplePFP9tree_nodeS5_ES5_PS5_11combined_fn
0000000000b3c04e 00000203 T _Z19gimple_simplify_590P15gimple_match_opPP6gimplePFP9tree_nodeS5_ES5_PS5_11combined_fn
0000000000b3c251 000000e5 T _Z19gimple_simplify_430P15gimple_match_opPP6gimplePFP9tree_nodeS5_ES5_PS5_
0000000000b3c336 000000df T _Z19gimple_simplify_521P15gimple_match_opPP6gimplePFP9tree_nodeS5_ES5_PS5_
0000000000b3c415 000000df T _Z19gimple_simplify_524P15gimple_match_opPP6gimplePFP9tree_nodeS5_ES5_PS5_
0000000000b3c4f4 000000df T _Z19gimple_simplify_520P15gimple_match_opPP6gimplePFP9tree_nodeS5_ES5_PS5_
0000000000b3c5d3 000000df T _Z19gimple_simplify_523P15gimple_match_opPP6gimplePFP9tree_nodeS5_ES5_PS5_
0000000000b3c6b2 00000258 T _Z19gimple_simplify_527P15gimple_match_opPP6gimplePFP9tree_nodeS5_ES5_PS5_
0000000000b3c90a 000003db T _Z19gimple_simplify_548P15gimple_match_opPP6gimplePFP9tree_nodeS5_ES5_PS5_9tree_code
0000000000b3cce5 000000de T _Z19gimple_simplify_567P15gimple_match_opPP6gimplePFP9tree_nodeS5_ES5_PS5_
0000000000b3cdc3 000000de T _Z19gimple_simplify_566P15gimple_match_opPP6gimplePFP9tree_nodeS5_ES5_PS5_
0000000000b3cea1 000000e5 T _Z19gimple_simplify_575P15gimple_match_opPP6gimplePFP9tree_nodeS5_ES5_PS5_9tree_codeS9_S9_
0000000000b3cf86 00000360 T _Z33gimple_simplify_CFN_BUILT_IN_COSFP15gimple_match_opPP6gimplePFP9tree_nodeS5_E11code_helperS5_S5_
0000000000b3d2e6 0000035c T _Z34gimple_simplify_CFN_BUILT_IN_COSHLP15gimple_match_opPP6gimplePFP9tree_nodeS5_E11code_helperS5_S5_
0000000000b3d642 0000035c T _Z34gimple_simplify_CFN_BUILT_IN_COSHFP15gimple_match_opPP6gimplePFP9tree_nodeS5_E11code_helperS5_S5_
0000000000b3d99e 0000035c T _Z33gimple_simplify_CFN_BUILT_IN_COSHP15gimple_match_opPP6gimplePFP9tree_nodeS5_E11code_helperS5_S5_
0000000000b3dcfa 00000591 T _Z25gimple_simplify_CONJ_EXPRP15gimple_match_opPP6gimplePFP9tree_nodeS5_E11code_helperS5_S5_
0000000000b3e28b 0000082d T _Z33gimple_simplify_CFN_BUILT_IN_LOGLP15gimple_match_opPP6gimplePFP9tree_nodeS5_E11code_helperS5_S5_
0000000000b3eab8 00000540 T _Z25gimple_simplify_CFN_LOG10P15gimple_match_opPP6gimplePFP9tree_nodeS5_E11code_helperS5_S5_
0000000000b3eff8 0000070a T _Z35gimple_simplify_CFN_BUILT_IN_LOG10LP15gimple_match_opPP6gimplePFP9tree_nodeS5_E11code_helperS5_S5_
0000000000b3f702 0000082f T _Z34gimple_simplify_CFN_BUILT_IN_LOG2FP15gimple_match_opPP6gimplePFP9tree_nodeS5_E11code_helperS5_S5_
0000000000b3ff31 00000848 T _Z34gimple_simplify_CFN_BUILT_IN_CBRTFP15gimple_match_opPP6gimplePFP9tree_nodeS5_E11code_helperS5_S5_
0000000000b40779 00000848 T _Z34gimple_simplify_CFN_BUILT_IN_CBRTLP15gimple_match_opPP6gimplePFP9tree_nodeS5_E11code_helperS5_S5_
0000000000b40fc1 000000d1 T _Z37gimple_simplify_CFN_BUILT_IN_TRUNCF16P15gimple_match_opPP6gimplePFP9tree_nodeS5_E11code_helperS5_S5_
0000000000b41092 000000d1 T _Z25gimple_simplify_CFN_TRUNCP15gimple_match_opPP6gimplePFP9tree_nodeS5_E11code_helperS5_S5_
0000000000b41163 000000cf T _Z37gimple_simplify_CFN_BUILT_IN_CEILF128P15gimple_match_opPP6gimplePFP9tree_nodeS5_E11code_helperS5_S5_
0000000000b41232 000000d1 T _Z37gimple_simplify_CFN_BUILT_IN_ROUNDF16P15gimple_match_opPP6gimplePFP9tree_nodeS5_E11code_helperS5_S5_
0000000000b41303 000000d1 T _Z25gimple_simplify_CFN_ROUNDP15gimple_match_opPP6gimplePFP9tree_nodeS5_E11code_helperS5_S5_
0000000000b413d4 000000d1 T _Z42gimple_simplify_CFN_BUILT_IN_NEARBYINTF64XP15gimple_match_opPP6gimplePFP9tree_nodeS5_E11code_helperS5_S5_
0000000000b414a5 000000d1 T _Z36gimple_simplify_CFN_BUILT_IN_RINTF64P15gimple_match_opPP6gimplePFP9tree_nodeS5_E11code_helperS5_S5_
0000000000b41576 000000d1 T _Z38gimple_simplify_CFN_BUILT_IN_TRUNCF128P15gimple_match_opPP6gimplePFP9tree_nodeS5_E11code_helperS5_S5_
0000000000b41647 000000cf T _Z38gimple_simplify_CFN_BUILT_IN_CEILF128XP15gimple_match_opPP6gimplePFP9tree_nodeS5_E11code_helperS5_S5_
0000000000b41716 000000d1 T _Z38gimple_simplify_CFN_BUILT_IN_ROUNDF32XP15gimple_match_opPP6gimplePFP9tree_nodeS5_E11code_helperS5_S5_
0000000000b417e7 000000d1 T _Z41gimple_simplify_CFN_BUILT_IN_NEARBYINTF32P15gimple_match_opPP6gimplePFP9tree_nodeS5_E11code_helperS5_S5_
0000000000b418b8 000000d1 T _Z34gimple_simplify_CFN_BUILT_IN_RINTFP15gimple_match_opPP6gimplePFP9tree_nodeS5_E11code_helperS5_S5_
0000000000b41989 000000d1 T _Z38gimple_simplify_CFN_BUILT_IN_RINTF128XP15gimple_match_opPP6gimplePFP9tree_nodeS5_E11code_helperS5_S5_
0000000000b41a5a 000000cf T _Z36gimple_simplify_CFN_BUILT_IN_CEILF16P15gimple_match_opPP6gimplePFP9tree_nodeS5_E11code_helperS5_S5_
0000000000b41b29 000000d1 T _Z24gimple_simplify_CFN_CEILP15gimple_match_opPP6gimplePFP9tree_nodeS5_E11code_helperS5_S5_
0000000000b41bfa 000000d1 T _Z38gimple_simplify_CFN_BUILT_IN_ROUNDF64XP15gimple_match_opPP6gimplePFP9tree_nodeS5_E11code_helperS5_S5_
0000000000b41ccb 000000d1 T _Z41gimple_simplify_CFN_BUILT_IN_NEARBYINTF64P15gimple_match_opPP6gimplePFP9tree_nodeS5_E11code_helperS5_S5_
0000000000b41d9c 00000108 T _Z38gimple_simplify_CFN_BUILT_IN_FLOORF64XP15gimple_match_opPP6gimplePFP9tree_nodeS5_E11code_helperS5_S5_
0000000000b41ea4 00000108 T _Z37gimple_simplify_CFN_BUILT_IN_FLOORF16P15gimple_match_opPP6gimplePFP9tree_nodeS5_E11code_helperS5_S5_
0000000000b41fac 00000108 T _Z25gimple_simplify_CFN_FLOORP15gimple_match_opPP6gimplePFP9tree_nodeS5_E11code_helperS5_S5_
0000000000b420b4 00000440 T _Z33gimple_simplify_CFN_BUILT_IN_CEXPP15gimple_match_opPP6gimplePFP9tree_nodeS5_E11code_helperS5_S5_
0000000000b424f4 00000440 T _Z34gimple_simplify_CFN_BUILT_IN_CEXPLP15gimple_match_opPP6gimplePFP9tree_nodeS5_E11code_helperS5_S5_
0000000000b42934 00000092 T _Z36gimple_simplify_CFN_BUILT_IN_LLCEILFP15gimple_match_opPP6gimplePFP9tree_nodeS5_E11code_helperS5_S5_
0000000000b429c6 000000c5 T _Z37gimple_simplify_CFN_BUILT_IN_LLFLOORFP15gimple_match_opPP6gimplePFP9tree_nodeS5_E11code_helperS5_S5_
0000000000b42a8b 00000092 T _Z26gimple_simplify_CFN_LLCEILP15gimple_match_opPP6gimplePFP9tree_nodeS5_E11code_helperS5_S5_
0000000000b42b1d 00000061 T _Z35gimple_simplify_CFN_BUILT_IN_LCEILFP15gimple_match_opPP6gimplePFP9tree_nodeS5_E11code_helperS5_S5_
0000000000b42b7e 00000061 T _Z36gimple_simplify_CFN_BUILT_IN_LROUNDFP15gimple_match_opPP6gimplePFP9tree_nodeS5_E11code_helperS5_S5_
0000000000b42bdf 00000133 T _Z35gimple_simplify_CFN_BUILT_IN_LFLOORP15gimple_match_opPP6gimplePFP9tree_nodeS5_E11code_helperS5_S5_
0000000000b42d12 00000102 T _Z34gimple_simplify_CFN_BUILT_IN_LRINTP15gimple_match_opPP6gimplePFP9tree_nodeS5_E11code_helperS5_S5_
0000000000b42e14 00000061 T _Z35gimple_simplify_CFN_BUILT_IN_LRINTFP15gimple_match_opPP6gimplePFP9tree_nodeS5_E11code_helperS5_S5_
0000000000b42e75 00000092 T _Z36gimple_simplify_CFN_BUILT_IN_LLRINTFP15gimple_match_opPP6gimplePFP9tree_nodeS5_E11code_helperS5_S5_
0000000000b42f07 00000092 T _Z25gimple_simplify_CFN_IRINTP15gimple_match_opPP6gimplePFP9tree_nodeS5_E11code_helperS5_S5_
0000000000b42f99 00000132 T _Z35gimple_simplify_CFN_BUILT_IN_IROUNDP15gimple_match_opPP6gimplePFP9tree_nodeS5_E11code_helperS5_S5_
0000000000b430cb 00000132 T _Z34gimple_simplify_CFN_BUILT_IN_ICEILP15gimple_match_opPP6gimplePFP9tree_nodeS5_E11code_helperS5_S5_
0000000000b431fd 000000c5 T _Z36gimple_simplify_CFN_BUILT_IN_IFLOORFP15gimple_match_opPP6gimplePFP9tree_nodeS5_E11code_helperS5_S5_
0000000000b432c2 0000007f T _Z27gimple_simplify_CFN_SIGNBITP15gimple_match_opPP6gimplePFP9tree_nodeS5_E11code_helperS5_S5_
0000000000b43341 0000007f T _Z36gimple_simplify_CFN_BUILT_IN_SIGNBITP15gimple_match_opPP6gimplePFP9tree_nodeS5_E11code_helperS5_S5_
0000000000b433c0 0000033e T _Z33gimple_simplify_CFN_BUILT_IN_FMAXP15gimple_match_opPP6gimplePFP9tree_nodeS5_E11code_helperS5_S5_S5_
0000000000b436fe 0000033e T _Z36gimple_simplify_CFN_BUILT_IN_FMAXF32P15gimple_match_opPP6gimplePFP9tree_nodeS5_E11code_helperS5_S5_S5_
0000000000b43a3c 0000033e T _Z37gimple_simplify_CFN_BUILT_IN_FMAXF64XP15gimple_match_opPP6gimplePFP9tree_nodeS5_E11code_helperS5_S5_S5_
0000000000b43d7a 0000033e T _Z34gimple_simplify_CFN_BUILT_IN_FMAXFP15gimple_match_opPP6gimplePFP9tree_nodeS5_E11code_helperS5_S5_S5_
0000000000b440b8 0000033e T _Z36gimple_simplify_CFN_BUILT_IN_FMAXF16P15gimple_match_opPP6gimplePFP9tree_nodeS5_E11code_helperS5_S5_S5_
0000000000b443f6 0000033e T _Z37gimple_simplify_CFN_BUILT_IN_FMAXF32XP15gimple_match_opPP6gimplePFP9tree_nodeS5_E11code_helperS5_S5_S5_
0000000000b44734 0000031c T _Z19gimple_simplify_134P15gimple_match_opPP6gimplePFP9tree_nodeS5_ES5_PS5_9tree_code
0000000000b44a50 000000ad T _Z19gimple_simplify_531P15gimple_match_opPP6gimplePFP9tree_nodeS5_ES5_PS5_9tree_code
0000000000b44afd 0000031c T _Z19gimple_simplify_140P15gimple_match_opPP6gimplePFP9tree_nodeS5_ES5_PS5_9tree_code
0000000000b44e19 00000145 T _Z19gimple_simplify_549P15gimple_match_opPP6gimplePFP9tree_nodeS5_ES5_PS5_9tree_code
0000000000b44f5e 000005b6 T _Z19gimple_simplify_370P15gimple_match_opPP6gimplePFP9tree_nodeS5_ES5_PS5_9tree_codeS9_S9_S9_11combined_fn
0000000000b45514 000000b9 T _Z19gimple_simplify_493P15gimple_match_opPP6gimplePFP9tree_nodeS5_ES5_PS5_11combined_fn
0000000000b455cd 00000124 T _Z19gimple_simplify_390P15gimple_match_opPP6gimplePFP9tree_nodeS5_ES5_PS5_11combined_fn
0000000000b456f1 0000043b T _Z19gimple_simplify_638P15gimple_match_opPP6gimplePFP9tree_nodeS5_ES5_PS5_11combined_fn
0000000000b45b2c 000005bc T _Z26gimple_simplify_CFN_PARITYP15gimple_match_opPP6gimplePFP9tree_nodeS5_E11code_helperS5_S5_
0000000000b460e8 000003ee T _Z34gimple_simplify_CFN_BUILT_IN_CABSFP15gimple_match_opPP6gimplePFP9tree_nodeS5_E11code_helperS5_S5_
0000000000b464d6 000003ee T _Z34gimple_simplify_CFN_BUILT_IN_CABSLP15gimple_match_opPP6gimplePFP9tree_nodeS5_E11code_helperS5_S5_
0000000000b468c4 0000014e T _Z35gimple_simplify_CFN_BUILT_IN_LCEILLP15gimple_match_opPP6gimplePFP9tree_nodeS5_E11code_helperS5_S5_
0000000000b46a12 0000017f T _Z37gimple_simplify_CFN_BUILT_IN_LLROUNDLP15gimple_match_opPP6gimplePFP9tree_nodeS5_E11code_helperS5_S5_
0000000000b46b91 000000b6 T _Z36gimple_simplify_CFN_BUILT_IN_CTZIMAXP15gimple_match_opPP6gimplePFP9tree_nodeS5_E11code_helperS5_S5_
0000000000b46c47 00000577 T _Z28gimple_simplify_CFN_POPCOUNTP15gimple_match_opPP6gimplePFP9tree_nodeS5_E11code_helperS5_S5_
0000000000b471be 00000577 T _Z39gimple_simplify_CFN_BUILT_IN_POPCOUNTLLP15gimple_match_opPP6gimplePFP9tree_nodeS5_E11code_helperS5_S5_
0000000000b47735 000000ea T _Z34gimple_simplify_CFN_BUILT_IN_FFSLLP15gimple_match_opPP6gimplePFP9tree_nodeS5_E11code_helperS5_S5_
0000000000b4781f 000003e0 T _Z40gimple_simplify_CFN_BUILT_IN_COPYSIGNF32P15gimple_match_opPP6gimplePFP9tree_nodeS5_E11code_helperS5_S5_S5_
0000000000b47bff 000003e0 T _Z41gimple_simplify_CFN_BUILT_IN_COPYSIGNF128P15gimple_match_opPP6gimplePFP9tree_nodeS5_E11code_helperS5_S5_S5_
0000000000b47fdf 000003e0 T _Z41gimple_simplify_CFN_BUILT_IN_COPYSIGNF64XP15gimple_match_opPP6gimplePFP9tree_nodeS5_E11code_helperS5_S5_S5_
0000000000b483bf 000003e2 T _Z28gimple_simplify_CFN_COPYSIGNP15gimple_match_opPP6gimplePFP9tree_nodeS5_E11code_helperS5_S5_S5_
0000000000b487a1 00000fea T _Z30gimple_simplify_FLOOR_DIV_EXPRP15gimple_match_opPP6gimplePFP9tree_nodeS5_E11code_helperS5_S5_S5_
0000000000b4978b 00000abb T _Z33gimple_simplify_CFN_BUILT_IN_POWIP15gimple_match_opPP6gimplePFP9tree_nodeS5_E11code_helperS5_S5_S5_
0000000000b4a246 000003d8 T _Z24gimple_simplify_CFN_FNMAP15gimple_match_opPP6gimplePFP9tree_nodeS5_E11code_helperS5_S5_S5_S5_
0000000000b4a6b7 00000105 T _Z18gimple_simplify_62P15gimple_match_opPP6gimplePFP9tree_nodeS5_ES5_PS5_
0000000000b4a7bc 000001ae T _Z18gimple_simplify_92P15gimple_match_opPP6gimplePFP9tree_nodeS5_ES5_PS5_
0000000000b4a96a 000002a4 T _Z19gimple_simplify_289P15gimple_match_opPP6gimplePFP9tree_nodeS5_ES5_PS5_9tree_codeS9_
0000000000b4ac0e 000001e5 T _Z19gimple_simplify_358P15gimple_match_opPP6gimplePFP9tree_nodeS5_ES5_PS5_9tree_codeS9_
0000000000b4adf3 000000d1 T _Z19gimple_simplify_377P15gimple_match_opPP6gimplePFP9tree_nodeS5_ES5_PS5_9tree_code
0000000000b4aec4 00000218 T _Z19gimple_simplify_511P15gimple_match_opPP6gimplePFP9tree_nodeS5_ES5_PS5_9tree_codeS9_
0000000000b4b0dc 0000020f T _Z19gimple_simplify_589P15gimple_match_opPP6gimplePFP9tree_nodeS5_ES5_PS5_11combined_fn
0000000000b4b2eb 000008a3 T _Z33gimple_simplify_CFN_BUILT_IN_SQRTP15gimple_match_opPP6gimplePFP9tree_nodeS5_E11code_helperS5_S5_
0000000000b4bb8e 00000153 T _Z34gimple_simplify_CFN_BUILT_IN_TRUNCP15gimple_match_opPP6gimplePFP9tree_nodeS5_E11code_helperS5_S5_
0000000000b4bce1 00000198 T _Z34gimple_simplify_CFN_BUILT_IN_FLOORP15gimple_match_opPP6gimplePFP9tree_nodeS5_E11code_helperS5_S5_
0000000000b4be79 00000153 T _Z33gimple_simplify_CFN_BUILT_IN_RINTP15gimple_match_opPP6gimplePFP9tree_nodeS5_E11code_helperS5_S5_
0000000000b4bfcc 00000044 T _Z16gimple_dump_logsPKciS0_ib
0000000000b4c010 00000059 T _Z21gimple_double_value_pP9tree_nodePFS0_S0_E
0000000000b4c069 00000143 T _Z18gimple_simplify_70P15gimple_match_opPP6gimplePFP9tree_nodeS5_ES5_PS5_9tree_code
0000000000b4c1ac 00000085 T _Z19gimple_simplify_110P15gimple_match_opPP6gimplePFP9tree_nodeS5_ES5_PS5_9tree_code
0000000000b4c231 000000a4 T _Z19gimple_simplify_117P15gimple_match_opPP6gimplePFP9tree_nodeS5_ES5_PS5_
0000000000b4c2d5 00000085 T _Z19gimple_simplify_147P15gimple_match_opPP6gimplePFP9tree_nodeS5_ES5_PS5_
0000000000b4c35a 00000131 T _Z19gimple_simplify_190P15gimple_match_opPP6gimplePFP9tree_nodeS5_ES5_PS5_
0000000000b4c48b 000000b0 T _Z19gimple_simplify_302P15gimple_match_opPP6gimplePFP9tree_nodeS5_ES5_PS5_11combined_fn
0000000000b4c53b 00000085 T _Z19gimple_simplify_323P15gimple_match_opPP6gimplePFP9tree_nodeS5_ES5_PS5_9tree_code
0000000000b4c5c0 000000b2 T _Z19gimple_simplify_398P15gimple_match_opPP6gimplePFP9tree_nodeS5_ES5_PS5_11combined_fnS9_
0000000000b4c672 00000085 T _Z19gimple_simplify_404P15gimple_match_opPP6gimplePFP9tree_nodeS5_ES5_PS5_
0000000000b4c6f7 000000bb T _Z19gimple_simplify_406P15gimple_match_opPP6gimplePFP9tree_nodeS5_ES5_PS5_11combined_fnS9_
0000000000b4c7b2 000000d8 T _Z19gimple_simplify_417P15gimple_match_opPP6gimplePFP9tree_nodeS5_ES5_PS5_
